
benchmarks/bubble1000/bubbleint.out:	file format elf32-littlearm

Disassembly of section .text:

00000000 <swap>:
       0: b084         	sub	sp, #0x10
       2: 9003         	str	r0, [sp, #0xc]
       4: 9102         	str	r1, [sp, #0x8]
       6: 9201         	str	r2, [sp, #0x4]
       8: 9803         	ldr	r0, [sp, #0xc]
       a: 9902         	ldr	r1, [sp, #0x8]
       c: 0089         	lsls	r1, r1, #0x2
       e: 5840         	ldr	r0, [r0, r1]
      10: 9000         	str	r0, [sp]
      12: 9903         	ldr	r1, [sp, #0xc]
      14: 9801         	ldr	r0, [sp, #0x4]
      16: 0080         	lsls	r0, r0, #0x2
      18: 5808         	ldr	r0, [r1, r0]
      1a: 9a02         	ldr	r2, [sp, #0x8]
      1c: 0092         	lsls	r2, r2, #0x2
      1e: 5088         	str	r0, [r1, r2]
      20: 9800         	ldr	r0, [sp]
      22: 9903         	ldr	r1, [sp, #0xc]
      24: 9a01         	ldr	r2, [sp, #0x4]
      26: 0092         	lsls	r2, r2, #0x2
      28: 5088         	str	r0, [r1, r2]
      2a: b004         	add	sp, #0x10
      2c: 4770         	bx	lr

0000002e <bubble_sort>:
      2e: b580         	push	{r7, lr}
      30: af00         	add	r7, sp, #0x0
      32: b084         	sub	sp, #0x10
      34: 9003         	str	r0, [sp, #0xc]
      36: 9102         	str	r1, [sp, #0x8]
      38: 2000         	movs	r0, #0x0
      3a: 9001         	str	r0, [sp, #0x4]
      3c: e7ff         	b	0x3e <bubble_sort+0x10> @ imm = #-0x2
      3e: 9801         	ldr	r0, [sp, #0x4]
      40: 9902         	ldr	r1, [sp, #0x8]
      42: 4288         	cmp	r0, r1
      44: da24         	bge	0x90 <bubble_sort+0x62> @ imm = #0x48
      46: e7ff         	b	0x48 <bubble_sort+0x1a> @ imm = #-0x2
      48: 2000         	movs	r0, #0x0
      4a: 9000         	str	r0, [sp]
      4c: e7ff         	b	0x4e <bubble_sort+0x20> @ imm = #-0x2
      4e: 9800         	ldr	r0, [sp]
      50: 9a02         	ldr	r2, [sp, #0x8]
      52: 9901         	ldr	r1, [sp, #0x4]
      54: 43c9         	mvns	r1, r1
      56: 1889         	adds	r1, r1, r2
      58: 4288         	cmp	r0, r1
      5a: da14         	bge	0x86 <bubble_sort+0x58> @ imm = #0x28
      5c: e7ff         	b	0x5e <bubble_sort+0x30> @ imm = #-0x2
      5e: 9803         	ldr	r0, [sp, #0xc]
      60: 9900         	ldr	r1, [sp]
      62: 008a         	lsls	r2, r1, #0x2
      64: 1881         	adds	r1, r0, r2
      66: 5880         	ldr	r0, [r0, r2]
      68: 6849         	ldr	r1, [r1, #0x4]
      6a: 4288         	cmp	r0, r1
      6c: dd06         	ble	0x7c <bubble_sort+0x4e> @ imm = #0xc
      6e: e7ff         	b	0x70 <bubble_sort+0x42> @ imm = #-0x2
      70: 9803         	ldr	r0, [sp, #0xc]
      72: 9900         	ldr	r1, [sp]
      74: 1c4a         	adds	r2, r1, #0x1
      76: f7ff ffc3    	bl	0x0 <swap>              @ imm = #-0x7a
      7a: e7ff         	b	0x7c <bubble_sort+0x4e> @ imm = #-0x2
      7c: e7ff         	b	0x7e <bubble_sort+0x50> @ imm = #-0x2
      7e: 9800         	ldr	r0, [sp]
      80: 1c40         	adds	r0, r0, #0x1
      82: 9000         	str	r0, [sp]
      84: e7e3         	b	0x4e <bubble_sort+0x20> @ imm = #-0x3a
      86: e7ff         	b	0x88 <bubble_sort+0x5a> @ imm = #-0x2
      88: 9801         	ldr	r0, [sp, #0x4]
      8a: 1c40         	adds	r0, r0, #0x1
      8c: 9001         	str	r0, [sp, #0x4]
      8e: e7d6         	b	0x3e <bubble_sort+0x10> @ imm = #-0x54
      90: b004         	add	sp, #0x10
      92: bd80         	pop	{r7, pc}

00000094 <assert_is_sorted>:
      94: b580         	push	{r7, lr}
      96: af00         	add	r7, sp, #0x0
      98: b084         	sub	sp, #0x10
      9a: 9003         	str	r0, [sp, #0xc]
      9c: 9102         	str	r1, [sp, #0x8]
      9e: 2000         	movs	r0, #0x0
      a0: 9001         	str	r0, [sp, #0x4]
      a2: e7ff         	b	0xa4 <assert_is_sorted+0x10> @ imm = #-0x2
      a4: 9801         	ldr	r0, [sp, #0x4]
      a6: 9902         	ldr	r1, [sp, #0x8]
      a8: 1e49         	subs	r1, r1, #0x1
      aa: 4288         	cmp	r0, r1
      ac: da15         	bge	0xda <assert_is_sorted+0x46> @ imm = #0x2a
      ae: e7ff         	b	0xb0 <assert_is_sorted+0x1c> @ imm = #-0x2
      b0: 9803         	ldr	r0, [sp, #0xc]
      b2: 9901         	ldr	r1, [sp, #0x4]
      b4: 008a         	lsls	r2, r1, #0x2
      b6: 1881         	adds	r1, r0, r2
      b8: 5880         	ldr	r0, [r0, r2]
      ba: 6849         	ldr	r1, [r1, #0x4]
      bc: 4288         	cmp	r0, r1
      be: dd07         	ble	0xd0 <assert_is_sorted+0x3c> @ imm = #0xe
      c0: e7ff         	b	0xc2 <assert_is_sorted+0x2e> @ imm = #-0x2
      c2: 480a         	ldr	r0, [pc, #0x28]         @ 0xec <assert_is_sorted+0x58>
      c4: f000 f814    	bl	0xf0 <svc_puts>         @ imm = #0x28
      c8: 2001         	movs	r0, #0x1
      ca: f000 f816    	bl	0xfa <svc_exit>         @ imm = #0x2c
      ce: e008         	b	0xe2 <assert_is_sorted+0x4e> @ imm = #0x10
      d0: e7ff         	b	0xd2 <assert_is_sorted+0x3e> @ imm = #-0x2
      d2: 9801         	ldr	r0, [sp, #0x4]
      d4: 1c40         	adds	r0, r0, #0x1
      d6: 9001         	str	r0, [sp, #0x4]
      d8: e7e4         	b	0xa4 <assert_is_sorted+0x10> @ imm = #-0x38
      da: 4803         	ldr	r0, [pc, #0xc]          @ 0xe8 <assert_is_sorted+0x54>
      dc: f000 f808    	bl	0xf0 <svc_puts>         @ imm = #0x10
      e0: e7ff         	b	0xe2 <assert_is_sorted+0x4e> @ imm = #-0x2
      e2: b004         	add	sp, #0x10
      e4: bd80         	pop	{r7, pc}
      e6: 46c0         	mov	r8, r8
      e8: 0d 04 00 00  	.word	0x0000040d
      ec: f8 03 00 00  	.word	0x000003f8

000000f0 <svc_puts>:
      f0: b081         	sub	sp, #0x4
      f2: 9000         	str	r0, [sp]
      f4: df01         	svc	#0x1
      f6: b001         	add	sp, #0x4
      f8: 4770         	bx	lr

000000fa <svc_exit>:
      fa: b081         	sub	sp, #0x4
      fc: 9000         	str	r0, [sp]
      fe: df00         	svc	#0x0
     100: b001         	add	sp, #0x4
     102: 4770         	bx	lr

00000104 <itoa>:
     104: b580         	push	{r7, lr}
     106: af00         	add	r7, sp, #0x0
     108: b088         	sub	sp, #0x20
     10a: 9006         	str	r0, [sp, #0x18]
     10c: 9105         	str	r1, [sp, #0x14]
     10e: 9204         	str	r2, [sp, #0x10]
     110: 9804         	ldr	r0, [sp, #0x10]
     112: 2802         	cmp	r0, #0x2
     114: db04         	blt	0x120 <itoa+0x1c>       @ imm = #0x8
     116: e7ff         	b	0x118 <itoa+0x14>       @ imm = #-0x2
     118: 9804         	ldr	r0, [sp, #0x10]
     11a: 2825         	cmp	r0, #0x25
     11c: db06         	blt	0x12c <itoa+0x28>       @ imm = #0xc
     11e: e7ff         	b	0x120 <itoa+0x1c>       @ imm = #-0x2
     120: 9905         	ldr	r1, [sp, #0x14]
     122: 2000         	movs	r0, #0x0
     124: 7008         	strb	r0, [r1]
     126: 9805         	ldr	r0, [sp, #0x14]
     128: 9007         	str	r0, [sp, #0x1c]
     12a: e045         	b	0x1b8 <itoa+0xb4>       @ imm = #0x8a
     12c: 9805         	ldr	r0, [sp, #0x14]
     12e: 9003         	str	r0, [sp, #0xc]
     130: 9805         	ldr	r0, [sp, #0x14]
     132: 9002         	str	r0, [sp, #0x8]
     134: e7ff         	b	0x136 <itoa+0x32>       @ imm = #-0x2
     136: 9806         	ldr	r0, [sp, #0x18]
     138: 9000         	str	r0, [sp]
     13a: 9904         	ldr	r1, [sp, #0x10]
     13c: 9806         	ldr	r0, [sp, #0x18]
     13e: f000 f877    	bl	0x230 <__divsi3>        @ imm = #0xee
     142: 9006         	str	r0, [sp, #0x18]
     144: 9800         	ldr	r0, [sp]
     146: 9a06         	ldr	r2, [sp, #0x18]
     148: 9904         	ldr	r1, [sp, #0x10]
     14a: 4351         	muls	r1, r2, r1
     14c: 1a40         	subs	r0, r0, r1
     14e: 491c         	ldr	r1, [pc, #0x70]         @ 0x1c0 <itoa+0xbc>
     150: 1840         	adds	r0, r0, r1
     152: 2123         	movs	r1, #0x23
     154: 5c40         	ldrb	r0, [r0, r1]
     156: 9903         	ldr	r1, [sp, #0xc]
     158: 1c4a         	adds	r2, r1, #0x1
     15a: 9203         	str	r2, [sp, #0xc]
     15c: 7008         	strb	r0, [r1]
     15e: e7ff         	b	0x160 <itoa+0x5c>       @ imm = #-0x2
     160: 9806         	ldr	r0, [sp, #0x18]
     162: 2800         	cmp	r0, #0x0
     164: d1e7         	bne	0x136 <itoa+0x32>       @ imm = #-0x32
     166: e7ff         	b	0x168 <itoa+0x64>       @ imm = #-0x2
     168: 9800         	ldr	r0, [sp]
     16a: 2800         	cmp	r0, #0x0
     16c: d506         	bpl	0x17c <itoa+0x78>       @ imm = #0xc
     16e: e7ff         	b	0x170 <itoa+0x6c>       @ imm = #-0x2
     170: 9903         	ldr	r1, [sp, #0xc]
     172: 1c48         	adds	r0, r1, #0x1
     174: 9003         	str	r0, [sp, #0xc]
     176: 202d         	movs	r0, #0x2d
     178: 7008         	strb	r0, [r1]
     17a: e7ff         	b	0x17c <itoa+0x78>       @ imm = #-0x2
     17c: 9903         	ldr	r1, [sp, #0xc]
     17e: 1e48         	subs	r0, r1, #0x1
     180: 9003         	str	r0, [sp, #0xc]
     182: 2000         	movs	r0, #0x0
     184: 7008         	strb	r0, [r1]
     186: e7ff         	b	0x188 <itoa+0x84>       @ imm = #-0x2
     188: 9802         	ldr	r0, [sp, #0x8]
     18a: 9903         	ldr	r1, [sp, #0xc]
     18c: 4288         	cmp	r0, r1
     18e: d210         	bhs	0x1b2 <itoa+0xae>       @ imm = #0x20
     190: e7ff         	b	0x192 <itoa+0x8e>       @ imm = #-0x2
     192: 9803         	ldr	r0, [sp, #0xc]
     194: 7800         	ldrb	r0, [r0]
     196: a901         	add	r1, sp, #0x4
     198: 7008         	strb	r0, [r1]
     19a: 9802         	ldr	r0, [sp, #0x8]
     19c: 7800         	ldrb	r0, [r0]
     19e: 9903         	ldr	r1, [sp, #0xc]
     1a0: 1e4a         	subs	r2, r1, #0x1
     1a2: 9203         	str	r2, [sp, #0xc]
     1a4: 7008         	strb	r0, [r1]
     1a6: 9801         	ldr	r0, [sp, #0x4]
     1a8: 9902         	ldr	r1, [sp, #0x8]
     1aa: 1c4a         	adds	r2, r1, #0x1
     1ac: 9202         	str	r2, [sp, #0x8]
     1ae: 7008         	strb	r0, [r1]
     1b0: e7ea         	b	0x188 <itoa+0x84>       @ imm = #-0x2c
     1b2: 9805         	ldr	r0, [sp, #0x14]
     1b4: 9007         	str	r0, [sp, #0x1c]
     1b6: e7ff         	b	0x1b8 <itoa+0xb4>       @ imm = #-0x2
     1b8: 9807         	ldr	r0, [sp, #0x1c]
     1ba: b008         	add	sp, #0x20
     1bc: bd80         	pop	{r7, pc}
     1be: 46c0         	mov	r8, r8
     1c0: 1e 04 00 00  	.word	0x0000041e

000001c4 <main>:
     1c4: b5d0         	push	{r4, r6, r7, lr}
     1c6: af02         	add	r7, sp, #0x8
     1c8: 4e12         	ldr	r6, [pc, #0x48]         @ 0x214 <main+0x50>
     1ca: 44b5         	add	sp, r6
     1cc: 4910         	ldr	r1, [pc, #0x40]         @ 0x210 <main+0x4c>
     1ce: 207d         	movs	r0, #0x7d
     1d0: 9001         	str	r0, [sp, #0x4]
     1d2: 0142         	lsls	r2, r0, #0x5
     1d4: a81e         	add	r0, sp, #0x78
     1d6: 9002         	str	r0, [sp, #0x8]
     1d8: f000 f81e    	bl	0x218 <memcpy>          @ imm = #0x3c
     1dc: 9901         	ldr	r1, [sp, #0x4]
     1de: 9802         	ldr	r0, [sp, #0x8]
     1e0: 00c9         	lsls	r1, r1, #0x3
     1e2: 911d         	str	r1, [sp, #0x74]
     1e4: 991d         	ldr	r1, [sp, #0x74]
     1e6: f7ff ff22    	bl	0x2e <bubble_sort>      @ imm = #-0x1bc
     1ea: 9802         	ldr	r0, [sp, #0x8]
     1ec: 991d         	ldr	r1, [sp, #0x74]
     1ee: f7ff ff51    	bl	0x94 <assert_is_sorted> @ imm = #-0x15e
     1f2: 981e         	ldr	r0, [sp, #0x78]
     1f4: a904         	add	r1, sp, #0x10
     1f6: 220a         	movs	r2, #0xa
     1f8: f7ff ff84    	bl	0x104 <itoa>            @ imm = #-0xf8
     1fc: 2000         	movs	r0, #0x0
     1fe: 9003         	str	r0, [sp, #0xc]
     200: f7ff ff7b    	bl	0xfa <svc_exit>         @ imm = #-0x10a
     204: 9803         	ldr	r0, [sp, #0xc]
     206: 1ffe         	subs	r6, r7, #0x7
     208: 3e01         	subs	r6, #0x1
     20a: 46b5         	mov	sp, r6
     20c: bdd0         	pop	{r4, r6, r7, pc}
     20e: 46c0         	mov	r8, r8
     210: 68 04 00 00  	.word	0x00000468
     214: e8 ef ff ff  	.word	0xffffefe8

00000218 <memcpy>:
     218: b5d0         	push	{r4, r6, r7, lr}
     21a: af02         	add	r7, sp, #0x8
     21c: 2300         	movs	r3, #0x0
     21e: 429a         	cmp	r2, r3
     220: d003         	beq	0x22a <memcpy+0x12>     @ imm = #0x6
     222: 5ccc         	ldrb	r4, [r1, r3]
     224: 54c4         	strb	r4, [r0, r3]
     226: 1c5b         	adds	r3, r3, #0x1
     228: e7f9         	b	0x21e <memcpy+0x6>      @ imm = #-0xe
     22a: bdd0         	pop	{r4, r6, r7, pc}
     22c: d4d4         	bmi	0x1d8 <main+0x14>       @ imm = #-0x58
     22e: d4d4         	bmi	0x1da <main+0x16>       @ imm = #-0x58

00000230 <__divsi3>:
     230: b590         	push	{r4, r7, lr}
     232: af01         	add	r7, sp, #0x4
     234: 0004         	movs	r4, r0
     236: 404c         	eors	r4, r1
     238: 17c2         	asrs	r2, r0, #0x1f
     23a: 17cb         	asrs	r3, r1, #0x1f
     23c: 4050         	eors	r0, r2
     23e: 4059         	eors	r1, r3
     240: 1a80         	subs	r0, r0, r2
     242: 1ac9         	subs	r1, r1, r3
     244: f000 f804    	bl	0x250 <__udivsi3>       @ imm = #0x8
     248: 17e4         	asrs	r4, r4, #0x1f
     24a: 4060         	eors	r0, r4
     24c: 1b00         	subs	r0, r0, r4
     24e: bd90         	pop	{r4, r7, pc}

00000250 <__udivsi3>:
     250: 2901         	cmp	r1, #0x1
     252: d325         	blo	0x2a0 <__udivsi3+0x50>  @ imm = #0x4a
     254: d100         	bne	0x258 <__udivsi3+0x8>   @ imm = #0x0
     256: 4770         	bx	lr
     258: 4288         	cmp	r0, r1
     25a: d201         	bhs	0x260 <__udivsi3+0x10>  @ imm = #0x2
     25c: 2000         	movs	r0, #0x0
     25e: 4770         	bx	lr
     260: 4602         	mov	r2, r0
     262: 4684         	mov	r12, r0
     264: a05f         	adr	r0, #380 <__udivsi3+0x77>
     266: 3001         	adds	r0, #0x1
     268: 0c13         	lsrs	r3, r2, #0x10
     26a: 428b         	cmp	r3, r1
     26c: d301         	blo	0x272 <__udivsi3+0x22>  @ imm = #0x2
     26e: 001a         	movs	r2, r3
     270: 38a0         	subs	r0, #0xa0
     272: 0a13         	lsrs	r3, r2, #0x8
     274: 428b         	cmp	r3, r1
     276: d301         	blo	0x27c <__udivsi3+0x2c>  @ imm = #0x2
     278: 001a         	movs	r2, r3
     27a: 3850         	subs	r0, #0x50
     27c: 0913         	lsrs	r3, r2, #0x4
     27e: 428b         	cmp	r3, r1
     280: d301         	blo	0x286 <__udivsi3+0x36>  @ imm = #0x2
     282: 001a         	movs	r2, r3
     284: 3828         	subs	r0, #0x28
     286: 0893         	lsrs	r3, r2, #0x2
     288: 428b         	cmp	r3, r1
     28a: d301         	blo	0x290 <__udivsi3+0x40>  @ imm = #0x2
     28c: 001a         	movs	r2, r3
     28e: 3814         	subs	r0, #0x14
     290: 0853         	lsrs	r3, r2, #0x1
     292: 428b         	cmp	r3, r1
     294: d300         	blo	0x298 <__udivsi3+0x48>  @ imm = #0x0
     296: 380a         	subs	r0, #0xa
     298: 0002         	movs	r2, r0
     29a: 4660         	mov	r0, r12
     29c: 2300         	movs	r3, #0x0
     29e: 4710         	bx	r2
     2a0: 2000         	movs	r0, #0x0
     2a2: b580         	push	{r7, lr}
     2a4: f000 f8a6    	bl	0x3f4 <__aeabi_idiv0>   @ imm = #0x14c
     2a8: bd80         	pop	{r7, pc}
     2aa: 46c0         	mov	r8, r8
     2ac: bf00         	nop
     2ae: 07ca         	lsls	r2, r1, #0x1f
     2b0: 4290         	cmp	r0, r2
     2b2: d300         	blo	0x2b6 <__udivsi3+0x66>  @ imm = #0x0
     2b4: 1a80         	subs	r0, r0, r2
     2b6: 415b         	adcs	r3, r3
     2b8: 078a         	lsls	r2, r1, #0x1e
     2ba: 4290         	cmp	r0, r2
     2bc: d300         	blo	0x2c0 <__udivsi3+0x70>  @ imm = #0x0
     2be: 1a80         	subs	r0, r0, r2
     2c0: 415b         	adcs	r3, r3
     2c2: 074a         	lsls	r2, r1, #0x1d
     2c4: 4290         	cmp	r0, r2
     2c6: d300         	blo	0x2ca <__udivsi3+0x7a>  @ imm = #0x0
     2c8: 1a80         	subs	r0, r0, r2
     2ca: 415b         	adcs	r3, r3
     2cc: 070a         	lsls	r2, r1, #0x1c
     2ce: 4290         	cmp	r0, r2
     2d0: d300         	blo	0x2d4 <__udivsi3+0x84>  @ imm = #0x0
     2d2: 1a80         	subs	r0, r0, r2
     2d4: 415b         	adcs	r3, r3
     2d6: 06ca         	lsls	r2, r1, #0x1b
     2d8: 4290         	cmp	r0, r2
     2da: d300         	blo	0x2de <__udivsi3+0x8e>  @ imm = #0x0
     2dc: 1a80         	subs	r0, r0, r2
     2de: 415b         	adcs	r3, r3
     2e0: 068a         	lsls	r2, r1, #0x1a
     2e2: 4290         	cmp	r0, r2
     2e4: d300         	blo	0x2e8 <__udivsi3+0x98>  @ imm = #0x0
     2e6: 1a80         	subs	r0, r0, r2
     2e8: 415b         	adcs	r3, r3
     2ea: 064a         	lsls	r2, r1, #0x19
     2ec: 4290         	cmp	r0, r2
     2ee: d300         	blo	0x2f2 <__udivsi3+0xa2>  @ imm = #0x0
     2f0: 1a80         	subs	r0, r0, r2
     2f2: 415b         	adcs	r3, r3
     2f4: 060a         	lsls	r2, r1, #0x18
     2f6: 4290         	cmp	r0, r2
     2f8: d300         	blo	0x2fc <__udivsi3+0xac>  @ imm = #0x0
     2fa: 1a80         	subs	r0, r0, r2
     2fc: 415b         	adcs	r3, r3
     2fe: 05ca         	lsls	r2, r1, #0x17
     300: 4290         	cmp	r0, r2
     302: d300         	blo	0x306 <__udivsi3+0xb6>  @ imm = #0x0
     304: 1a80         	subs	r0, r0, r2
     306: 415b         	adcs	r3, r3
     308: 058a         	lsls	r2, r1, #0x16
     30a: 4290         	cmp	r0, r2
     30c: d300         	blo	0x310 <__udivsi3+0xc0>  @ imm = #0x0
     30e: 1a80         	subs	r0, r0, r2
     310: 415b         	adcs	r3, r3
     312: 054a         	lsls	r2, r1, #0x15
     314: 4290         	cmp	r0, r2
     316: d300         	blo	0x31a <__udivsi3+0xca>  @ imm = #0x0
     318: 1a80         	subs	r0, r0, r2
     31a: 415b         	adcs	r3, r3
     31c: 050a         	lsls	r2, r1, #0x14
     31e: 4290         	cmp	r0, r2
     320: d300         	blo	0x324 <__udivsi3+0xd4>  @ imm = #0x0
     322: 1a80         	subs	r0, r0, r2
     324: 415b         	adcs	r3, r3
     326: 04ca         	lsls	r2, r1, #0x13
     328: 4290         	cmp	r0, r2
     32a: d300         	blo	0x32e <__udivsi3+0xde>  @ imm = #0x0
     32c: 1a80         	subs	r0, r0, r2
     32e: 415b         	adcs	r3, r3
     330: 048a         	lsls	r2, r1, #0x12
     332: 4290         	cmp	r0, r2
     334: d300         	blo	0x338 <__udivsi3+0xe8>  @ imm = #0x0
     336: 1a80         	subs	r0, r0, r2
     338: 415b         	adcs	r3, r3
     33a: 044a         	lsls	r2, r1, #0x11
     33c: 4290         	cmp	r0, r2
     33e: d300         	blo	0x342 <__udivsi3+0xf2>  @ imm = #0x0
     340: 1a80         	subs	r0, r0, r2
     342: 415b         	adcs	r3, r3
     344: 040a         	lsls	r2, r1, #0x10
     346: 4290         	cmp	r0, r2
     348: d300         	blo	0x34c <__udivsi3+0xfc>  @ imm = #0x0
     34a: 1a80         	subs	r0, r0, r2
     34c: 415b         	adcs	r3, r3
     34e: 03ca         	lsls	r2, r1, #0xf
     350: 4290         	cmp	r0, r2
     352: d300         	blo	0x356 <__udivsi3+0x106> @ imm = #0x0
     354: 1a80         	subs	r0, r0, r2
     356: 415b         	adcs	r3, r3
     358: 038a         	lsls	r2, r1, #0xe
     35a: 4290         	cmp	r0, r2
     35c: d300         	blo	0x360 <__udivsi3+0x110> @ imm = #0x0
     35e: 1a80         	subs	r0, r0, r2
     360: 415b         	adcs	r3, r3
     362: 034a         	lsls	r2, r1, #0xd
     364: 4290         	cmp	r0, r2
     366: d300         	blo	0x36a <__udivsi3+0x11a> @ imm = #0x0
     368: 1a80         	subs	r0, r0, r2
     36a: 415b         	adcs	r3, r3
     36c: 030a         	lsls	r2, r1, #0xc
     36e: 4290         	cmp	r0, r2
     370: d300         	blo	0x374 <__udivsi3+0x124> @ imm = #0x0
     372: 1a80         	subs	r0, r0, r2
     374: 415b         	adcs	r3, r3
     376: 02ca         	lsls	r2, r1, #0xb
     378: 4290         	cmp	r0, r2
     37a: d300         	blo	0x37e <__udivsi3+0x12e> @ imm = #0x0
     37c: 1a80         	subs	r0, r0, r2
     37e: 415b         	adcs	r3, r3
     380: 028a         	lsls	r2, r1, #0xa
     382: 4290         	cmp	r0, r2
     384: d300         	blo	0x388 <__udivsi3+0x138> @ imm = #0x0
     386: 1a80         	subs	r0, r0, r2
     388: 415b         	adcs	r3, r3
     38a: 024a         	lsls	r2, r1, #0x9
     38c: 4290         	cmp	r0, r2
     38e: d300         	blo	0x392 <__udivsi3+0x142> @ imm = #0x0
     390: 1a80         	subs	r0, r0, r2
     392: 415b         	adcs	r3, r3
     394: 020a         	lsls	r2, r1, #0x8
     396: 4290         	cmp	r0, r2
     398: d300         	blo	0x39c <__udivsi3+0x14c> @ imm = #0x0
     39a: 1a80         	subs	r0, r0, r2
     39c: 415b         	adcs	r3, r3
     39e: 01ca         	lsls	r2, r1, #0x7
     3a0: 4290         	cmp	r0, r2
     3a2: d300         	blo	0x3a6 <__udivsi3+0x156> @ imm = #0x0
     3a4: 1a80         	subs	r0, r0, r2
     3a6: 415b         	adcs	r3, r3
     3a8: 018a         	lsls	r2, r1, #0x6
     3aa: 4290         	cmp	r0, r2
     3ac: d300         	blo	0x3b0 <__udivsi3+0x160> @ imm = #0x0
     3ae: 1a80         	subs	r0, r0, r2
     3b0: 415b         	adcs	r3, r3
     3b2: 014a         	lsls	r2, r1, #0x5
     3b4: 4290         	cmp	r0, r2
     3b6: d300         	blo	0x3ba <__udivsi3+0x16a> @ imm = #0x0
     3b8: 1a80         	subs	r0, r0, r2
     3ba: 415b         	adcs	r3, r3
     3bc: 010a         	lsls	r2, r1, #0x4
     3be: 4290         	cmp	r0, r2
     3c0: d300         	blo	0x3c4 <__udivsi3+0x174> @ imm = #0x0
     3c2: 1a80         	subs	r0, r0, r2
     3c4: 415b         	adcs	r3, r3
     3c6: 00ca         	lsls	r2, r1, #0x3
     3c8: 4290         	cmp	r0, r2
     3ca: d300         	blo	0x3ce <__udivsi3+0x17e> @ imm = #0x0
     3cc: 1a80         	subs	r0, r0, r2
     3ce: 415b         	adcs	r3, r3
     3d0: 008a         	lsls	r2, r1, #0x2
     3d2: 4290         	cmp	r0, r2
     3d4: d300         	blo	0x3d8 <__udivsi3+0x188> @ imm = #0x0
     3d6: 1a80         	subs	r0, r0, r2
     3d8: 415b         	adcs	r3, r3
     3da: 004a         	lsls	r2, r1, #0x1
     3dc: 4290         	cmp	r0, r2
     3de: d300         	blo	0x3e2 <__udivsi3+0x192> @ imm = #0x0
     3e0: 1a80         	subs	r0, r0, r2
     3e2: 415b         	adcs	r3, r3
     3e4: 000a         	movs	r2, r1
     3e6: 4290         	cmp	r0, r2
     3e8: d300         	blo	0x3ec <__udivsi3+0x19c> @ imm = #0x0
     3ea: 1a80         	subs	r0, r0, r2
     3ec: 415b         	adcs	r3, r3
     3ee: 4618         	mov	r0, r3
     3f0: 4770         	bx	lr
     3f2: d4d4         	bmi	0x39e <__udivsi3+0x14e> @ imm = #-0x58

000003f4 <__aeabi_idiv0>:
     3f4: 4770         	bx	lr

000003f6 <__aeabi_ldiv0>:
     3f6: 4770         	bx	lr

Disassembly of section .rodata:

000003f8 <.rodata>:
     3f8: 7241         	strb	r1, [r0, #0x9]
     3fa: 6172         	str	r2, [r6, #0x14]
     3fc: 2079         	movs	r0, #0x79
     3fe: 7369         	strb	r1, [r5, #0xd]
     400: 6e20         	ldr	r0, [r4, #0x60]
     402: 746f         	strb	r7, [r5, #0x11]
     404: 7320         	strb	r0, [r4, #0xc]
     406: 726f         	strb	r7, [r5, #0x9]
     408: 6574         	str	r4, [r6, #0x54]
     40a: 0a64         	lsrs	r4, r4, #0x9
     40c: 4100         	asrs	r0, r0
     40e: 7272         	strb	r2, [r6, #0x9]
     410: 7961         	ldrb	r1, [r4, #0x5]
     412: 6920         	ldr	r0, [r4, #0x10]
     414: 2073         	movs	r0, #0x73
     416: 6f73         	ldr	r3, [r6, #0x74]
     418: 7472         	strb	r2, [r6, #0x11]
     41a: 6465         	str	r5, [r4, #0x44]
     41c: 000a         	movs	r2, r1
     41e: 797a         	ldrb	r2, [r7, #0x5]
     420: 7778         	strb	r0, [r7, #0x1d]
     422: 7576         	strb	r6, [r6, #0x15]
     424: 7374         	strb	r4, [r6, #0xd]
     426: 7172         	strb	r2, [r6, #0x5]
     428: 6f70         	ldr	r0, [r6, #0x74]
     42a: 6d6e         	ldr	r6, [r5, #0x54]
     42c: 6b6c         	ldr	r4, [r5, #0x34]
     42e: 696a         	ldr	r2, [r5, #0x14]
     430: 6768         	str	r0, [r5, #0x74]
     432: 6566         	str	r6, [r4, #0x54]
     434: 6364         	str	r4, [r4, #0x34]
     436: 6162         	str	r2, [r4, #0x14]
     438: 3839         	subs	r0, #0x39
     43a: 3637         	adds	r6, #0x37
     43c: 3435         	adds	r4, #0x35
     43e: 3233         	adds	r2, #0x33
     440: 3031         	adds	r0, #0x31
     442: 3231         	adds	r2, #0x31
     444: 3433         	adds	r4, #0x33
     446: 3635         	adds	r6, #0x35
     448: 3837         	subs	r0, #0x37
     44a: 6139         	str	r1, [r7, #0x10]
     44c: 6362         	str	r2, [r4, #0x34]
     44e: 6564         	str	r4, [r4, #0x54]
     450: 6766         	str	r6, [r4, #0x74]
     452: 6968         	ldr	r0, [r5, #0x14]
     454: 6b6a         	ldr	r2, [r5, #0x34]
     456: 6d6c         	ldr	r4, [r5, #0x54]
     458: 6f6e         	ldr	r6, [r5, #0x74]
     45a: 7170         	strb	r0, [r6, #0x5]
     45c: 7372         	strb	r2, [r6, #0xd]
     45e: 7574         	strb	r4, [r6, #0x15]
     460: 7776         	strb	r6, [r6, #0x1d]
     462: 7978         	ldrb	r0, [r7, #0x5]
     464: 007a         	lsls	r2, r7, #0x1
     466: 0000         	movs	r0, r0
     468: f9fa ffff    	<unknown>
     46c: fffe ffff    	<unknown>
     470: 182c         	adds	r4, r5, r0
     472: 0000         	movs	r0, r0
     474: f0fa ffff    	bl	0xfb476 <.rodata+0xfb07e> @ imm = #0xfaffe
     478: dd00         	ble	0x47c <.rodata+0x84>    @ imm = #0x0
     47a: ffff ed17    	<unknown>
     47e: ffff 0312    	<unknown>
     482: 0000         	movs	r0, r0
     484: da7c         	bge	0x580 <.rodata+0x188>   @ imm = #0xf8
     486: ffff 143b    	<unknown>
     48a: 0000         	movs	r0, r0
     48c: 074a         	lsls	r2, r1, #0x1d
     48e: 0000         	movs	r0, r0
     490: 01b6         	lsls	r6, r6, #0x6
     492: 0000         	movs	r0, r0
     494: 004d         	lsls	r5, r1, #0x1
     496: 0000         	movs	r0, r0
     498: f991 ffff    	<unknown>
     49c: d9ec         	bls	0x478 <.rodata+0x80>    @ imm = #-0x28
     49e: ffff fb35    	<unknown>
     4a2: ffff f949    	<unknown>
     4a6: ffff fe69    	<unknown>
     4aa: ffff 0f73    	<unknown>
     4ae: 0000         	movs	r0, r0
     4b0: eee4 ffff    	<unknown>
     4b4: 1aa0         	subs	r0, r4, r2
     4b6: 0000         	movs	r0, r0
     4b8: 212b         	movs	r1, #0x2b
     4ba: 0000         	movs	r0, r0
     4bc: 068d         	lsls	r5, r1, #0x1a
     4be: 0000         	movs	r0, r0
     4c0: fc6e ffff    	<unknown>
     4c4: 079e         	lsls	r6, r3, #0x1e
     4c6: 0000         	movs	r0, r0
     4c8: df17         	svc	#0x17
     4ca: ffff 0cda    	<unknown>
     4ce: 0000         	movs	r0, r0
     4d0: 030b         	lsls	r3, r1, #0xc
     4d2: 0000         	movs	r0, r0
     4d4: f8f5 ffff    	<unknown>
     4d8: dd06         	ble	0x4e8 <.rodata+0xf0>    @ imm = #0xc
     4da: ffff f71a    	<unknown>
     4de: ffff f939    	<unknown>
     4e2: ffff f7e3    	<unknown>
     4e6: ffff d910    	<unknown>
     4ea: ffff f810    	<unknown>
     4ee: ffff ebf3    	<unknown>
     4f2: ffff 0224    	<unknown>
     4f6: 0000         	movs	r0, r0
     4f8: 03b4         	lsls	r4, r6, #0xe
     4fa: 0000         	movs	r0, r0
     4fc: 270f         	movs	r7, #0xf
     4fe: 0000         	movs	r0, r0
     500: ef90 ffff    	<unknown>
     504: f17d ffff    	bl	0x17e506 <.rodata+0x17e10e> @ imm = #0x17dffe
     508: 0cc9         	lsrs	r1, r1, #0x13
     50a: 0000         	movs	r0, r0
     50c: df94         	svc	#0x94
     50e: ffff e06b    	<unknown>
     512: ffff e006    	<unknown>
     516: ffff dc21    	<unknown>
     51a: ffff 0770    	<unknown>
     51e: 0000         	movs	r0, r0
     520: 1fa0         	subs	r0, r4, #0x6
     522: 0000         	movs	r0, r0
     524: 21d9         	movs	r1, #0xd9
     526: 0000         	movs	r0, r0
     528: e3cd         	b	0xcc6 <.rodata+0x8ce>   @ imm = #0x79a
     52a: ffff 1b9a    	<unknown>
     52e: 0000         	movs	r0, r0
     530: e93f ffff    	<unknown>
     534: fe94 ffff    	<unknown>
     538: 0891         	lsrs	r1, r2, #0x2
     53a: 0000         	movs	r0, r0
     53c: f2f9 ffff    	bl	0x2fa53e <.rodata+0x2fa146> @ imm = #0x2f9ffe
     540: 04d6         	lsls	r6, r2, #0x13
     542: 0000         	movs	r0, r0
     544: e5a9         	b	0x9a <assert_is_sorted+0x6> @ imm = #-0x4ae
     546: ffff e74b    	<unknown>
     54a: ffff 077a    	<unknown>
     54e: 0000         	movs	r0, r0
     550: f54f ffff    	bl	0xffd50552 <_end+0xffffffffdfd50552> @ imm = #-0x2b0002
     554: 00a6         	lsls	r6, r4, #0x2
     556: 0000         	movs	r0, r0
     558: f45a ffff    	bl	0xffc5b55a <_end+0xffffffffdfc5b55a> @ imm = #-0x3a5002
     55c: 23e2         	movs	r3, #0xe2
     55e: 0000         	movs	r0, r0
     560: 149c         	asrs	r4, r3, #0x12
     562: 0000         	movs	r0, r0
     564: f99e ffff    	<unknown>
     568: f338 ffff    	bl	0x33956a <.rodata+0x339172> @ imm = #0x338ffe
     56c: e03d         	b	0x5ea <.rodata+0x1f2>   @ imm = #0x7a
     56e: ffff fc1f    	<unknown>
     572: ffff 0640    	<unknown>
     576: 0000         	movs	r0, r0
     578: e25e         	b	0xa38 <.rodata+0x640>   @ imm = #0x4bc
     57a: ffff fa03    	<unknown>
     57e: ffff e5c9    	<unknown>
     582: ffff 0e62    	<unknown>
     586: 0000         	movs	r0, r0
     588: ddb6         	ble	0x4f8 <.rodata+0x100>   @ imm = #-0x94
     58a: ffff db64    	<unknown>
     58e: ffff de48    	<unknown>
     592: ffff e41b    	<unknown>
     596: ffff f3b5    	<unknown>
     59a: ffff fae9    	<unknown>
     59e: ffff ef34    	<unknown>
     5a2: ffff 154f    	<unknown>
     5a6: 0000         	movs	r0, r0
     5a8: e522         	b	0xfffffff0 <_end+0xffffffffdffffff0> @ imm = #-0x5bc
     5aa: ffff f2a7    	<unknown>
     5ae: ffff 24fa    	<unknown>
     5b2: 0000         	movs	r0, r0
     5b4: 1deb         	adds	r3, r5, #0x7
     5b6: 0000         	movs	r0, r0
     5b8: 10d8         	asrs	r0, r3, #0x3
     5ba: 0000         	movs	r0, r0
     5bc: ee32 ffff    	<unknown>
     5c0: f36e ffff    	bl	0x36f5c2 <.rodata+0x36f1ca> @ imm = #0x36effe
     5c4: ff55 ffff    	<unknown>
     5c8: 2467         	movs	r4, #0x67
     5ca: 0000         	movs	r0, r0
     5cc: 1671         	asrs	r1, r6, #0x19
     5ce: 0000         	movs	r0, r0
     5d0: 14dc         	asrs	r4, r3, #0x13
     5d2: 0000         	movs	r0, r0
     5d4: df0e         	svc	#0xe
     5d6: ffff 16e2    	<unknown>
     5da: 0000         	movs	r0, r0
     5dc: 026f         	lsls	r7, r5, #0x9
     5de: 0000         	movs	r0, r0
     5e0: 1480         	asrs	r0, r0, #0x12
     5e2: 0000         	movs	r0, r0
     5e4: 15ad         	asrs	r5, r5, #0x16
     5e6: 0000         	movs	r0, r0
     5e8: 06d6         	lsls	r6, r2, #0x1b
     5ea: 0000         	movs	r0, r0
     5ec: dc1e         	bgt	0x62c <.rodata+0x234>   @ imm = #0x3c
     5ee: ffff 0b7d    	<unknown>
     5f2: 0000         	movs	r0, r0
     5f4: f3dd ffff    	bl	0x3de5f6 <.rodata+0x3de1fe> @ imm = #0x3ddffe
     5f8: f34d ffff    	bl	0x34e5fa <.rodata+0x34e202> @ imm = #0x34dffe
     5fc: 0f55         	lsrs	r5, r2, #0x1d
     5fe: 0000         	movs	r0, r0
     600: f726 ffff    	bl	0xfff27602 <_end+0xffffffffdff27602> @ imm = #-0xd9002
     604: efa1 ffff    	<unknown>
     608: 07fa         	lsls	r2, r7, #0x1f
     60a: 0000         	movs	r0, r0
     60c: 1fe6         	subs	r6, r4, #0x7
     60e: 0000         	movs	r0, r0
     610: dee1         	udf	#0xe1
     612: ffff dd76    	<unknown>
     616: ffff 06db    	<unknown>
     61a: 0000         	movs	r0, r0
     61c: 0fa8         	lsrs	r0, r5, #0x1e
     61e: 0000         	movs	r0, r0
     620: f9fb ffff    	<unknown>
     624: 08da         	lsrs	r2, r3, #0x3
     626: 0000         	movs	r0, r0
     628: e159         	b	0x8de <.rodata+0x4e6>   @ imm = #0x2b2
     62a: ffff 031e    	<unknown>
     62e: 0000         	movs	r0, r0
     630: eaaf ffff    	<unknown>
     634: e54c         	b	0xd0 <assert_is_sorted+0x3c> @ imm = #-0x568
     636: ffff 0905    	<unknown>
     63a: 0000         	movs	r0, r0
     63c: e6fa         	b	0x434 <.rodata+0x3c>    @ imm = #-0x20c
     63e: ffff 02a6    	<unknown>
     642: 0000         	movs	r0, r0
     644: 1262         	asrs	r2, r4, #0x9
     646: 0000         	movs	r0, r0
     648: f7f6 ffff    	bl	0xffff764a <_end+0xffffffffdfff764a> @ imm = #-0x9002
     64c: 1d7c         	adds	r4, r7, #0x5
     64e: 0000         	movs	r0, r0
     650: 1719         	asrs	r1, r3, #0x1c
     652: 0000         	movs	r0, r0
     654: 22e5         	movs	r2, #0xe5
     656: 0000         	movs	r0, r0
     658: 2507         	movs	r5, #0x7
     65a: 0000         	movs	r0, r0
     65c: ea4f ffff    	<unknown>
     660: d971         	bls	0x746 <.rodata+0x34e>   @ imm = #0xe2
     662: ffff e526    	<unknown>
     666: ffff fb45    	<unknown>
     66a: ffff 1ea5    	<unknown>
     66e: 0000         	movs	r0, r0
     670: 21bd         	movs	r1, #0xbd
     672: 0000         	movs	r0, r0
     674: 221b         	movs	r2, #0x1b
     676: 0000         	movs	r0, r0
     678: 0f1c         	lsrs	r4, r3, #0x1c
     67a: 0000         	movs	r0, r0
     67c: 263e         	movs	r6, #0x3e
     67e: 0000         	movs	r0, r0
     680: e7d4         	b	0x62c <.rodata+0x234>   @ imm = #-0x58
     682: ffff 0cf2    	<unknown>
     686: 0000         	movs	r0, r0
     688: f0d0 ffff    	bl	0xd168a <.rodata+0xd1292> @ imm = #0xd0ffe
     68c: 0c68         	lsrs	r0, r5, #0x11
     68e: 0000         	movs	r0, r0
     690: e71e         	b	0x4d0 <.rodata+0xd8>    @ imm = #-0x1c4
     692: ffff da57    	<unknown>
     696: ffff dbcc    	<unknown>
     69a: ffff 12a3    	<unknown>
     69e: 0000         	movs	r0, r0
     6a0: 090c         	lsrs	r4, r1, #0x4
     6a2: 0000         	movs	r0, r0
     6a4: 0aec         	lsrs	r4, r5, #0xb
     6a6: 0000         	movs	r0, r0
     6a8: e85c ffff    	<unknown>
     6ac: dd06         	ble	0x6bc <.rodata+0x2c4>   @ imm = #0xc
     6ae: ffff ffcf    	<unknown>
     6b2: ffff e454    	<unknown>
     6b6: ffff f30e    	<unknown>
     6ba: ffff 2398    	<unknown>
     6be: 0000         	movs	r0, r0
     6c0: f356 ffff    	bl	0x3576c2 <.rodata+0x3572ca> @ imm = #0x356ffe
     6c4: 133a         	asrs	r2, r7, #0xc
     6c6: 0000         	movs	r0, r0
     6c8: 16c0         	asrs	r0, r0, #0x1b
     6ca: 0000         	movs	r0, r0
     6cc: ea62 ffff    	<unknown>
     6d0: e533         	b	0x13a <itoa+0x36>       @ imm = #-0x59a
     6d2: ffff eebe    	<unknown>
     6d6: ffff 125d    	<unknown>
     6da: 0000         	movs	r0, r0
     6dc: 01a7         	lsls	r7, r4, #0x6
     6de: 0000         	movs	r0, r0
     6e0: e1e9         	b	0xab6 <.rodata+0x6be>   @ imm = #0x3d2
     6e2: ffff 0092    	<unknown>
     6e6: 0000         	movs	r0, r0
     6e8: f5a3 ffff    	bl	0xffda46ea <_end+0xffffffffdfda46ea> @ imm = #-0x25c002
     6ec: ec13 ffff    	<unknown>
     6f0: d939         	bls	0x766 <.rodata+0x36e>   @ imm = #0x72
     6f2: ffff ff75    	<unknown>
     6f6: ffff 0a56    	<unknown>
     6fa: 0000         	movs	r0, r0
     6fc: 0e06         	lsrs	r6, r0, #0x18
     6fe: 0000         	movs	r0, r0
     700: 1460         	asrs	r0, r4, #0x11
     702: 0000         	movs	r0, r0
     704: 105e         	asrs	r6, r3, #0x1
     706: 0000         	movs	r0, r0
     708: e250         	b	0xbac <.rodata+0x7b4>   @ imm = #0x4a0
     70a: ffff fa3c    	<unknown>
     70e: ffff 12c3    	<unknown>
     712: 0000         	movs	r0, r0
     714: 2298         	movs	r2, #0x98
     716: 0000         	movs	r0, r0
     718: ef1a ffff    	<unknown>
     71c: 0291         	lsls	r1, r2, #0xa
     71e: 0000         	movs	r0, r0
     720: 25f8         	movs	r5, #0xf8
     722: 0000         	movs	r0, r0
     724: 05a2         	lsls	r2, r4, #0x16
     726: 0000         	movs	r0, r0
     728: 1bd7         	subs	r7, r2, r7
     72a: 0000         	movs	r0, r0
     72c: e1ce         	b	0xacc <.rodata+0x6d4>   @ imm = #0x39c
     72e: ffff 12be    	<unknown>
     732: 0000         	movs	r0, r0
     734: 1ffd         	subs	r5, r7, #0x7
     736: 0000         	movs	r0, r0
     738: e830 ffff    	<unknown>
     73c: f9ff ffff    	<unknown>
     740: dd95         	ble	0x66e <.rodata+0x276>   @ imm = #-0xd6
     742: ffff e6e6    	<unknown>
     746: ffff e7d9    	<unknown>
     74a: ffff df68    	<unknown>
     74e: ffff 00fc    	<unknown>
     752: 0000         	movs	r0, r0
     754: 08d3         	lsrs	r3, r2, #0x3
     756: 0000         	movs	r0, r0
     758: 1d4f         	adds	r7, r1, #0x5
     75a: 0000         	movs	r0, r0
     75c: 08a9         	lsrs	r1, r5, #0x2
     75e: 0000         	movs	r0, r0
     760: 0045         	lsls	r5, r0, #0x1
     762: 0000         	movs	r0, r0
     764: 22ca         	movs	r2, #0xca
     766: 0000         	movs	r0, r0
     768: dca8         	bgt	0x6bc <.rodata+0x2c4>   @ imm = #-0xb0
     76a: ffff 259a    	<unknown>
     76e: 0000         	movs	r0, r0
     770: 02c5         	lsls	r5, r0, #0xb
     772: 0000         	movs	r0, r0
     774: 0331         	lsls	r1, r6, #0xc
     776: 0000         	movs	r0, r0
     778: e316         	b	0xda8 <.rodata+0x9b0>   @ imm = #0x62c
     77a: ffff e809    	<unknown>
     77e: ffff e5cc    	<unknown>
     782: ffff de42    	<unknown>
     786: ffff 12af    	<unknown>
     78a: 0000         	movs	r0, r0
     78c: ef11 ffff    	<unknown>
     790: 1566         	asrs	r6, r4, #0x15
     792: 0000         	movs	r0, r0
     794: 02c9         	lsls	r1, r1, #0xb
     796: 0000         	movs	r0, r0
     798: fff4 ffff    	<unknown>
     79c: ff2c ffff    	<unknown>
     7a0: fa90 ffff    	<unknown>
     7a4: 1b94         	subs	r4, r2, r6
     7a6: 0000         	movs	r0, r0
     7a8: 0456         	lsls	r6, r2, #0x11
     7aa: 0000         	movs	r0, r0
     7ac: 23f2         	movs	r3, #0xf2
     7ae: 0000         	movs	r0, r0
     7b0: 09ff         	lsrs	r7, r7, #0x7
     7b2: 0000         	movs	r0, r0
     7b4: f32d ffff    	bl	0x32e7b6 <.rodata+0x32e3be> @ imm = #0x32dffe
     7b8: f837 ffff    	<unknown>
     7bc: 0c8e         	lsrs	r6, r1, #0x12
     7be: 0000         	movs	r0, r0
     7c0: ecb2 ffff    	<unknown>
     7c4: efc5 ffff    	<unknown>
     7c8: 0215         	lsls	r5, r2, #0x8
     7ca: 0000         	movs	r0, r0
     7cc: 0835         	lsrs	r5, r6, #0x20
     7ce: 0000         	movs	r0, r0
     7d0: 01ca         	lsls	r2, r1, #0x7
     7d2: 0000         	movs	r0, r0
     7d4: ecfd ffff    	<unknown>
     7d8: 1765         	asrs	r5, r4, #0x1d
     7da: 0000         	movs	r0, r0
     7dc: 08b6         	lsrs	r6, r6, #0x2
     7de: 0000         	movs	r0, r0
     7e0: e3ea         	b	0xfb8 <.rodata+0xbc0>   @ imm = #0x7d4
     7e2: ffff 2005    	<unknown>
     7e6: 0000         	movs	r0, r0
     7e8: f418 ffff    	bl	0xffc197ea <_end+0xffffffffdfc197ea> @ imm = #-0x3e7002
     7ec: e55a         	b	0x2a4 <__udivsi3+0x54>  @ imm = #-0x54c
     7ee: ffff 17b7    	<unknown>
     7f2: 0000         	movs	r0, r0
     7f4: e9e3 ffff    	<unknown>
     7f8: f9c0 ffff    	<unknown>
     7fc: fde3 ffff    	<unknown>
     800: f43a ffff    	bl	0xffc3b802 <_end+0xffffffffdfc3b802> @ imm = #-0x3c5002
     804: 0393         	lsls	r3, r2, #0xe
     806: 0000         	movs	r0, r0
     808: f679 ffff    	bl	0xffe7a80a <_end+0xffffffffdfe7a80a> @ imm = #-0x186002
     80c: dd5f         	ble	0x8ce <.rodata+0x4d6>   @ imm = #0xbe
     80e: ffff f2a8    	<unknown>
     812: ffff 14f8    	<unknown>
     816: 0000         	movs	r0, r0
     818: 251f         	movs	r5, #0x1f
     81a: 0000         	movs	r0, r0
     81c: 13d6         	asrs	r6, r2, #0xf
     81e: 0000         	movs	r0, r0
     820: eeeb ffff    	<unknown>
     824: ee5d ffff    	<unknown>
     828: 26d3         	movs	r6, #0xd3
     82a: 0000         	movs	r0, r0
     82c: 1f98         	subs	r0, r3, #0x6
     82e: 0000         	movs	r0, r0
     830: f41d ffff    	bl	0xffc1e832 <_end+0xffffffffdfc1e832> @ imm = #-0x3e2002
     834: da38         	bge	0x8a8 <.rodata+0x4b0>   @ imm = #0x70
     836: ffff f345    	<unknown>
     83a: ffff 2580    	<unknown>
     83e: 0000         	movs	r0, r0
     840: e282         	b	0xd48 <.rodata+0x950>   @ imm = #0x504
     842: ffff 23e1    	<unknown>
     846: 0000         	movs	r0, r0
     848: 15bf         	asrs	r7, r7, #0x16
     84a: 0000         	movs	r0, r0
     84c: fc9c ffff    	<unknown>
     850: 264a         	movs	r6, #0x4a
     852: 0000         	movs	r0, r0
     854: db2e         	blt	0x8b4 <.rodata+0x4bc>   @ imm = #0x5c
     856: ffff fa3a    	<unknown>
     85a: ffff dce7    	<unknown>
     85e: ffff 1db4    	<unknown>
     862: 0000         	movs	r0, r0
     864: 0a90         	lsrs	r0, r2, #0xa
     866: 0000         	movs	r0, r0
     868: 091a         	lsrs	r2, r3, #0x4
     86a: 0000         	movs	r0, r0
     86c: e569         	b	0x342 <__udivsi3+0xf2>  @ imm = #-0x52e
     86e: ffff 2491    	<unknown>
     872: 0000         	movs	r0, r0
     874: 0744         	lsls	r4, r0, #0x1d
     876: 0000         	movs	r0, r0
     878: ebe0 ffff    	<unknown>
     87c: fccb ffff    	<unknown>
     880: 0104         	lsls	r4, r0, #0x4
     882: 0000         	movs	r0, r0
     884: 0300         	lsls	r0, r0, #0xc
     886: 0000         	movs	r0, r0
     888: d9d0         	bls	0x82c <.rodata+0x434>   @ imm = #-0x60
     88a: ffff 0b7e    	<unknown>
     88e: 0000         	movs	r0, r0
     890: 2583         	movs	r5, #0x83
     892: 0000         	movs	r0, r0
     894: ecf4 ffff    	<unknown>
     898: f53c ffff    	bl	0xffd3d89a <_end+0xffffffffdfd3d89a> @ imm = #-0x2c3002
     89c: d9e9         	bls	0x872 <.rodata+0x47a>   @ imm = #-0x2e
     89e: ffff 0fb8    	<unknown>
     8a2: 0000         	movs	r0, r0
     8a4: 16ac         	asrs	r4, r5, #0x1a
     8a6: 0000         	movs	r0, r0
     8a8: f9b1 ffff    	<unknown>
     8ac: db85         	blt	0x7ba <.rodata+0x3c2>   @ imm = #-0xf6
     8ae: ffff 1b30    	<unknown>
     8b2: 0000         	movs	r0, r0
     8b4: 23c6         	movs	r3, #0xc6
     8b6: 0000         	movs	r0, r0
     8b8: dd55         	ble	0x966 <.rodata+0x56e>   @ imm = #0xaa
     8ba: ffff 2027    	<unknown>
     8be: 0000         	movs	r0, r0
     8c0: df8f         	svc	#0x8f
     8c2: ffff eeac    	<unknown>
     8c6: ffff 09ea    	<unknown>
     8ca: 0000         	movs	r0, r0
     8cc: 0452         	lsls	r2, r2, #0x11
     8ce: 0000         	movs	r0, r0
     8d0: 1c9b         	adds	r3, r3, #0x2
     8d2: 0000         	movs	r0, r0
     8d4: f17a ffff    	bl	0x17b8d6 <.rodata+0x17b4de> @ imm = #0x17affe
     8d8: db12         	blt	0x900 <.rodata+0x508>   @ imm = #0x24
     8da: ffff 0dad    	<unknown>
     8de: 0000         	movs	r0, r0
     8e0: 0916         	lsrs	r6, r2, #0x4
     8e2: 0000         	movs	r0, r0
     8e4: 2318         	movs	r3, #0x18
     8e6: 0000         	movs	r0, r0
     8e8: 2519         	movs	r5, #0x19
     8ea: 0000         	movs	r0, r0
     8ec: f6d5 ffff    	bl	0xffed68ee <_end+0xffffffffdfed68ee> @ imm = #-0x12a002
     8f0: de92         	udf	#0x92
     8f2: ffff e10c    	<unknown>
     8f6: ffff e8fe    	<unknown>
     8fa: ffff 0901    	<unknown>
     8fe: 0000         	movs	r0, r0
     900: ece3 ffff    	<unknown>
     904: 0207         	lsls	r7, r0, #0x8
     906: 0000         	movs	r0, r0
     908: 225b         	movs	r2, #0x5b
     90a: 0000         	movs	r0, r0
     90c: 1f72         	subs	r2, r6, #0x5
     90e: 0000         	movs	r0, r0
     910: e07b         	b	0xa0a <.rodata+0x612>   @ imm = #0xf6
     912: ffff dcb4    	<unknown>
     916: ffff 0479    	<unknown>
     91a: 0000         	movs	r0, r0
     91c: e51e         	b	0x35c <__udivsi3+0x10c> @ imm = #-0x5c4
     91e: ffff 1a61    	<unknown>
     922: 0000         	movs	r0, r0
     924: 20c4         	movs	r0, #0xc4
     926: 0000         	movs	r0, r0
     928: e363         	b	0xff2 <.rodata+0xbfa>   @ imm = #0x6c6
     92a: ffff 0564    	<unknown>
     92e: 0000         	movs	r0, r0
     930: 0d3b         	lsrs	r3, r7, #0x14
     932: 0000         	movs	r0, r0
     934: 0fb9         	lsrs	r1, r7, #0x1e
     936: 0000         	movs	r0, r0
     938: 13a6         	asrs	r6, r4, #0xe
     93a: 0000         	movs	r0, r0
     93c: 141e         	asrs	r6, r3, #0x10
     93e: 0000         	movs	r0, r0
     940: da6b         	bge	0xa1a <.rodata+0x622>   @ imm = #0xd6
     942: ffff 217f    	<unknown>
     946: 0000         	movs	r0, r0
     948: e934 ffff    	<unknown>
     94c: 0d4d         	lsrs	r5, r1, #0x15
     94e: 0000         	movs	r0, r0
     950: e97e ffff    	<unknown>
     954: 1cd5         	adds	r5, r2, #0x3
     956: 0000         	movs	r0, r0
     958: dbd9         	blt	0x90e <.rodata+0x516>   @ imm = #-0x4e
     95a: ffff 0239    	<unknown>
     95e: 0000         	movs	r0, r0
     960: ecc5 ffff    	<unknown>
     964: dbcb         	blt	0x8fe <.rodata+0x506>   @ imm = #-0x6a
     966: ffff 14c7    	<unknown>
     96a: 0000         	movs	r0, r0
     96c: 012e         	lsls	r6, r5, #0x4
     96e: 0000         	movs	r0, r0
     970: fee0 ffff    	<unknown>
     974: 219c         	movs	r1, #0x9c
     976: 0000         	movs	r0, r0
     978: 10ed         	asrs	r5, r5, #0x3
     97a: 0000         	movs	r0, r0
     97c: fb3f ffff    	<unknown>
     980: e5e2         	b	0x548 <.rodata+0x150>   @ imm = #-0x43c
     982: ffff 1154    	<unknown>
     986: 0000         	movs	r0, r0
     988: e09f         	b	0xaca <.rodata+0x6d2>   @ imm = #0x13e
     98a: ffff f5a5    	<unknown>
     98e: ffff dadf    	<unknown>
     992: ffff 1950    	<unknown>
     996: 0000         	movs	r0, r0
     998: 2209         	movs	r2, #0x9
     99a: 0000         	movs	r0, r0
     99c: fcad ffff    	<unknown>
     9a0: 0a08         	lsrs	r0, r1, #0x8
     9a2: 0000         	movs	r0, r0
     9a4: d98f         	bls	0x8c6 <.rodata+0x4ce>   @ imm = #-0xe2
     9a6: ffff ee95    	<unknown>
     9aa: ffff 0d5c    	<unknown>
     9ae: 0000         	movs	r0, r0
     9b0: f0f6 ffff    	bl	0xf79b2 <.rodata+0xf75ba> @ imm = #0xf6ffe
     9b4: e268         	b	0xe88 <.rodata+0xa90>   @ imm = #0x4d0
     9b6: ffff 0937    	<unknown>
     9ba: 0000         	movs	r0, r0
     9bc: ddc1         	ble	0x942 <.rodata+0x54a>   @ imm = #-0x7e
     9be: ffff e095    	<unknown>
     9c2: ffff 1831    	<unknown>
     9c6: 0000         	movs	r0, r0
     9c8: 00da         	lsls	r2, r3, #0x3
     9ca: 0000         	movs	r0, r0
     9cc: edd8 ffff    	<unknown>
     9d0: f4ff ffff    	bl	0xffd009d2 <_end+0xffffffffdfd009d2> @ imm = #-0x300002
     9d4: f260 ffff    	bl	0x2619d6 <.rodata+0x2615de> @ imm = #0x260ffe
     9d8: 2334         	movs	r3, #0x34
     9da: 0000         	movs	r0, r0
     9dc: 1063         	asrs	r3, r4, #0x1
     9de: 0000         	movs	r0, r0
     9e0: fdf9 ffff    	<unknown>
     9e4: 0e19         	lsrs	r1, r3, #0x18
     9e6: 0000         	movs	r0, r0
     9e8: 02d6         	lsls	r6, r2, #0xb
     9ea: 0000         	movs	r0, r0
     9ec: f9e0 ffff    	<unknown>
     9f0: 25e8         	movs	r5, #0xe8
     9f2: 0000         	movs	r0, r0
     9f4: fb3d ffff    	<unknown>
     9f8: e327         	b	0x104a <.rodata+0xc52>  @ imm = #0x64e
     9fa: ffff 1449    	<unknown>
     9fe: 0000         	movs	r0, r0
     a00: faad ffff    	<unknown>
     a04: edbc ffff    	<unknown>
     a08: f0fb ffff    	bl	0xfca0a <.rodata+0xfc612> @ imm = #0xfbffe
     a0c: dabf         	bge	0x98e <.rodata+0x596>   @ imm = #-0x82
     a0e: ffff e8ad    	<unknown>
     a12: ffff 206f    	<unknown>
     a16: 0000         	movs	r0, r0
     a18: dedf         	udf	#0xdf
     a1a: ffff f1ad    	<unknown>
     a1e: ffff f003    	<unknown>
     a22: ffff 16de    	<unknown>
     a26: 0000         	movs	r0, r0
     a28: f814 ffff    	<unknown>
     a2c: fa9c ffff    	<unknown>
     a30: ed72 ffff    	<unknown>
     a34: 16a2         	asrs	r2, r4, #0x1a
     a36: 0000         	movs	r0, r0
     a38: edef ffff    	<unknown>
     a3c: faba ffff    	<unknown>
     a40: 1794         	asrs	r4, r2, #0x1e
     a42: 0000         	movs	r0, r0
     a44: 0f0c         	lsrs	r4, r1, #0x1c
     a46: 0000         	movs	r0, r0
     a48: f951 ffff    	<unknown>
     a4c: 2352         	movs	r3, #0x52
     a4e: 0000         	movs	r0, r0
     a50: da04         	bge	0xa5c <.rodata+0x664>   @ imm = #0x8
     a52: ffff dc50    	<unknown>
     a56: ffff 02b3    	<unknown>
     a5a: 0000         	movs	r0, r0
     a5c: 2365         	movs	r3, #0x65
     a5e: 0000         	movs	r0, r0
     a60: 1d77         	adds	r7, r6, #0x5
     a62: 0000         	movs	r0, r0
     a64: 0e42         	lsrs	r2, r0, #0x19
     a66: 0000         	movs	r0, r0
     a68: 0da4         	lsrs	r4, r4, #0x16
     a6a: 0000         	movs	r0, r0
     a6c: 120a         	asrs	r2, r1, #0x8
     a6e: 0000         	movs	r0, r0
     a70: d9ac         	bls	0x9cc <.rodata+0x5d4>   @ imm = #-0xa8
     a72: ffff f8fb    	<unknown>
     a76: ffff 0326    	<unknown>
     a7a: 0000         	movs	r0, r0
     a7c: f42c ffff    	bl	0xffc2da7e <_end+0xffffffffdfc2da7e> @ imm = #-0x3d3002
     a80: 002a         	movs	r2, r5
     a82: 0000         	movs	r0, r0
     a84: f16d ffff    	bl	0x16ea86 <.rodata+0x16e68e> @ imm = #0x16dffe
     a88: 0679         	lsls	r1, r7, #0x19
     a8a: 0000         	movs	r0, r0
     a8c: 0088         	lsls	r0, r1, #0x2
     a8e: 0000         	movs	r0, r0
     a90: 0bfa         	lsrs	r2, r7, #0xf
     a92: 0000         	movs	r0, r0
     a94: e22d         	b	0xef2 <.rodata+0xafa>   @ imm = #0x45a
     a96: ffff fc36    	<unknown>
     a9a: ffff 0dc1    	<unknown>
     a9e: 0000         	movs	r0, r0
     aa0: e8f7 ffff    	<unknown>
     aa4: ed54 ffff    	<unknown>
     aa8: 14c8         	asrs	r0, r1, #0x13
     aaa: 0000         	movs	r0, r0
     aac: e72d         	b	0x90a <.rodata+0x512>   @ imm = #-0x1a6
     aae: ffff 1419    	<unknown>
     ab2: 0000         	movs	r0, r0
     ab4: e681         	b	0x7ba <.rodata+0x3c2>   @ imm = #-0x2fe
     ab6: ffff 1658    	<unknown>
     aba: 0000         	movs	r0, r0
     abc: fcc0 ffff    	<unknown>
     ac0: 1186         	asrs	r6, r0, #0x6
     ac2: 0000         	movs	r0, r0
     ac4: 0e76         	lsrs	r6, r6, #0x19
     ac6: 0000         	movs	r0, r0
     ac8: e103         	b	0xcd2 <.rodata+0x8da>   @ imm = #0x206
     aca: ffff 11e0    	<unknown>
     ace: 0000         	movs	r0, r0
     ad0: e8aa ffff    	<unknown>
     ad4: 0325         	lsls	r5, r4, #0xc
     ad6: 0000         	movs	r0, r0
     ad8: 0606         	lsls	r6, r0, #0x18
     ada: 0000         	movs	r0, r0
     adc: 17a8         	asrs	r0, r5, #0x1e
     ade: 0000         	movs	r0, r0
     ae0: f361 ffff    	bl	0x362ae2 <.rodata+0x3626ea> @ imm = #0x361ffe
     ae4: 1f19         	subs	r1, r3, #0x4
     ae6: 0000         	movs	r0, r0
     ae8: db90         	blt	0xa0c <.rodata+0x614>   @ imm = #-0xe0
     aea: ffff 1a10    	<unknown>
     aee: 0000         	movs	r0, r0
     af0: 0b98         	lsrs	r0, r3, #0xe
     af2: 0000         	movs	r0, r0
     af4: 1dfb         	adds	r3, r7, #0x7
     af6: 0000         	movs	r0, r0
     af8: 1783         	asrs	r3, r0, #0x1e
     afa: 0000         	movs	r0, r0
     afc: e405         	b	0x30a <__udivsi3+0xba>  @ imm = #-0x7f6
     afe: ffff e2d5    	<unknown>
     b02: ffff fe98    	<unknown>
     b06: ffff fe95    	<unknown>
     b0a: ffff 24ac    	<unknown>
     b0e: 0000         	movs	r0, r0
     b10: 0e92         	lsrs	r2, r2, #0x1a
     b12: 0000         	movs	r0, r0
     b14: 265e         	movs	r6, #0x5e
     b16: 0000         	movs	r0, r0
     b18: ef34 ffff    	<unknown>
     b1c: 0fc3         	lsrs	r3, r0, #0x1f
     b1e: 0000         	movs	r0, r0
     b20: 19e1         	adds	r1, r4, r7
     b22: 0000         	movs	r0, r0
     b24: e917 ffff    	<unknown>
     b28: 01a7         	lsls	r7, r4, #0x6
     b2a: 0000         	movs	r0, r0
     b2c: f7cd ffff    	bl	0xfffceb2e <_end+0xffffffffdffceb2e> @ imm = #-0x32002
     b30: 15e3         	asrs	r3, r4, #0x17
     b32: 0000         	movs	r0, r0
     b34: e27d         	b	0x1032 <.rodata+0xc3a>  @ imm = #0x4fa
     b36: ffff 00e0    	<unknown>
     b3a: 0000         	movs	r0, r0
     b3c: 2088         	movs	r0, #0x88
     b3e: 0000         	movs	r0, r0
     b40: f62c ffff    	bl	0xffe2db42 <_end+0xffffffffdfe2db42> @ imm = #-0x1d3002
     b44: 12ee         	asrs	r6, r5, #0xb
     b46: 0000         	movs	r0, r0
     b48: de8a         	udf	#0x8a
     b4a: ffff 23e8    	<unknown>
     b4e: 0000         	movs	r0, r0
     b50: ea4b ffff    	<unknown>
     b54: dc48         	bgt	0xbe8 <.rodata+0x7f0>   @ imm = #0x90
     b56: ffff 155e    	<unknown>
     b5a: 0000         	movs	r0, r0
     b5c: de73         	udf	#0x73
     b5e: ffff dc51    	<unknown>
     b62: ffff 095c    	<unknown>
     b66: 0000         	movs	r0, r0
     b68: f815 ffff    	<unknown>
     b6c: 2505         	movs	r5, #0x5
     b6e: 0000         	movs	r0, r0
     b70: d97a         	bls	0xc68 <.rodata+0x870>   @ imm = #0xf4
     b72: ffff ef24    	<unknown>
     b76: ffff dad9    	<unknown>
     b7a: ffff 13eb    	<unknown>
     b7e: 0000         	movs	r0, r0
     b80: 2397         	movs	r3, #0x97
     b82: 0000         	movs	r0, r0
     b84: 0c43         	lsrs	r3, r0, #0x11
     b86: 0000         	movs	r0, r0
     b88: 1f11         	subs	r1, r2, #0x4
     b8a: 0000         	movs	r0, r0
     b8c: 1476         	asrs	r6, r6, #0x11
     b8e: 0000         	movs	r0, r0
     b90: fa71 ffff    	<unknown>
     b94: db7b         	blt	0xc8e <.rodata+0x896>   @ imm = #0xf6
     b96: ffff 0874    	<unknown>
     b9a: 0000         	movs	r0, r0
     b9c: 1def         	adds	r7, r5, #0x7
     b9e: 0000         	movs	r0, r0
     ba0: 00a8         	lsls	r0, r5, #0x2
     ba2: 0000         	movs	r0, r0
     ba4: 1087         	asrs	r7, r0, #0x2
     ba6: 0000         	movs	r0, r0
     ba8: 01f0         	lsls	r0, r6, #0x7
     baa: 0000         	movs	r0, r0
     bac: f88b ffff    	<unknown>
     bb0: e62c         	b	0x80c <.rodata+0x414>   @ imm = #-0x3a8
     bb2: ffff e8b0    	<unknown>
     bb6: ffff 167b    	<unknown>
     bba: 0000         	movs	r0, r0
     bbc: ef43 ffff    	<unknown>
     bc0: e1ca         	b	0xf58 <.rodata+0xb60>   @ imm = #0x394
     bc2: ffff f70d    	<unknown>
     bc6: ffff 0703    	<unknown>
     bca: 0000         	movs	r0, r0
     bcc: ed95 ffff    	<unknown>
     bd0: 182f         	adds	r7, r5, r0
     bd2: 0000         	movs	r0, r0
     bd4: 1da2         	adds	r2, r4, #0x6
     bd6: 0000         	movs	r0, r0
     bd8: 19ca         	adds	r2, r1, r7
     bda: 0000         	movs	r0, r0
     bdc: e0d7         	b	0xd8e <.rodata+0x996>   @ imm = #0x1ae
     bde: ffff 0948    	<unknown>
     be2: 0000         	movs	r0, r0
     be4: e151         	b	0xe8a <.rodata+0xa92>   @ imm = #0x2a2
     be6: ffff 23c9    	<unknown>
     bea: 0000         	movs	r0, r0
     bec: 0ddb         	lsrs	r3, r3, #0x17
     bee: 0000         	movs	r0, r0
     bf0: de5d         	udf	#0x5d
     bf2: ffff f03f    	<unknown>
     bf6: ffff 2496    	<unknown>
     bfa: 0000         	movs	r0, r0
     bfc: 1f51         	subs	r1, r2, #0x5
     bfe: 0000         	movs	r0, r0
     c00: 2697         	movs	r6, #0x97
     c02: 0000         	movs	r0, r0
     c04: 2185         	movs	r1, #0x85
     c06: 0000         	movs	r0, r0
     c08: dc03         	bgt	0xc12 <.rodata+0x81a>   @ imm = #0x6
     c0a: ffff df56    	<unknown>
     c0e: ffff edc2    	<unknown>
     c12: ffff 05e3    	<unknown>
     c16: 0000         	movs	r0, r0
     c18: 1e55         	subs	r5, r2, #0x1
     c1a: 0000         	movs	r0, r0
     c1c: fdc8 ffff    	<unknown>
     c20: 2337         	movs	r3, #0x37
     c22: 0000         	movs	r0, r0
     c24: fd16 ffff    	<unknown>
     c28: 01fa         	lsls	r2, r7, #0x7
     c2a: 0000         	movs	r0, r0
     c2c: 0a20         	lsrs	r0, r4, #0x8
     c2e: 0000         	movs	r0, r0
     c30: 0e05         	lsrs	r5, r0, #0x18
     c32: 0000         	movs	r0, r0
     c34: e3aa         	b	0x138c <.rodata+0xf94>  @ imm = #0x754
     c36: ffff 153e    	<unknown>
     c3a: 0000         	movs	r0, r0
     c3c: daca         	bge	0xbd4 <.rodata+0x7dc>   @ imm = #-0x6c
     c3e: ffff e373    	<unknown>
     c42: ffff 1640    	<unknown>
     c46: 0000         	movs	r0, r0
     c48: dd3d         	ble	0xcc6 <.rodata+0x8ce>   @ imm = #0x7a
     c4a: ffff fa22    	<unknown>
     c4e: ffff 263f    	<unknown>
     c52: 0000         	movs	r0, r0
     c54: e03a         	b	0xccc <.rodata+0x8d4>   @ imm = #0x74
     c56: ffff ffa0    	<unknown>
     c5a: ffff e677    	<unknown>
     c5e: ffff 1418    	<unknown>
     c62: 0000         	movs	r0, r0
     c64: 25c0         	movs	r5, #0xc0
     c66: 0000         	movs	r0, r0
     c68: e3d4         	b	0x1414 <.rodata+0x101c> @ imm = #0x7a8
     c6a: ffff 0a9c    	<unknown>
     c6e: 0000         	movs	r0, r0
     c70: 1e67         	subs	r7, r4, #0x1
     c72: 0000         	movs	r0, r0
     c74: 182c         	adds	r4, r5, r0
     c76: 0000         	movs	r0, r0
     c78: ff96 ffff    	<unknown>
     c7c: 26a4         	movs	r6, #0xa4
     c7e: 0000         	movs	r0, r0
     c80: f09a ffff    	bl	0x9bc82 <.rodata+0x9b88a> @ imm = #0x9affe
     c84: fac7 ffff    	<unknown>
     c88: f8a4 ffff    	<unknown>
     c8c: fd1d ffff    	<unknown>
     c90: f068 ffff    	bl	0x69c92 <.rodata+0x6989a> @ imm = #0x68ffe
     c94: fc0f ffff    	<unknown>
     c98: f220 ffff    	bl	0x221c9a <.rodata+0x2218a2> @ imm = #0x220ffe
     c9c: 17ec         	asrs	r4, r5, #0x1f
     c9e: 0000         	movs	r0, r0
     ca0: e342         	b	0x1328 <.rodata+0xf30>  @ imm = #0x684
     ca2: ffff e8a1    	<unknown>
     ca6: ffff ee47    	<unknown>
     caa: ffff 0586    	<unknown>
     cae: 0000         	movs	r0, r0
     cb0: 2346         	movs	r3, #0x46
     cb2: 0000         	movs	r0, r0
     cb4: 0b6e         	lsrs	r6, r5, #0xd
     cb6: 0000         	movs	r0, r0
     cb8: 24e0         	movs	r4, #0xe0
     cba: 0000         	movs	r0, r0
     cbc: 1028         	asrs	r0, r5, #0x20
     cbe: 0000         	movs	r0, r0
     cc0: 18b2         	adds	r2, r6, r2
     cc2: 0000         	movs	r0, r0
     cc4: 05a4         	lsls	r4, r4, #0x16
     cc6: 0000         	movs	r0, r0
     cc8: 1230         	asrs	r0, r6, #0x8
     cca: 0000         	movs	r0, r0
     ccc: de24         	udf	#0x24
     cce: ffff e9ed    	<unknown>
     cd2: ffff f6be    	<unknown>
     cd6: ffff f2a5    	<unknown>
     cda: ffff 0ea9    	<unknown>
     cde: 0000         	movs	r0, r0
     ce0: ed6b ffff    	<unknown>
     ce4: f65f ffff    	bl	0xffe60ce6 <_end+0xffffffffdfe60ce6> @ imm = #-0x1a0002
     ce8: 022e         	lsls	r6, r5, #0x8
     cea: 0000         	movs	r0, r0
     cec: 1e84         	subs	r4, r0, #0x2
     cee: 0000         	movs	r0, r0
     cf0: de22         	udf	#0x22
     cf2: ffff 06f0    	<unknown>
     cf6: 0000         	movs	r0, r0
     cf8: 21d1         	movs	r1, #0xd1
     cfa: 0000         	movs	r0, r0
     cfc: 0f8e         	lsrs	r6, r1, #0x1e
     cfe: 0000         	movs	r0, r0
     d00: ded0         	udf	#0xd0
     d02: ffff 14a0    	<unknown>
     d06: 0000         	movs	r0, r0
     d08: 15b4         	asrs	r4, r6, #0x16
     d0a: 0000         	movs	r0, r0
     d0c: 1752         	asrs	r2, r2, #0x1d
     d0e: 0000         	movs	r0, r0
     d10: fe4a ffff    	<unknown>
     d14: 105a         	asrs	r2, r3, #0x1
     d16: 0000         	movs	r0, r0
     d18: e9a9 ffff    	<unknown>
     d1c: 1d32         	adds	r2, r6, #0x4
     d1e: 0000         	movs	r0, r0
     d20: e006         	b	0xd30 <.rodata+0x938>   @ imm = #0xc
     d22: ffff f57c    	<unknown>
     d26: ffff 19ea    	<unknown>
     d2a: 0000         	movs	r0, r0
     d2c: 24a4         	movs	r4, #0xa4
     d2e: 0000         	movs	r0, r0
     d30: e33a         	b	0x13a8 <.rodata+0xfb0>  @ imm = #0x674
     d32: ffff 0e94    	<unknown>
     d36: 0000         	movs	r0, r0
     d38: f569 ffff    	bl	0xffd6ad3a <_end+0xffffffffdfd6ad3a> @ imm = #-0x296002
     d3c: e046         	b	0xdcc <.rodata+0x9d4>   @ imm = #0x8c
     d3e: ffff 05ed    	<unknown>
     d42: 0000         	movs	r0, r0
     d44: f3b2 ffff    	bl	0x3b3d46 <.rodata+0x3b394e> @ imm = #0x3b2ffe
     d48: 06a2         	lsls	r2, r4, #0x1a
     d4a: 0000         	movs	r0, r0
     d4c: e682         	b	0xa54 <.rodata+0x65c>   @ imm = #-0x2fc
     d4e: ffff fb56    	<unknown>
     d52: ffff 0df0    	<unknown>
     d56: 0000         	movs	r0, r0
     d58: f666 ffff    	bl	0xffe67d5a <_end+0xffffffffdfe67d5a> @ imm = #-0x199002
     d5c: f98d ffff    	<unknown>
     d60: 022f         	lsls	r7, r5, #0x8
     d62: 0000         	movs	r0, r0
     d64: f6c5 ffff    	bl	0xffec6d66 <_end+0xffffffffdfec6d66> @ imm = #-0x13a002
     d68: ed00 ffff    	<unknown>
     d6c: 10bc         	asrs	r4, r7, #0x2
     d6e: 0000         	movs	r0, r0
     d70: 1933         	adds	r3, r6, r4
     d72: 0000         	movs	r0, r0
     d74: f1cb ffff    	bl	0x1ccd76 <.rodata+0x1cc97e> @ imm = #0x1cbffe
     d78: f115 ffff    	bl	0x116d7a <.rodata+0x116982> @ imm = #0x115ffe
     d7c: f475 ffff    	bl	0xffc76d7e <_end+0xffffffffdfc76d7e> @ imm = #-0x38a002
     d80: 269a         	movs	r6, #0x9a
     d82: 0000         	movs	r0, r0
     d84: 14bd         	asrs	r5, r7, #0x12
     d86: 0000         	movs	r0, r0
     d88: ee5a ffff    	<unknown>
     d8c: fd31 ffff    	<unknown>
     d90: 0953         	lsrs	r3, r2, #0x5
     d92: 0000         	movs	r0, r0
     d94: 1d2b         	adds	r3, r5, #0x4
     d96: 0000         	movs	r0, r0
     d98: 1b07         	subs	r7, r0, r4
     d9a: 0000         	movs	r0, r0
     d9c: f517 ffff    	bl	0xffd18d9e <_end+0xffffffffdfd18d9e> @ imm = #-0x2e8002
     da0: 1ce9         	adds	r1, r5, #0x3
     da2: 0000         	movs	r0, r0
     da4: 2460         	movs	r4, #0x60
     da6: 0000         	movs	r0, r0
     da8: 1193         	asrs	r3, r2, #0x6
     daa: 0000         	movs	r0, r0
     dac: da74         	bge	0xe98 <.rodata+0xaa0>   @ imm = #0xe8
     dae: ffff f8c4    	<unknown>
     db2: ffff f6cc    	<unknown>
     db6: ffff 2472    	<unknown>
     dba: 0000         	movs	r0, r0
     dbc: 0444         	lsls	r4, r0, #0x11
     dbe: 0000         	movs	r0, r0
     dc0: 0357         	lsls	r7, r2, #0xd
     dc2: 0000         	movs	r0, r0
     dc4: e748         	b	0xc58 <.rodata+0x860>   @ imm = #-0x170
     dc6: ffff 14ac    	<unknown>
     dca: 0000         	movs	r0, r0
     dcc: f527 ffff    	bl	0xffd28dce <_end+0xffffffffdfd28dce> @ imm = #-0x2d8002
     dd0: 256b         	movs	r5, #0x6b
     dd2: 0000         	movs	r0, r0
     dd4: 1f14         	subs	r4, r2, #0x4
     dd6: 0000         	movs	r0, r0
     dd8: fcd6 ffff    	<unknown>
     ddc: 1475         	asrs	r5, r6, #0x11
     dde: 0000         	movs	r0, r0
     de0: 0f74         	lsrs	r4, r6, #0x1d
     de2: 0000         	movs	r0, r0
     de4: 1ac0         	subs	r0, r0, r3
     de6: 0000         	movs	r0, r0
     de8: 0e56         	lsrs	r6, r2, #0x19
     dea: 0000         	movs	r0, r0
     dec: ed33 ffff    	<unknown>
     df0: fd98 ffff    	<unknown>
     df4: d964         	bls	0xec0 <.rodata+0xac8>   @ imm = #0xc8
     df6: ffff eefa    	<unknown>
     dfa: ffff da32    	<unknown>
     dfe: ffff 1e05    	<unknown>
     e02: 0000         	movs	r0, r0
     e04: f8aa ffff    	<unknown>
     e08: e298         	b	0x133c <.rodata+0xf44>  @ imm = #0x530
     e0a: ffff 246d    	<unknown>
     e0e: 0000         	movs	r0, r0
     e10: da42         	bge	0xe98 <.rodata+0xaa0>   @ imm = #0x84
     e12: ffff e590    	<unknown>
     e16: ffff 0a01    	<unknown>
     e1a: 0000         	movs	r0, r0
     e1c: da74         	bge	0xf08 <.rodata+0xb10>   @ imm = #0xe8
     e1e: ffff eb67    	<unknown>
     e22: ffff 254b    	<unknown>
     e26: 0000         	movs	r0, r0
     e28: 0708         	lsls	r0, r1, #0x1c
     e2a: 0000         	movs	r0, r0
     e2c: 028c         	lsls	r4, r1, #0xa
     e2e: 0000         	movs	r0, r0
     e30: 25c0         	movs	r5, #0xc0
     e32: 0000         	movs	r0, r0
     e34: f818 ffff    	<unknown>
     e38: 1d3c         	adds	r4, r7, #0x4
     e3a: 0000         	movs	r0, r0
     e3c: 0b72         	lsrs	r2, r6, #0xd
     e3e: 0000         	movs	r0, r0
     e40: 268c         	movs	r6, #0x8c
     e42: 0000         	movs	r0, r0
     e44: 2292         	movs	r2, #0x92
     e46: 0000         	movs	r0, r0
     e48: ee2b ffff    	<unknown>
     e4c: 216f         	movs	r1, #0x6f
     e4e: 0000         	movs	r0, r0
     e50: 208e         	movs	r0, #0x8e
     e52: 0000         	movs	r0, r0
     e54: 17d8         	asrs	r0, r3, #0x1f
     e56: 0000         	movs	r0, r0
     e58: e471         	b	0x73e <.rodata+0x346>   @ imm = #-0x71e
     e5a: ffff 1714    	<unknown>
     e5e: 0000         	movs	r0, r0
     e60: 16d8         	asrs	r0, r3, #0x1b
     e62: 0000         	movs	r0, r0
     e64: ff82 ffff    	<unknown>
     e68: 117b         	asrs	r3, r7, #0x5
     e6a: 0000         	movs	r0, r0
     e6c: 1ff6         	subs	r6, r6, #0x7
     e6e: 0000         	movs	r0, r0
     e70: ddc3         	ble	0xdfa <.rodata+0xa02>   @ imm = #-0x7a
     e72: ffff f09a    	<unknown>
     e76: ffff ef8b    	<unknown>
     e7a: ffff e1db    	<unknown>
     e7e: ffff 21c2    	<unknown>
     e82: 0000         	movs	r0, r0
     e84: ea8c ffff    	<unknown>
     e88: 1976         	adds	r6, r6, r5
     e8a: 0000         	movs	r0, r0
     e8c: ff07 ffff    	<unknown>
     e90: e522         	b	0x8d8 <.rodata+0x4e0>   @ imm = #-0x5bc
     e92: ffff 0102    	<unknown>
     e96: 0000         	movs	r0, r0
     e98: e882 ffff    	<unknown>
     e9c: e02d         	b	0xefa <.rodata+0xb02>   @ imm = #0x5a
     e9e: ffff edff    	<unknown>
     ea2: ffff ebb4    	<unknown>
     ea6: ffff db7b    	<unknown>
     eaa: ffff 10e7    	<unknown>
     eae: 0000         	movs	r0, r0
     eb0: 1324         	asrs	r4, r4, #0xc
     eb2: 0000         	movs	r0, r0
     eb4: 0f18         	lsrs	r0, r3, #0x1c
     eb6: 0000         	movs	r0, r0
     eb8: 08a0         	lsrs	r0, r4, #0x2
     eba: 0000         	movs	r0, r0
     ebc: e74e         	b	0xd5c <.rodata+0x964>   @ imm = #-0x164
     ebe: ffff e396    	<unknown>
     ec2: ffff e6f9    	<unknown>
     ec6: ffff e9cb    	<unknown>
     eca: ffff 2645    	<unknown>
     ece: 0000         	movs	r0, r0
     ed0: 0e16         	lsrs	r6, r2, #0x18
     ed2: 0000         	movs	r0, r0
     ed4: eb76 ffff    	<unknown>
     ed8: f8ee ffff    	<unknown>
     edc: 021e         	lsls	r6, r3, #0x8
     ede: 0000         	movs	r0, r0
     ee0: 0a5f         	lsrs	r7, r3, #0x9
     ee2: 0000         	movs	r0, r0
     ee4: 1433         	asrs	r3, r6, #0x10
     ee6: 0000         	movs	r0, r0
     ee8: 15e9         	asrs	r1, r5, #0x17
     eea: 0000         	movs	r0, r0
     eec: dadf         	bge	0xeae <.rodata+0xab6>   @ imm = #-0x42
     eee: ffff eaf7    	<unknown>
     ef2: ffff 12c7    	<unknown>
     ef6: 0000         	movs	r0, r0
     ef8: e6c3         	b	0xc82 <.rodata+0x88a>   @ imm = #-0x27a
     efa: ffff 0f3b    	<unknown>
     efe: 0000         	movs	r0, r0
     f00: 2402         	movs	r4, #0x2
     f02: 0000         	movs	r0, r0
     f04: 0c53         	lsrs	r3, r2, #0x11
     f06: 0000         	movs	r0, r0
     f08: e763         	b	0xdd2 <.rodata+0x9da>   @ imm = #-0x13a
     f0a: ffff 045a    	<unknown>
     f0e: 0000         	movs	r0, r0
     f10: e2fa         	b	0x1508 <.rodata+0x1110> @ imm = #0x5f4
     f12: ffff 1477    	<unknown>
     f16: 0000         	movs	r0, r0
     f18: fbb6 ffff    	<unknown>
     f1c: 21dd         	movs	r1, #0xdd
     f1e: 0000         	movs	r0, r0
     f20: 0f34         	lsrs	r4, r6, #0x1c
     f22: 0000         	movs	r0, r0
     f24: 229e         	movs	r2, #0x9e
     f26: 0000         	movs	r0, r0
     f28: e61a         	b	0xb60 <.rodata+0x768>   @ imm = #-0x3cc
     f2a: ffff e931    	<unknown>
     f2e: ffff e660    	<unknown>
     f32: ffff 061f    	<unknown>
     f36: 0000         	movs	r0, r0
     f38: 0db3         	lsrs	r3, r6, #0x16
     f3a: 0000         	movs	r0, r0
     f3c: e5bf         	b	0xabe <.rodata+0x6c6>   @ imm = #-0x482
     f3e: ffff e007    	<unknown>
     f42: ffff d9db    	<unknown>
     f46: ffff f4dc    	<unknown>
     f4a: ffff 1405    	<unknown>
     f4e: 0000         	movs	r0, r0
     f50: 00d3         	lsls	r3, r2, #0x3
     f52: 0000         	movs	r0, r0
     f54: ef64 ffff    	<unknown>
     f58: 1a18         	subs	r0, r3, r0
     f5a: 0000         	movs	r0, r0
     f5c: 0a79         	lsrs	r1, r7, #0x9
     f5e: 0000         	movs	r0, r0
     f60: 12a5         	asrs	r5, r4, #0xa
     f62: 0000         	movs	r0, r0
     f64: eb32 ffff    	<unknown>
     f68: 1802         	adds	r2, r0, r0
     f6a: 0000         	movs	r0, r0
     f6c: e1f4         	b	0x1358 <.rodata+0xf60>  @ imm = #0x3e8
     f6e: ffff 0c03    	<unknown>
     f72: 0000         	movs	r0, r0
     f74: f125 ffff    	bl	0x126f76 <.rodata+0x126b7e> @ imm = #0x125ffe
     f78: 0653         	lsls	r3, r2, #0x19
     f7a: 0000         	movs	r0, r0
     f7c: 0208         	lsls	r0, r1, #0x8
     f7e: 0000         	movs	r0, r0
     f80: da51         	bge	0x1026 <.rodata+0xc2e>  @ imm = #0xa2
     f82: ffff df1e    	<unknown>
     f86: ffff f2d2    	<unknown>
     f8a: ffff d8f8    	<unknown>
     f8e: ffff 03fa    	<unknown>
     f92: 0000         	movs	r0, r0
     f94: 0822         	lsrs	r2, r4, #0x20
     f96: 0000         	movs	r0, r0
     f98: fcf2 ffff    	<unknown>
     f9c: fea5 ffff    	<unknown>
     fa0: e47a         	b	0x898 <.rodata+0x4a0>   @ imm = #-0x70c
     fa2: ffff ec6f    	<unknown>
     fa6: ffff 1dd5    	<unknown>
     faa: 0000         	movs	r0, r0
     fac: 1c4a         	adds	r2, r1, #0x1
     fae: 0000         	movs	r0, r0
     fb0: 0dbd         	lsrs	r5, r7, #0x16
     fb2: 0000         	movs	r0, r0
     fb4: da00         	bge	0xfb8 <.rodata+0xbc0>   @ imm = #0x0
     fb6: ffff 0dab    	<unknown>
     fba: 0000         	movs	r0, r0
     fbc: fdb6 ffff    	<unknown>
     fc0: f890 ffff    	<unknown>
     fc4: dec0         	udf	#0xc0
     fc6: ffff ea1d    	<unknown>
     fca: ffff 24ed    	<unknown>
     fce: 0000         	movs	r0, r0
     fd0: 1f4e         	subs	r6, r1, #0x5
     fd2: 0000         	movs	r0, r0
     fd4: 1e0b         	subs	r3, r1, #0x0
     fd6: 0000         	movs	r0, r0
     fd8: e69e         	b	0xd18 <.rodata+0x920>   @ imm = #-0x2c4
     fda: ffff e51b    	<unknown>
     fde: ffff e6eb    	<unknown>
     fe2: ffff de08    	<unknown>
     fe6: ffff dd6a    	<unknown>
     fea: ffff e933    	<unknown>
     fee: ffff 2232    	<unknown>
     ff2: 0000         	movs	r0, r0
     ff4: 0995         	lsrs	r5, r2, #0x6
     ff6: 0000         	movs	r0, r0
     ff8: 10aa         	asrs	r2, r5, #0x2
     ffa: 0000         	movs	r0, r0
     ffc: ee90 ffff    	<unknown>
    1000: 096b         	lsrs	r3, r5, #0x5
    1002: 0000         	movs	r0, r0
    1004: 0131         	lsls	r1, r6, #0x4
    1006: 0000         	movs	r0, r0
    1008: 1d18         	adds	r0, r3, #0x4
    100a: 0000         	movs	r0, r0
    100c: 019f         	lsls	r7, r3, #0x6
    100e: 0000         	movs	r0, r0
    1010: ec1e ffff    	<unknown>
    1014: 247c         	movs	r4, #0x7c
    1016: 0000         	movs	r0, r0
    1018: 097e         	lsrs	r6, r7, #0x5
    101a: 0000         	movs	r0, r0
    101c: 2392         	movs	r3, #0x92
    101e: 0000         	movs	r0, r0
    1020: 13b4         	asrs	r4, r6, #0xe
    1022: 0000         	movs	r0, r0
    1024: 2475         	movs	r4, #0x75
    1026: 0000         	movs	r0, r0
    1028: 14da         	asrs	r2, r3, #0x13
    102a: 0000         	movs	r0, r0
    102c: e942 ffff    	<unknown>
    1030: 255c         	movs	r5, #0x5c
    1032: 0000         	movs	r0, r0
    1034: 0835         	lsrs	r5, r6, #0x20
    1036: 0000         	movs	r0, r0
    1038: 151b         	asrs	r3, r3, #0x14
    103a: 0000         	movs	r0, r0
    103c: 09ec         	lsrs	r4, r5, #0x7
    103e: 0000         	movs	r0, r0
    1040: f512 ffff    	bl	0xffd14042 <_end+0xffffffffdfd14042> @ imm = #-0x2ed002
    1044: 1f9e         	subs	r6, r3, #0x6
    1046: 0000         	movs	r0, r0
    1048: fc26 ffff    	<unknown>
    104c: 0688         	lsls	r0, r1, #0x1a
    104e: 0000         	movs	r0, r0
    1050: fa41 ffff    	<unknown>
    1054: f37c ffff    	bl	0x37e056 <.rodata+0x37dc5e> @ imm = #0x37cffe
    1058: 1a04         	subs	r4, r0, r0
    105a: 0000         	movs	r0, r0
    105c: ea4b ffff    	<unknown>
    1060: fabf ffff    	<unknown>
    1064: e658         	b	0xd18 <.rodata+0x920>   @ imm = #-0x350
    1066: ffff f73c    	<unknown>
    106a: ffff f859    	<unknown>
    106e: ffff dd33    	<unknown>
    1072: ffff 0beb    	<unknown>
    1076: 0000         	movs	r0, r0
    1078: 08b4         	lsrs	r4, r6, #0x2
    107a: 0000         	movs	r0, r0
    107c: fbfc ffff    	<unknown>
    1080: 1d18         	adds	r0, r3, #0x4
    1082: 0000         	movs	r0, r0
    1084: fa4f ffff    	<unknown>
    1088: e097         	b	0x11ba <.rodata+0xdc2>  @ imm = #0x12e
    108a: ffff 183b    	<unknown>
    108e: 0000         	movs	r0, r0
    1090: 1c74         	adds	r4, r6, #0x1
    1092: 0000         	movs	r0, r0
    1094: 04f6         	lsls	r6, r6, #0x13
    1096: 0000         	movs	r0, r0
    1098: ea65 ffff    	<unknown>
    109c: 0115         	lsls	r5, r2, #0x4
    109e: 0000         	movs	r0, r0
    10a0: 01f1         	lsls	r1, r6, #0x7
    10a2: 0000         	movs	r0, r0
    10a4: fe34 ffff    	<unknown>
    10a8: 0276         	lsls	r6, r6, #0x9
    10aa: 0000         	movs	r0, r0
    10ac: de1e         	udf	#0x1e
    10ae: ffff 0781    	<unknown>
    10b2: 0000         	movs	r0, r0
    10b4: f510 ffff    	bl	0xffd120b6 <_end+0xffffffffdfd120b6> @ imm = #-0x2ef002
    10b8: 02bb         	lsls	r3, r7, #0xa
    10ba: 0000         	movs	r0, r0
    10bc: f25c ffff    	bl	0x25e0be <.rodata+0x25dcc6> @ imm = #0x25cffe
    10c0: de7f         	udf	#0x7f
    10c2: ffff 1f4a    	<unknown>
    10c6: 0000         	movs	r0, r0
    10c8: e32e         	b	0x1728 <.rodata+0x1330> @ imm = #0x65c
    10ca: ffff e283    	<unknown>
    10ce: ffff f101    	<unknown>
    10d2: ffff e802    	<unknown>
    10d6: ffff e005    	<unknown>
    10da: ffff e809    	<unknown>
    10de: ffff 1e24    	<unknown>
    10e2: 0000         	movs	r0, r0
    10e4: fd2c ffff    	<unknown>
    10e8: 1030         	asrs	r0, r6, #0x20
    10ea: 0000         	movs	r0, r0
    10ec: f078 ffff    	bl	0x7a0ee <.rodata+0x79cf6> @ imm = #0x78ffe
    10f0: f702 ffff    	bl	0xfff040f2 <_end+0xffffffffdff040f2> @ imm = #-0xfd002
    10f4: 2234         	movs	r2, #0x34
    10f6: 0000         	movs	r0, r0
    10f8: 23e4         	movs	r3, #0xe4
    10fa: 0000         	movs	r0, r0
    10fc: e0d7         	b	0x12ae <.rodata+0xeb6>  @ imm = #0x1ae
    10fe: ffff e386    	<unknown>
    1102: ffff 098d    	<unknown>
    1106: 0000         	movs	r0, r0
    1108: 216b         	movs	r1, #0x6b
    110a: 0000         	movs	r0, r0
    110c: 19aa         	adds	r2, r5, r6
    110e: 0000         	movs	r0, r0
    1110: f292 ffff    	bl	0x294112 <.rodata+0x293d1a> @ imm = #0x292ffe
    1114: 1ad6         	subs	r6, r2, r3
    1116: 0000         	movs	r0, r0
    1118: dcf8         	bgt	0x110c <.rodata+0xd14>  @ imm = #-0x10
    111a: ffff 0458    	<unknown>
    111e: 0000         	movs	r0, r0
    1120: df6b         	svc	#0x6b
    1122: ffff 2047    	<unknown>
    1126: 0000         	movs	r0, r0
    1128: 0800         	lsrs	r0, r0, #0x20
    112a: 0000         	movs	r0, r0
    112c: e6d9         	b	0xee2 <.rodata+0xaea>   @ imm = #-0x24e
    112e: ffff e18b    	<unknown>
    1132: ffff 02b4    	<unknown>
    1136: 0000         	movs	r0, r0
    1138: 0fcc         	lsrs	r4, r1, #0x1f
    113a: 0000         	movs	r0, r0
    113c: 09ff         	lsrs	r7, r7, #0x7
    113e: 0000         	movs	r0, r0
    1140: f229 ffff    	bl	0x22b142 <.rodata+0x22ad4a> @ imm = #0x229ffe
    1144: 0c28         	lsrs	r0, r5, #0x10
    1146: 0000         	movs	r0, r0
    1148: e6aa         	b	0xea0 <.rodata+0xaa8>   @ imm = #-0x2ac
    114a: ffff 1fc2    	<unknown>
    114e: 0000         	movs	r0, r0
    1150: e014         	b	0x117c <.rodata+0xd84>  @ imm = #0x28
    1152: ffff 24b7    	<unknown>
    1156: 0000         	movs	r0, r0
    1158: f6b3 ffff    	bl	0xffeb515a <_end+0xffffffffdfeb515a> @ imm = #-0x14c002
    115c: 1993         	adds	r3, r2, r6
    115e: 0000         	movs	r0, r0
    1160: e505         	b	0xb6e <.rodata+0x776>   @ imm = #-0x5f6
    1162: ffff 25d7    	<unknown>
    1166: 0000         	movs	r0, r0
    1168: d8f8         	bhi	0x115c <.rodata+0xd64>  @ imm = #-0x10
    116a: ffff 092b    	<unknown>
    116e: 0000         	movs	r0, r0
    1170: 1ae4         	subs	r4, r4, r3
    1172: 0000         	movs	r0, r0
    1174: eddf ffff    	<unknown>
    1178: 08f5         	lsrs	r5, r6, #0x3
    117a: 0000         	movs	r0, r0
    117c: 0ea2         	lsrs	r2, r4, #0x1a
    117e: 0000         	movs	r0, r0
    1180: 1e9f         	subs	r7, r3, #0x2
    1182: 0000         	movs	r0, r0
    1184: f4c3 ffff    	bl	0xffcc5186 <_end+0xffffffffdfcc5186> @ imm = #-0x33c002
    1188: 1442         	asrs	r2, r0, #0x11
    118a: 0000         	movs	r0, r0
    118c: 245c         	movs	r4, #0x5c
    118e: 0000         	movs	r0, r0
    1190: dbcb         	blt	0x112a <.rodata+0xd32>  @ imm = #-0x6a
    1192: ffff f43e    	<unknown>
    1196: ffff 0ab6    	<unknown>
    119a: 0000         	movs	r0, r0
    119c: 08a9         	lsrs	r1, r5, #0x2
    119e: 0000         	movs	r0, r0
    11a0: e8b8 ffff    	<unknown>
    11a4: fb43 ffff    	<unknown>
    11a8: ef35 ffff    	<unknown>
    11ac: 25bb         	movs	r5, #0xbb
    11ae: 0000         	movs	r0, r0
    11b0: f227 ffff    	bl	0x2291b2 <.rodata+0x228dba> @ imm = #0x227ffe
    11b4: 1932         	adds	r2, r6, r4
    11b6: 0000         	movs	r0, r0
    11b8: 1c0f         	adds	r7, r1, #0x0
    11ba: 0000         	movs	r0, r0
    11bc: 03f3         	lsls	r3, r6, #0xf
    11be: 0000         	movs	r0, r0
    11c0: 150c         	asrs	r4, r1, #0x14
    11c2: 0000         	movs	r0, r0
    11c4: 0ee3         	lsrs	r3, r4, #0x1b
    11c6: 0000         	movs	r0, r0
    11c8: f5ce ffff    	bl	0xffdd01ca <_end+0xffffffffdfdd01ca> @ imm = #-0x231002
    11cc: ed31 ffff    	<unknown>
    11d0: 0343         	lsls	r3, r0, #0xd
    11d2: 0000         	movs	r0, r0
    11d4: f27a ffff    	bl	0x27c1d6 <.rodata+0x27bdde> @ imm = #0x27affe
    11d8: e929 ffff    	<unknown>
    11dc: 0e5f         	lsrs	r7, r3, #0x19
    11de: 0000         	movs	r0, r0
    11e0: 15a0         	asrs	r0, r4, #0x16
    11e2: 0000         	movs	r0, r0
    11e4: e741         	b	0x106a <.rodata+0xc72>  @ imm = #-0x17e
    11e6: ffff 13df    	<unknown>
    11ea: 0000         	movs	r0, r0
    11ec: e29e         	b	0x172c <.rodata+0x1334> @ imm = #0x53c
    11ee: ffff 0f22    	<unknown>
    11f2: 0000         	movs	r0, r0
    11f4: f939 ffff    	<unknown>
    11f8: 00b3         	lsls	r3, r6, #0x2
    11fa: 0000         	movs	r0, r0
    11fc: df94         	svc	#0x94
    11fe: ffff 0862    	<unknown>
    1202: 0000         	movs	r0, r0
    1204: f206 ffff    	bl	0x208206 <.rodata+0x207e0e> @ imm = #0x206ffe
    1208: e776         	b	0x10f8 <.rodata+0xd00>  @ imm = #-0x114
    120a: ffff 214c    	<unknown>
    120e: 0000         	movs	r0, r0
    1210: 1d29         	adds	r1, r5, #0x4
    1212: 0000         	movs	r0, r0
    1214: ebba ffff    	<unknown>
    1218: 13b7         	asrs	r7, r6, #0xe
    121a: 0000         	movs	r0, r0
    121c: 1873         	adds	r3, r6, r1
    121e: 0000         	movs	r0, r0
    1220: f90a ffff    	<unknown>
    1224: 0418         	lsls	r0, r3, #0x10
    1226: 0000         	movs	r0, r0
    1228: f857 ffff    	<unknown>
    122c: ea43 ffff    	<unknown>
    1230: 242e         	movs	r4, #0x2e
    1232: 0000         	movs	r0, r0
    1234: 1550         	asrs	r0, r2, #0x15
    1236: 0000         	movs	r0, r0
    1238: feb8 ffff    	<unknown>
    123c: 1bd1         	subs	r1, r2, r7
    123e: 0000         	movs	r0, r0
    1240: 1b74         	subs	r4, r6, r5
    1242: 0000         	movs	r0, r0
    1244: 0341         	lsls	r1, r0, #0xd
    1246: 0000         	movs	r0, r0
    1248: 0f3a         	lsrs	r2, r7, #0x1c
    124a: 0000         	movs	r0, r0
    124c: e607         	b	0xe5e <.rodata+0xa66>   @ imm = #-0x3f2
    124e: ffff 062b    	<unknown>
    1252: 0000         	movs	r0, r0
    1254: ec72 ffff    	<unknown>
    1258: eccc ffff    	<unknown>
    125c: d9e4         	bls	0x1228 <.rodata+0xe30>  @ imm = #-0x38
    125e: ffff f8e2    	<unknown>
    1262: ffff e750    	<unknown>
    1266: ffff e14e    	<unknown>
    126a: ffff 2336    	<unknown>
    126e: 0000         	movs	r0, r0
    1270: 0643         	lsls	r3, r0, #0x19
    1272: 0000         	movs	r0, r0
    1274: 2112         	movs	r1, #0x12
    1276: 0000         	movs	r0, r0
    1278: 1064         	asrs	r4, r4, #0x1
    127a: 0000         	movs	r0, r0
    127c: fa8d ffff    	<unknown>
    1280: decd         	udf	#0xcd
    1282: ffff ea00    	<unknown>
    1286: ffff eb4d    	<unknown>
    128a: ffff 0958    	<unknown>
    128e: 0000         	movs	r0, r0
    1290: 0536         	lsls	r6, r6, #0x14
    1292: 0000         	movs	r0, r0
    1294: fe7f ffff    	<unknown>
    1298: 1485         	asrs	r5, r0, #0x12
    129a: 0000         	movs	r0, r0
    129c: 09b8         	lsrs	r0, r7, #0x6
    129e: 0000         	movs	r0, r0
    12a0: ebce ffff    	<unknown>
    12a4: 23be         	movs	r3, #0xbe
    12a6: 0000         	movs	r0, r0
    12a8: ef64 ffff    	<unknown>
    12ac: e907 ffff    	<unknown>
    12b0: 1417         	asrs	r7, r2, #0x10
    12b2: 0000         	movs	r0, r0
    12b4: f6eb ffff    	bl	0xffeed2b6 <_end+0xffffffffdfeed2b6> @ imm = #-0x114002
    12b8: 00c4         	lsls	r4, r0, #0x3
    12ba: 0000         	movs	r0, r0
    12bc: 255a         	movs	r5, #0x5a
    12be: 0000         	movs	r0, r0
    12c0: 1473         	asrs	r3, r6, #0x11
    12c2: 0000         	movs	r0, r0
    12c4: 0c79         	lsrs	r1, r7, #0x11
    12c6: 0000         	movs	r0, r0
    12c8: 0497         	lsls	r7, r2, #0x12
    12ca: 0000         	movs	r0, r0
    12cc: 0dcb         	lsrs	r3, r1, #0x17
    12ce: 0000         	movs	r0, r0
    12d0: 2505         	movs	r5, #0x5
    12d2: 0000         	movs	r0, r0
    12d4: f0e8 ffff    	bl	0xea2d6 <.rodata+0xe9ede> @ imm = #0xe8ffe
    12d8: f825 ffff    	<unknown>
    12dc: f760 ffff    	bl	0xfff622de <_end+0xffffffffdff622de> @ imm = #-0x9f002
    12e0: 1de9         	adds	r1, r5, #0x7
    12e2: 0000         	movs	r0, r0
    12e4: dd5c         	ble	0x13a0 <.rodata+0xfa8>  @ imm = #0xb8
    12e6: ffff 099a    	<unknown>
    12ea: 0000         	movs	r0, r0
    12ec: f202 ffff    	bl	0x2042ee <.rodata+0x203ef6> @ imm = #0x202ffe
    12f0: dbea         	blt	0x12c8 <.rodata+0xed0>  @ imm = #-0x2c
    12f2: ffff 2319    	<unknown>
    12f6: 0000         	movs	r0, r0
    12f8: 1249         	asrs	r1, r1, #0x9
    12fa: 0000         	movs	r0, r0
    12fc: 1542         	asrs	r2, r0, #0x15
    12fe: 0000         	movs	r0, r0
    1300: fa99 ffff    	<unknown>
    1304: e7bd         	b	0x1282 <.rodata+0xe8a>  @ imm = #-0x86
    1306: ffff e8b5    	<unknown>
    130a: ffff f380    	<unknown>
    130e: ffff 1aea    	<unknown>
    1312: 0000         	movs	r0, r0
    1314: fa4d ffff    	<unknown>
    1318: 0f2a         	lsrs	r2, r5, #0x1c
    131a: 0000         	movs	r0, r0
    131c: e4fd         	b	0xd1a <.rodata+0x922>   @ imm = #-0x606
    131e: ffff e0e4    	<unknown>
    1322: ffff e569    	<unknown>
    1326: ffff e05f    	<unknown>
    132a: ffff e15c    	<unknown>
    132e: ffff f36d    	<unknown>
    1332: ffff e43f    	<unknown>
    1336: ffff ef56    	<unknown>
    133a: ffff dd69    	<unknown>
    133e: ffff ec37    	<unknown>
    1342: ffff 03c5    	<unknown>
    1346: 0000         	movs	r0, r0
    1348: faf9 ffff    	<unknown>
    134c: eabc ffff    	<unknown>
    1350: 2486         	movs	r4, #0x86
    1352: 0000         	movs	r0, r0
    1354: 0de6         	lsrs	r6, r4, #0x17
    1356: 0000         	movs	r0, r0
    1358: eca3 ffff    	<unknown>
    135c: f409 ffff    	bl	0xffc0b35e <_end+0xffffffffdfc0b35e> @ imm = #-0x3f6002
    1360: 17e4         	asrs	r4, r4, #0x1f
    1362: 0000         	movs	r0, r0
    1364: dd28         	ble	0x13b8 <.rodata+0xfc0>  @ imm = #0x50
    1366: ffff 1f3b    	<unknown>
    136a: 0000         	movs	r0, r0
    136c: f99c ffff    	<unknown>
    1370: e4c6         	b	0xd00 <.rodata+0x908>   @ imm = #-0x674
    1372: ffff 16d5    	<unknown>
    1376: 0000         	movs	r0, r0
    1378: 093d         	lsrs	r5, r7, #0x4
    137a: 0000         	movs	r0, r0
    137c: 2621         	movs	r6, #0x21
    137e: 0000         	movs	r0, r0
    1380: e588         	b	0xe94 <.rodata+0xa9c>   @ imm = #-0x4f0
    1382: ffff fe34    	<unknown>
    1386: ffff dadb    	<unknown>
    138a: ffff 1a96    	<unknown>
    138e: 0000         	movs	r0, r0
    1390: 160a         	asrs	r2, r1, #0x18
    1392: 0000         	movs	r0, r0
    1394: 2048         	movs	r0, #0x48
    1396: 0000         	movs	r0, r0
    1398: 149f         	asrs	r7, r3, #0x12
    139a: 0000         	movs	r0, r0
    139c: 1e9c         	subs	r4, r3, #0x2
    139e: 0000         	movs	r0, r0
    13a0: 1be8         	subs	r0, r5, r7
    13a2: 0000         	movs	r0, r0
    13a4: 1626         	asrs	r6, r4, #0x18
    13a6: 0000         	movs	r0, r0
    13a8: 0e57         	lsrs	r7, r2, #0x19
    13aa: 0000         	movs	r0, r0
    13ac: eef7 ffff    	<unknown>
    13b0: 2095         	movs	r0, #0x95
    13b2: 0000         	movs	r0, r0
    13b4: e2e6         	b	0x1984 <.rodata+0x158c> @ imm = #0x5cc
    13b6: ffff 2526    	<unknown>
    13ba: 0000         	movs	r0, r0
    13bc: db72         	blt	0x14a4 <.rodata+0x10ac> @ imm = #0xe4
    13be: ffff fa11    	<unknown>
    13c2: ffff 00df    	<unknown>
    13c6: 0000         	movs	r0, r0
    13c8: 14eb         	asrs	r3, r5, #0x13
    13ca: 0000         	movs	r0, r0
    13cc: 1e7a         	subs	r2, r7, #0x1
    13ce: 0000         	movs	r0, r0
    13d0: f98f ffff    	<unknown>
    13d4: 1d4e         	adds	r6, r1, #0x5
    13d6: 0000         	movs	r0, r0
    13d8: f3b3 ffff    	bl	0x3b53da <.rodata+0x3b4fe2> @ imm = #0x3b3ffe
    13dc: 22cc         	movs	r2, #0xcc
    13de: 0000         	movs	r0, r0
    13e0: 1582         	asrs	r2, r0, #0x16
    13e2: 0000         	movs	r0, r0
    13e4: 02ed         	lsls	r5, r5, #0xb
    13e6: 0000         	movs	r0, r0
    13e8: 269f         	movs	r6, #0x9f
    13ea: 0000         	movs	r0, r0
    13ec: 17bb         	asrs	r3, r7, #0x1e
    13ee: 0000         	movs	r0, r0
    13f0: 0473         	lsls	r3, r6, #0x11
    13f2: 0000         	movs	r0, r0
    13f4: 13da         	asrs	r2, r3, #0xf
    13f6: 0000         	movs	r0, r0
    13f8: e018         	b	0x142c <.rodata+0x1034> @ imm = #0x30
    13fa: ffff f329    	<unknown>
    13fe: ffff 047d    	<unknown>
    1402: 0000         	movs	r0, r0
    1404: f58c ffff    	bl	0xffd8e406 <_end+0xffffffffdfd8e406> @ imm = #-0x273002

Disassembly of section .stack:

20000000 <.stack>:
...

Disassembly of section .comment:

00000000 <.comment>:
       0: 6300         	str	r0, [r0, #0x30]
       2: 616c         	str	r4, [r5, #0x14]
       4: 676e         	str	r6, [r5, #0x74]
       6: 7620         	strb	r0, [r4, #0x18]
       8: 7265         	strb	r5, [r4, #0x9]
       a: 6973         	ldr	r3, [r6, #0x14]
       c: 6e6f         	ldr	r7, [r5, #0x64]
       e: 3120         	adds	r1, #0x20
      10: 2e39         	cmp	r6, #0x39
      12: 2e31         	cmp	r6, #0x31
      14: 0035         	movs	r5, r6
      16: 694c         	ldr	r4, [r1, #0x14]
      18: 6b6e         	ldr	r6, [r5, #0x34]
      1a: 7265         	strb	r5, [r4, #0x9]
      1c: 203a         	movs	r0, #0x3a
      1e: 4c4c         	ldr	r4, [pc, #0x130]        @ 0x150 <itoa+0x4c>
      20: 2044         	movs	r0, #0x44
      22: 3931         	subs	r1, #0x31
      24: 312e         	adds	r1, #0x2e
      26: 352e         	adds	r5, #0x2e
      28: 00           	<unknown>

Disassembly of section .debug_info:

00000000 <.debug_info>:
       0: 0093         	lsls	r3, r2, #0x2
       2: 0000         	movs	r0, r0
       4: 0005         	movs	r5, r0
       6: 0401         	lsls	r1, r0, #0x10
       8: 0000         	movs	r0, r0
       a: 0000         	movs	r0, r0
       c: 0001         	movs	r1, r0
       e: 001d         	movs	r5, r3
      10: 0801         	lsrs	r1, r0, #0x20
      12: 0000         	movs	r0, r0
      14: 0000         	movs	r0, r0
      16: 0000         	movs	r0, r0
      18: 0200         	lsls	r0, r0, #0x8
      1a: 1400         	asrs	r0, r0, #0x10
      1c: 0000         	movs	r0, r0
      1e: 0800         	lsrs	r0, r0, #0x20
      20: 0000         	movs	r0, r0
      22: 0c00         	lsrs	r0, r0, #0x10
      24: 0000         	movs	r0, r0
      26: 0200         	lsls	r0, r0, #0x8
      28: 002c         	movs	r4, r5
      2a: 0000         	movs	r0, r0
      2c: 0303         	lsls	r3, r0, #0xc
      2e: 0108         	lsls	r0, r1, #0x4
      30: 0004         	movs	r4, r0
      32: 0014         	movs	r4, r2
      34: 0000         	movs	r0, r0
      36: 5701         	ldrsb	r1, [r0, r4]
      38: 0104         	lsls	r4, r0, #0x4
      3a: 7944         	ldrb	r4, [r0, #0x5]
      3c: 0000         	movs	r0, r0
      3e: 0500         	lsls	r0, r0, #0x14
      40: 5001         	str	r1, [r0, r0]
      42: 0105         	lsls	r5, r0, #0x4
      44: 7a44         	ldrb	r4, [r0, #0x9]
      46: 0000         	movs	r0, r0
      48: 0500         	lsls	r0, r0, #0x14
      4a: 5101         	str	r1, [r0, r4]
      4c: 0106         	lsls	r6, r0, #0x4
      4e: 7f45         	ldrb	r5, [r0, #0x1d]
      50: 0000         	movs	r0, r0
      52: 0600         	lsls	r0, r0, #0x18
      54: 0700         	lsls	r0, r0, #0x1c
      56: 4601         	mov	r1, r0
      58: 008a         	lsls	r2, r1, #0x2
      5a: 0000         	movs	r0, r0
      5c: 0107         	lsls	r7, r0, #0x4
      5e: 010a         	lsls	r2, r1, #0x4
      60: 2749         	movs	r7, #0x49
      62: 0000         	movs	r0, r0
      64: 0700         	lsls	r0, r0, #0x1c
      66: 0b02         	lsrs	r2, r0, #0xc
      68: 4a01         	ldr	r2, [pc, #0x4]          @ 0x70 <bubble_sort+0x42>
      6a: 0027         	movs	r7, r4
      6c: 0000         	movs	r0, r0
      6e: 0108         	lsls	r0, r1, #0x4
      70: 0c50         	lsrs	r0, r2, #0x11
      72: 4c01         	ldr	r4, [pc, #0x4]          @ 0x78 <bubble_sort+0x4a>
      74: 0079         	lsls	r1, r7, #0x1
      76: 0000         	movs	r0, r0
      78: 0900         	lsrs	r0, r0, #0x4
      7a: 790a         	ldrb	r2, [r1, #0x4]
      7c: 0000         	movs	r0, r0
      7e: 0a00         	lsrs	r0, r0, #0x8
      80: 0084         	lsls	r4, r0, #0x2
      82: 0000         	movs	r0, r0
      84: 8902         	ldrh	r2, [r0, #0x8]
      86: 0000         	movs	r0, r0
      88: 0b00         	lsrs	r0, r0, #0xc
      8a: 920c         	str	r2, [sp, #0x30]
      8c: 0000         	movs	r0, r0
      8e: 0900         	lsrs	r0, r0, #0x4
      90: 1202         	asrs	r2, r0, #0x8
      92: 0803         	lsrs	r3, r0, #0x20
      94: 0407         	lsls	r7, r0, #0x10
      96: 00           	<unknown>

Disassembly of section .debug_abbrev:

00000000 <.debug_abbrev>:
       0: 1101         	asrs	r1, r0, #0x4
       2: 2501         	movs	r5, #0x1
       4: 1325         	asrs	r5, r4, #0xc
       6: 0305         	lsls	r5, r0, #0xc
       8: 7225         	strb	r5, [r4, #0x8]
       a: 1017         	asrs	r7, r2, #0x20
       c: 1b17         	subs	r7, r2, r4
       e: 1125         	asrs	r5, r4, #0x4
      10: 121b         	asrs	r3, r3, #0x8
      12: 7306         	strb	r6, [r0, #0xc]
      14: 8c17         	ldrh	r7, [r2, #0x20]
      16: 1701         	asrs	r1, r0, #0x1c
      18: 0000         	movs	r0, r0
      1a: 0f02         	lsrs	r2, r0, #0x1c
      1c: 4900         	ldr	r1, [pc, #0x0]          @ 0x20 <swap+0x20>
      1e: 0013         	movs	r3, r2
      20: 0300         	lsls	r0, r0, #0xc
      22: 0024         	movs	r4, r4
      24: 2503         	movs	r5, #0x3
      26: 0b3e         	lsrs	r6, r7, #0xc
      28: 0b0b         	lsrs	r3, r1, #0xc
      2a: 0000         	movs	r0, r0
      2c: 2e04         	cmp	r6, #0x4
      2e: 1101         	asrs	r1, r0, #0x4
      30: 121b         	asrs	r3, r3, #0x8
      32: 4006         	ands	r6, r0
      34: 7a18         	ldrb	r0, [r3, #0x8]
      36: 0319         	lsls	r1, r3, #0xc
      38: 3a25         	subs	r2, #0x25
      3a: 3b0b         	subs	r3, #0xb
      3c: 270b         	movs	r7, #0xb
      3e: 4919         	ldr	r1, [pc, #0x64]         @ 0xa4 <assert_is_sorted+0x10>
      40: 3f13         	subs	r7, #0x13
      42: 0019         	movs	r1, r3
      44: 0500         	lsls	r0, r0, #0x14
      46: 0005         	movs	r5, r0
      48: 1802         	adds	r2, r0, r0
      4a: 2503         	movs	r5, #0x3
      4c: 0b3a         	lsrs	r2, r7, #0xc
      4e: 0b3b         	lsrs	r3, r7, #0xc
      50: 1349         	asrs	r1, r1, #0xd
      52: 0000         	movs	r0, r0
      54: 0506         	lsls	r6, r0, #0x14
      56: 0200         	lsls	r0, r0, #0x8
      58: 0322         	lsls	r2, r4, #0xc
      5a: 3a25         	subs	r2, #0x25
      5c: 3b0b         	subs	r3, #0xb
      5e: 490b         	ldr	r1, [pc, #0x2c]         @ 0x8c <bubble_sort+0x5e>
      60: 0013         	movs	r3, r2
      62: 0700         	lsls	r0, r0, #0x1c
      64: 0034         	movs	r4, r6
      66: 2202         	movs	r2, #0x2
      68: 2503         	movs	r5, #0x3
      6a: 0b3a         	lsrs	r2, r7, #0xc
      6c: 0b3b         	lsrs	r3, r7, #0xc
      6e: 1349         	asrs	r1, r1, #0xd
      70: 0000         	movs	r0, r0
      72: 3408         	adds	r4, #0x8
      74: 0200         	lsls	r0, r0, #0x8
      76: 0318         	lsls	r0, r3, #0xc
      78: 3a25         	subs	r2, #0x25
      7a: 3b0b         	subs	r3, #0xb
      7c: 490b         	ldr	r1, [pc, #0x2c]         @ 0xac <assert_is_sorted+0x18>
      7e: 0013         	movs	r3, r2
      80: 0900         	lsrs	r0, r0, #0x4
      82: 000f         	movs	r7, r1
      84: 0000         	movs	r0, r0
      86: 370a         	adds	r7, #0xa
      88: 4900         	ldr	r1, [pc, #0x0]          @ 0x8c <bubble_sort+0x5e>
      8a: 0013         	movs	r3, r2
      8c: 0b00         	lsrs	r0, r0, #0xc
      8e: 0026         	movs	r6, r4
      90: 0000         	movs	r0, r0
      92: 160c         	asrs	r4, r1, #0x18
      94: 4900         	ldr	r1, [pc, #0x0]          @ 0x98 <assert_is_sorted+0x4>
      96: 0313         	lsls	r3, r2, #0xc
      98: 3a25         	subs	r2, #0x25
      9a: 3b0b         	subs	r3, #0xb
      9c: 000b         	movs	r3, r1
      9e: 0000         	movs	r0, r0

Disassembly of section .debug_line:

00000000 <.debug_line>:
       0: 0092         	lsls	r2, r2, #0x2
       2: 0000         	movs	r0, r0
       4: 0005         	movs	r5, r0
       6: 0004         	movs	r4, r0
       8: 0069         	lsls	r1, r5, #0x1
       a: 0000         	movs	r0, r0
       c: 0101         	lsls	r1, r0, #0x4
       e: fb01 0d0e    	<unknown>
      12: 0100         	lsls	r0, r0, #0x4
      14: 0101         	lsls	r1, r0, #0x4
      16: 0001         	movs	r1, r0
      18: 0000         	movs	r0, r0
      1a: 0001         	movs	r1, r0
      1c: 0100         	lsls	r0, r0, #0x4
      1e: 0101         	lsls	r1, r0, #0x4
      20: 031f         	lsls	r7, r3, #0xc
      22: 00fc         	lsls	r4, r7, #0x3
      24: 0000         	movs	r0, r0
      26: 00bb         	lsls	r3, r7, #0x2
      28: 0000         	movs	r0, r0
      2a: 0072         	lsls	r2, r6, #0x1
      2c: 0000         	movs	r0, r0
      2e: 0103         	lsls	r3, r0, #0x4
      30: 021f         	lsls	r7, r3, #0x8
      32: 050f         	lsls	r7, r1, #0x14
      34: 031e         	lsls	r6, r3, #0xc
      36: 0000         	movs	r0, r0
      38: 0000         	movs	r0, r0
      3a: e800 6ed5    	<unknown>
      3e: 7fec         	ldrb	r4, [r5, #0x1f]
      40: 7979         	ldrb	r1, [r7, #0x5]
      42: 3087         	adds	r0, #0x87
      44: b9c4         	<unknown>
      46: 0156         	lsls	r6, r2, #0x5
      48: dba5         	blt	0xffffff96 <.stack+0xffffffffdfffff96> @ imm = #-0xb6
      4a: 6917         	ldr	r7, [r2, #0x10]
      4c: 0000         	movs	r0, r0
      4e: 0100         	lsls	r0, r0, #0x4
      50: 9d58         	ldr	r5, [sp, #0x160]
      52: 4ea4         	ldr	r6, [pc, #0x290]        @ 0x2e4 <__udivsi3+0x94>
      54: a3fa         	adr	r3, #1000 <itoa+0x4e>
      56: 5205         	strh	r5, [r0, r0]
      58: ac4c         	add	r4, sp, #0x130
      5a: b390         	<unknown>
      5c: 94c8         	str	r4, [sp, #0x320]
      5e: 3c72         	subs	r4, #0x72
      60: 003d         	movs	r5, r7
      62: 0000         	movs	r0, r0
      64: 2c02         	cmp	r4, #0x2
      66: e844 a221    	<unknown>
      6a: 95b1         	str	r5, [sp, #0x2c4]
      6c: de1c         	udf	#0x1c
      6e: b02e         	add	sp, #0xb8
      70: 2efb         	cmp	r6, #0xfb
      72: 6865         	ldr	r5, [r4, #0x4]
      74: 0067         	lsls	r7, r4, #0x1
      76: 0205         	lsls	r5, r0, #0x8
      78: 0218         	lsls	r0, r3, #0x8
      7a: 0000         	movs	r0, r0
      7c: c603         	stm	r6!, {r0, r1}
      7e: 0100         	lsls	r0, r0, #0x4
      80: 0305         	lsls	r5, r0, #0xc
      82: 6d0a         	ldr	r2, [r1, #0x50]
      84: 1005         	asrs	r5, r0, #0x20
      86: 054c         	lsls	r4, r1, #0x15
      88: 060e         	lsls	r6, r1, #0x18
      8a: 052e         	lsls	r6, r5, #0x14
      8c: 0603         	lsls	r3, r0, #0x18
      8e: 0b2c         	lsrs	r4, r5, #0xc
      90: 024f         	lsls	r7, r1, #0x9
      92: 0002         	movs	r2, r0
      94: 0101         	lsls	r1, r0, #0x4

Disassembly of section .debug_frame:

00000000 <.debug_frame>:
       0: 0010         	movs	r0, r2
       2: 0000         	movs	r0, r0
       4: ffff ffff    	<unknown>
       8: 0004         	movs	r4, r0
       a: 0004         	movs	r4, r0
       c: 7c01         	ldrb	r1, [r0, #0x10]
       e: 0c0e         	lsrs	r6, r1, #0x10
      10: 000d         	movs	r5, r1
      12: 0000         	movs	r0, r0
      14: 001c         	movs	r4, r3
      16: 0000         	movs	r0, r0
      18: 0000         	movs	r0, r0
      1a: 0000         	movs	r0, r0
      1c: 0218         	lsls	r0, r3, #0x8
      1e: 0000         	movs	r0, r0
      20: 0014         	movs	r4, r2
      22: 0000         	movs	r0, r0
      24: 0e42         	lsrs	r2, r0, #0x19
      26: 8e10         	ldrh	r0, [r2, #0x30]
      28: 8701         	strh	r1, [r0, #0x38]
      2a: 8602         	strh	r2, [r0, #0x30]
      2c: 8403         	strh	r3, [r0, #0x20]
      2e: 4204         	tst	r4, r0
      30: 070c         	lsls	r4, r1, #0x1c
      32: 0008         	movs	r0, r1

Disassembly of section .debug_str:

00000000 <.debug_str>:
       0: 2e2e         	cmp	r6, #0x2e
       2: 2e2f         	cmp	r6, #0x2f
       4: 2f2e         	cmp	r7, #0x2e
       6: 2e2e         	cmp	r6, #0x2e
       8: 2e2f         	cmp	r6, #0x2f
       a: 2f2e         	cmp	r7, #0x2e
       c: 2e2e         	cmp	r6, #0x2e
       e: 732f         	strb	r7, [r5, #0xc]
      10: 6372         	str	r2, [r6, #0x34]
      12: 702f         	strb	r7, [r5]
      14: 6369         	str	r1, [r5, #0x34]
      16: 6c6f         	ldr	r7, [r5, #0x44]
      18: 6269         	str	r1, [r5, #0x24]
      1a: 2f63         	cmp	r7, #0x63
      1c: 656e         	str	r6, [r5, #0x54]
      1e: 6c77         	ldr	r7, [r6, #0x44]
      20: 6269         	str	r1, [r5, #0x24]
      22: 6c2f         	ldr	r7, [r5, #0x40]
      24: 6269         	str	r1, [r5, #0x24]
      26: 2f63         	cmp	r7, #0x63
      28: 616d         	str	r5, [r5, #0x14]
      2a: 6863         	ldr	r3, [r4, #0x4]
      2c: 6e69         	ldr	r1, [r5, #0x64]
      2e: 2f65         	cmp	r7, #0x65
      30: 7261         	strb	r1, [r4, #0x9]
      32: 2f6d         	cmp	r7, #0x6d
      34: 656d         	str	r5, [r5, #0x54]
      36: 636d         	str	r5, [r5, #0x34]
      38: 7970         	ldrb	r0, [r6, #0x5]
      3a: 632e         	str	r6, [r5, #0x30]
      3c: 6400         	str	r0, [r0, #0x40]
      3e: 7473         	strb	r3, [r6, #0x11]
      40: 6c00         	ldr	r0, [r0, #0x40]
      42: 6e65         	ldr	r5, [r4, #0x64]
      44: 0030         	movs	r0, r6
      46: 6973         	ldr	r3, [r6, #0x14]
      48: 657a         	str	r2, [r7, #0x54]
      4a: 745f         	strb	r7, [r3, #0x11]
      4c: 6300         	str	r0, [r0, #0x30]
      4e: 616c         	str	r4, [r5, #0x14]
      50: 676e         	str	r6, [r5, #0x74]
      52: 7620         	strb	r0, [r4, #0x18]
      54: 7265         	strb	r5, [r4, #0x9]
      56: 6973         	ldr	r3, [r6, #0x14]
      58: 6e6f         	ldr	r7, [r5, #0x64]
      5a: 3120         	adds	r1, #0x20
      5c: 2e39         	cmp	r6, #0x39
      5e: 2e31         	cmp	r6, #0x31
      60: 0035         	movs	r5, r6
      62: 656d         	str	r5, [r5, #0x54]
      64: 636d         	str	r5, [r5, #0x34]
      66: 7970         	ldrb	r0, [r6, #0x5]
      68: 7300         	strb	r0, [r0, #0xc]
      6a: 6372         	str	r2, [r6, #0x34]
      6c: 0030         	movs	r0, r6
      6e: 7273         	strb	r3, [r6, #0x9]
      70: 0063         	lsls	r3, r4, #0x1
      72: 6863         	ldr	r3, [r4, #0x4]
      74: 7261         	strb	r1, [r4, #0x9]
      76: 6400         	str	r0, [r0, #0x40]
      78: 7473         	strb	r3, [r6, #0x11]
      7a: 0030         	movs	r0, r6
      7c: 6e75         	ldr	r5, [r6, #0x64]
      7e: 6973         	ldr	r3, [r6, #0x14]
      80: 6e67         	ldr	r7, [r4, #0x64]
      82: 6465         	str	r5, [r4, #0x44]
      84: 6920         	ldr	r0, [r4, #0x10]
      86: 746e         	strb	r6, [r5, #0x11]
      88: 7300         	strb	r0, [r0, #0xc]
      8a: 7661         	strb	r1, [r4, #0x19]
      8c: 0065         	lsls	r5, r4, #0x1
      8e: 682f         	ldr	r7, [r5]
      90: 6d6f         	ldr	r7, [r5, #0x54]
      92: 2f65         	cmp	r7, #0x65
      94: 656a         	str	r2, [r5, #0x54]
      96: 6b6e         	ldr	r6, [r5, #0x34]
      98: 6e69         	ldr	r1, [r5, #0x64]
      9a: 2f73         	cmp	r7, #0x73
      9c: 6761         	str	r1, [r4, #0x74]
      9e: 6e65         	ldr	r5, [r4, #0x64]
      a0: 2f74         	cmp	r7, #0x74
      a2: 6f77         	ldr	r7, [r6, #0x74]
      a4: 6b72         	ldr	r2, [r6, #0x34]
      a6: 7073         	strb	r3, [r6, #0x1]
      a8: 6361         	str	r1, [r4, #0x34]
      aa: 2f65         	cmp	r7, #0x65
      ac: 6c6c         	ldr	r4, [r5, #0x44]
      ae: 6d76         	ldr	r6, [r6, #0x54]
      b0: 652d         	str	r5, [r5, #0x50]
      b2: 626d         	str	r5, [r5, #0x24]
      b4: 6465         	str	r5, [r4, #0x44]
      b6: 6564         	str	r4, [r4, #0x54]
      b8: 2f64         	cmp	r7, #0x64
      ba: 6c6c         	ldr	r4, [r5, #0x44]
      bc: 6d76         	ldr	r6, [r6, #0x54]
      be: 312d         	adds	r1, #0x2d
      c0: 2f39         	cmp	r7, #0x39
      c2: 7562         	strb	r2, [r4, #0x15]
      c4: 6c69         	ldr	r1, [r5, #0x44]
      c6: 2d64         	cmp	r5, #0x64
      c8: 6e61         	ldr	r1, [r4, #0x64]
      ca: 2d64         	cmp	r5, #0x64
      cc: 6574         	str	r4, [r6, #0x54]
      ce: 7473         	strb	r3, [r6, #0x11]
      d0: 622f         	str	r7, [r5, #0x20]
      d2: 6975         	ldr	r5, [r6, #0x14]
      d4: 646c         	str	r4, [r5, #0x44]
      d6: 702f         	strb	r7, [r5]
      d8: 6369         	str	r1, [r5, #0x34]
      da: 6c6f         	ldr	r7, [r5, #0x44]
      dc: 6269         	str	r1, [r5, #0x24]
      de: 2f63         	cmp	r7, #0x63
      e0: 7261         	strb	r1, [r4, #0x9]
      e2: 766d         	strb	r5, [r5, #0x19]
      e4: 6d36         	ldr	r6, [r6, #0x50]
      e6: 735f         	strb	r7, [r3, #0xd]
      e8: 666f         	str	r7, [r5, #0x64]
      ea: 5f74         	ldrsh	r4, [r6, r5]
      ec: 6f6e         	ldr	r6, [r5, #0x74]
      ee: 7066         	strb	r6, [r4, #0x1]
      f0: 655f         	str	r7, [r3, #0x54]
      f2: 6e78         	ldr	r0, [r7, #0x64]
      f4: 725f         	strb	r7, [r3, #0x9]
      f6: 7474         	strb	r4, [r6, #0x11]
      f8: 2f69         	cmp	r7, #0x69
      fa: 7273         	strb	r3, [r6, #0x9]
      fc: 2f63         	cmp	r7, #0x63
      fe: 6970         	ldr	r0, [r6, #0x14]
     100: 6f63         	ldr	r3, [r4, #0x74]
     102: 696c         	ldr	r4, [r5, #0x14]
     104: 6362         	str	r2, [r4, #0x34]
     106: 615f         	str	r7, [r3, #0x14]
     108: 6d72         	ldr	r2, [r6, #0x54]
     10a: 3676         	adds	r6, #0x76
     10c: 5f6d         	ldrsh	r5, [r5, r5]
     10e: 6f73         	ldr	r3, [r6, #0x74]
     110: 7466         	strb	r6, [r4, #0x11]
     112: 6e5f         	ldr	r7, [r3, #0x64]
     114: 666f         	str	r7, [r5, #0x64]
     116: 5f70         	ldrsh	r0, [r6, r5]
     118: 7865         	ldrb	r5, [r4, #0x1]
     11a: 5f6e         	ldrsh	r6, [r5, r5]
     11c: 7472         	strb	r2, [r6, #0x11]
     11e: 6974         	ldr	r4, [r6, #0x14]
     120: 622d         	str	r5, [r5, #0x20]
     122: 6975         	ldr	r5, [r6, #0x14]
     124: 646c         	str	r4, [r5, #0x44]
     126: 00           	<unknown>

Disassembly of section .debug_addr:

00000000 <.debug_addr>:
       0: 0008         	movs	r0, r1
       2: 0000         	movs	r0, r0
       4: 0005         	movs	r5, r0
       6: 0004         	movs	r4, r0
       8: 0218         	lsls	r0, r3, #0x8
       a: 0000         	movs	r0, r0

Disassembly of section .debug_line_str:

00000000 <.debug_line_str>:
       0: 2e2e         	cmp	r6, #0x2e
       2: 2e2f         	cmp	r6, #0x2f
       4: 2f2e         	cmp	r7, #0x2e
       6: 2e2e         	cmp	r6, #0x2e
       8: 2e2f         	cmp	r6, #0x2f
       a: 2f2e         	cmp	r7, #0x2e
       c: 2e2e         	cmp	r6, #0x2e
       e: 732f         	strb	r7, [r5, #0xc]
      10: 6372         	str	r2, [r6, #0x34]
      12: 702f         	strb	r7, [r5]
      14: 6369         	str	r1, [r5, #0x34]
      16: 6c6f         	ldr	r7, [r5, #0x44]
      18: 6269         	str	r1, [r5, #0x24]
      1a: 2f63         	cmp	r7, #0x63
      1c: 656e         	str	r6, [r5, #0x54]
      1e: 6c77         	ldr	r7, [r6, #0x44]
      20: 6269         	str	r1, [r5, #0x24]
      22: 6c2f         	ldr	r7, [r5, #0x40]
      24: 6269         	str	r1, [r5, #0x24]
      26: 2f63         	cmp	r7, #0x63
      28: 616d         	str	r5, [r5, #0x14]
      2a: 6863         	ldr	r3, [r4, #0x4]
      2c: 6e69         	ldr	r1, [r5, #0x64]
      2e: 2f65         	cmp	r7, #0x65
      30: 7261         	strb	r1, [r4, #0x9]
      32: 2f6d         	cmp	r7, #0x6d
      34: 656d         	str	r5, [r5, #0x54]
      36: 636d         	str	r5, [r5, #0x34]
      38: 7970         	ldrb	r0, [r6, #0x5]
      3a: 632e         	str	r6, [r5, #0x30]
      3c: 6c00         	ldr	r0, [r0, #0x40]
      3e: 766c         	strb	r4, [r5, #0x19]
      40: 2f6d         	cmp	r7, #0x6d
      42: 696c         	ldr	r4, [r5, #0x14]
      44: 2f62         	cmp	r7, #0x62
      46: 6c63         	ldr	r3, [r4, #0x44]
      48: 6e61         	ldr	r1, [r4, #0x64]
      4a: 2f67         	cmp	r7, #0x67
      4c: 3931         	subs	r1, #0x31
      4e: 692f         	ldr	r7, [r5, #0x10]
      50: 636e         	str	r6, [r5, #0x34]
      52: 756c         	strb	r4, [r5, #0x15]
      54: 6564         	str	r4, [r4, #0x54]
      56: 5f2f         	ldrsh	r7, [r5, r4]
      58: 735f         	strb	r7, [r3, #0xd]
      5a: 6474         	str	r4, [r6, #0x44]
      5c: 6564         	str	r4, [r4, #0x54]
      5e: 5f66         	ldrsh	r6, [r4, r5]
      60: 6973         	ldr	r3, [r6, #0x14]
      62: 657a         	str	r2, [r7, #0x54]
      64: 745f         	strb	r7, [r3, #0x11]
      66: 682e         	ldr	r6, [r5]
      68: 6d00         	ldr	r0, [r0, #0x50]
      6a: 6d65         	ldr	r5, [r4, #0x54]
      6c: 7063         	strb	r3, [r4, #0x1]
      6e: 2e79         	cmp	r6, #0x79
      70: 0063         	lsls	r3, r4, #0x1
      72: 682f         	ldr	r7, [r5]
      74: 6d6f         	ldr	r7, [r5, #0x54]
      76: 2f65         	cmp	r7, #0x65
      78: 656a         	str	r2, [r5, #0x54]
      7a: 6b6e         	ldr	r6, [r5, #0x34]
      7c: 6e69         	ldr	r1, [r5, #0x64]
      7e: 2f73         	cmp	r7, #0x73
      80: 6761         	str	r1, [r4, #0x74]
      82: 6e65         	ldr	r5, [r4, #0x64]
      84: 2f74         	cmp	r7, #0x74
      86: 6f77         	ldr	r7, [r6, #0x74]
      88: 6b72         	ldr	r2, [r6, #0x34]
      8a: 7073         	strb	r3, [r6, #0x1]
      8c: 6361         	str	r1, [r4, #0x34]
      8e: 2f65         	cmp	r7, #0x65
      90: 6c6c         	ldr	r4, [r5, #0x44]
      92: 6d76         	ldr	r6, [r6, #0x54]
      94: 652d         	str	r5, [r5, #0x50]
      96: 626d         	str	r5, [r5, #0x24]
      98: 6465         	str	r5, [r4, #0x44]
      9a: 6564         	str	r4, [r4, #0x54]
      9c: 2f64         	cmp	r7, #0x64
      9e: 6c6c         	ldr	r4, [r5, #0x44]
      a0: 6d76         	ldr	r6, [r6, #0x54]
      a2: 312d         	adds	r1, #0x2d
      a4: 2f39         	cmp	r7, #0x39
      a6: 7562         	strb	r2, [r4, #0x15]
      a8: 6c69         	ldr	r1, [r5, #0x44]
      aa: 2d64         	cmp	r5, #0x64
      ac: 6e61         	ldr	r1, [r4, #0x64]
      ae: 2d64         	cmp	r5, #0x64
      b0: 6574         	str	r4, [r6, #0x54]
      b2: 7473         	strb	r3, [r6, #0x11]
      b4: 622f         	str	r7, [r5, #0x20]
      b6: 6975         	ldr	r5, [r6, #0x14]
      b8: 646c         	str	r4, [r5, #0x44]
      ba: 2e00         	cmp	r6, #0x0
      bc: 2f2e         	cmp	r7, #0x2e
      be: 2e2e         	cmp	r6, #0x2e
      c0: 2e2f         	cmp	r6, #0x2f
      c2: 2f2e         	cmp	r7, #0x2e
      c4: 2e2e         	cmp	r6, #0x2e
      c6: 2e2f         	cmp	r6, #0x2f
      c8: 2f2e         	cmp	r7, #0x2e
      ca: 7273         	strb	r3, [r6, #0x9]
      cc: 2f63         	cmp	r7, #0x63
      ce: 6970         	ldr	r0, [r6, #0x14]
      d0: 6f63         	ldr	r3, [r4, #0x74]
      d2: 696c         	ldr	r4, [r5, #0x14]
      d4: 6362         	str	r2, [r4, #0x34]
      d6: 6e2f         	ldr	r7, [r5, #0x60]
      d8: 7765         	strb	r5, [r4, #0x1d]
      da: 696c         	ldr	r4, [r5, #0x14]
      dc: 2f62         	cmp	r7, #0x62
      de: 696c         	ldr	r4, [r5, #0x14]
      e0: 6362         	str	r2, [r4, #0x34]
      e2: 6d2f         	ldr	r7, [r5, #0x50]
      e4: 6361         	str	r1, [r4, #0x34]
      e6: 6968         	ldr	r0, [r5, #0x14]
      e8: 656e         	str	r6, [r5, #0x54]
      ea: 612f         	str	r7, [r5, #0x10]
      ec: 6d72         	ldr	r2, [r6, #0x54]
      ee: 2e2f         	cmp	r6, #0x2f
      f0: 2f2e         	cmp	r7, #0x2e
      f2: 2e2e         	cmp	r6, #0x2e
      f4: 732f         	strb	r7, [r5, #0xc]
      f6: 7274         	strb	r4, [r6, #0x9]
      f8: 6e69         	ldr	r1, [r5, #0x64]
      fa: 0067         	lsls	r7, r4, #0x1
      fc: 682f         	ldr	r7, [r5]
      fe: 6d6f         	ldr	r7, [r5, #0x54]
     100: 2f65         	cmp	r7, #0x65
     102: 656a         	str	r2, [r5, #0x54]
     104: 6b6e         	ldr	r6, [r5, #0x34]
     106: 6e69         	ldr	r1, [r5, #0x64]
     108: 2f73         	cmp	r7, #0x73
     10a: 6761         	str	r1, [r4, #0x74]
     10c: 6e65         	ldr	r5, [r4, #0x64]
     10e: 2f74         	cmp	r7, #0x74
     110: 6f77         	ldr	r7, [r6, #0x74]
     112: 6b72         	ldr	r2, [r6, #0x34]
     114: 7073         	strb	r3, [r6, #0x1]
     116: 6361         	str	r1, [r4, #0x34]
     118: 2f65         	cmp	r7, #0x65
     11a: 6c6c         	ldr	r4, [r5, #0x44]
     11c: 6d76         	ldr	r6, [r6, #0x54]
     11e: 652d         	str	r5, [r5, #0x50]
     120: 626d         	str	r5, [r5, #0x24]
     122: 6465         	str	r5, [r4, #0x44]
     124: 6564         	str	r4, [r4, #0x54]
     126: 2f64         	cmp	r7, #0x64
     128: 6c6c         	ldr	r4, [r5, #0x44]
     12a: 6d76         	ldr	r6, [r6, #0x54]
     12c: 312d         	adds	r1, #0x2d
     12e: 2f39         	cmp	r7, #0x39
     130: 7562         	strb	r2, [r4, #0x15]
     132: 6c69         	ldr	r1, [r5, #0x44]
     134: 2d64         	cmp	r5, #0x64
     136: 6e61         	ldr	r1, [r4, #0x64]
     138: 2d64         	cmp	r5, #0x64
     13a: 6574         	str	r4, [r6, #0x54]
     13c: 7473         	strb	r3, [r6, #0x11]
     13e: 622f         	str	r7, [r5, #0x20]
     140: 6975         	ldr	r5, [r6, #0x14]
     142: 646c         	str	r4, [r5, #0x44]
     144: 702f         	strb	r7, [r5]
     146: 6369         	str	r1, [r5, #0x34]
     148: 6c6f         	ldr	r7, [r5, #0x44]
     14a: 6269         	str	r1, [r5, #0x24]
     14c: 2f63         	cmp	r7, #0x63
     14e: 7261         	strb	r1, [r4, #0x9]
     150: 766d         	strb	r5, [r5, #0x19]
     152: 6d36         	ldr	r6, [r6, #0x50]
     154: 735f         	strb	r7, [r3, #0xd]
     156: 666f         	str	r7, [r5, #0x64]
     158: 5f74         	ldrsh	r4, [r6, r5]
     15a: 6f6e         	ldr	r6, [r5, #0x74]
     15c: 7066         	strb	r6, [r4, #0x1]
     15e: 655f         	str	r7, [r3, #0x54]
     160: 6e78         	ldr	r0, [r7, #0x64]
     162: 725f         	strb	r7, [r3, #0x9]
     164: 7474         	strb	r4, [r6, #0x11]
     166: 2f69         	cmp	r7, #0x69
     168: 7273         	strb	r3, [r6, #0x9]
     16a: 2f63         	cmp	r7, #0x63
     16c: 6970         	ldr	r0, [r6, #0x14]
     16e: 6f63         	ldr	r3, [r4, #0x74]
     170: 696c         	ldr	r4, [r5, #0x14]
     172: 6362         	str	r2, [r4, #0x34]
     174: 615f         	str	r7, [r3, #0x14]
     176: 6d72         	ldr	r2, [r6, #0x54]
     178: 3676         	adds	r6, #0x76
     17a: 5f6d         	ldrsh	r5, [r5, r5]
     17c: 6f73         	ldr	r3, [r6, #0x74]
     17e: 7466         	strb	r6, [r4, #0x11]
     180: 6e5f         	ldr	r7, [r3, #0x64]
     182: 666f         	str	r7, [r5, #0x64]
     184: 5f70         	ldrsh	r0, [r6, r5]
     186: 7865         	ldrb	r5, [r4, #0x1]
     188: 5f6e         	ldrsh	r6, [r5, r5]
     18a: 7472         	strb	r2, [r6, #0x11]
     18c: 6974         	ldr	r4, [r6, #0x14]
     18e: 622d         	str	r5, [r5, #0x20]
     190: 6975         	ldr	r5, [r6, #0x14]
     192: 646c         	str	r4, [r5, #0x44]
     194: 00           	<unknown>

Disassembly of section .debug_loclists:

00000000 <.debug_loclists>:
       0: 0076         	lsls	r6, r6, #0x1
       2: 0000         	movs	r0, r0
       4: 0005         	movs	r5, r0
       6: 0004         	movs	r4, r0
       8: 0003         	movs	r3, r0
       a: 0000         	movs	r0, r0
       c: 000c         	movs	r4, r1
       e: 0000         	movs	r0, r0
      10: 0020         	movs	r0, r4
      12: 0000         	movs	r0, r0
      14: 0047         	lsls	r7, r0, #0x1
      16: 0000         	movs	r0, r0
      18: 0004         	movs	r4, r0
      1a: 0106         	lsls	r6, r0, #0x4
      1c: 0452         	lsls	r2, r2, #0x11
      1e: 0a06         	lsrs	r6, r0, #0x8
      20: 7303         	strb	r3, [r0, #0xc]
      22: 9f7f         	ldr	r7, [sp, #0x1fc]
      24: 1204         	asrs	r4, r0, #0x8
      26: 0314         	lsls	r4, r2, #0xc
      28: 7f73         	ldrb	r3, [r6, #0x1d]
      2a: 009f         	lsls	r7, r3, #0x2
      2c: 0404         	lsls	r4, r0, #0x10
      2e: 0106         	lsls	r6, r0, #0x4
      30: 0450         	lsls	r0, r2, #0x11
      32: 0c06         	lsrs	r6, r0, #0x10
      34: 7306         	strb	r6, [r0, #0xc]
      36: 7000         	strb	r0, [r0]
      38: 2200         	movs	r2, #0x0
      3a: 049f         	lsls	r7, r3, #0x12
      3c: 100c         	asrs	r4, r1, #0x20
      3e: 7309         	strb	r1, [r1, #0xc]
      40: 1100         	asrs	r0, r0, #0x4
      42: 7001         	strb	r1, [r0]
      44: 2200         	movs	r2, #0x0
      46: 9f22         	ldr	r7, [sp, #0x88]
      48: 1204         	asrs	r4, r0, #0x8
      4a: 0614         	lsls	r4, r2, #0x18
      4c: 0073         	lsls	r3, r6, #0x1
      4e: 0070         	lsls	r0, r6, #0x1
      50: 9f22         	ldr	r7, [sp, #0x88]
      52: 0400         	lsls	r0, r0, #0x10
      54: 0604         	lsls	r4, r0, #0x18
      56: 5101         	str	r1, [r0, r4]
      58: 0604         	lsls	r4, r0, #0x18
      5a: 060a         	lsls	r2, r1, #0x18
      5c: 0073         	lsls	r3, r6, #0x1
      5e: 0071         	lsls	r1, r6, #0x1
      60: 9f22         	ldr	r7, [sp, #0x88]
      62: 0a04         	lsrs	r4, r0, #0x8
      64: 0910         	lsrs	r0, r2, #0x4
      66: 0073         	lsls	r3, r6, #0x1
      68: 0111         	lsls	r1, r2, #0x4
      6a: 0071         	lsls	r1, r6, #0x1
      6c: 2222         	movs	r2, #0x22
      6e: 049f         	lsls	r7, r3, #0x12
      70: 1412         	asrs	r2, r2, #0x10
      72: 7306         	strb	r6, [r0, #0xc]
      74: 7100         	strb	r0, [r0, #0x4]
      76: 2200         	movs	r2, #0x0
      78: 009f         	lsls	r7, r3, #0x2

Disassembly of section .debug_str_offsets:

00000000 <.debug_str_offsets>:
       0: 0038         	movs	r0, r7
       2: 0000         	movs	r0, r0
       4: 0005         	movs	r5, r0
       6: 0000         	movs	r0, r0
       8: 004d         	lsls	r5, r1, #0x1
       a: 0000         	movs	r0, r0
       c: 0000         	movs	r0, r0
       e: 0000         	movs	r0, r0
      10: 008e         	lsls	r6, r1, #0x2
      12: 0000         	movs	r0, r0
      14: 0072         	lsls	r2, r6, #0x1
      16: 0000         	movs	r0, r0
      18: 0062         	lsls	r2, r4, #0x1
      1a: 0000         	movs	r0, r0
      1c: 0077         	lsls	r7, r6, #0x1
      1e: 0000         	movs	r0, r0
      20: 0069         	lsls	r1, r5, #0x1
      22: 0000         	movs	r0, r0
      24: 0041         	lsls	r1, r0, #0x1
      26: 0000         	movs	r0, r0
      28: 007c         	lsls	r4, r7, #0x1
      2a: 0000         	movs	r0, r0
      2c: 0046         	lsls	r6, r0, #0x1
      2e: 0000         	movs	r0, r0
      30: 003d         	movs	r5, r7
      32: 0000         	movs	r0, r0
      34: 006e         	lsls	r6, r5, #0x1
      36: 0000         	movs	r0, r0
      38: 0089         	lsls	r1, r1, #0x2
      3a: 0000         	movs	r0, r0

Disassembly of section .ARM.attributes:

00000000 <.ARM.attributes>:
       0: 4041         	eors	r1, r0
       2: 0000         	movs	r0, r0
       4: 6100         	str	r0, [r0, #0x10]
       6: 6165         	str	r5, [r4, #0x14]
       8: 6962         	ldr	r2, [r4, #0x14]
       a: 0100         	lsls	r0, r0, #0x4
       c: 0036         	movs	r6, r6
       e: 0000         	movs	r0, r0
      10: 3243         	adds	r2, #0x43
      12: 302e         	adds	r0, #0x2e
      14: 0039         	movs	r1, r7
      16: 6305         	str	r5, [r0, #0x30]
      18: 726f         	strb	r7, [r5, #0x9]
      1a: 6574         	str	r4, [r6, #0x54]
      1c: 2d78         	cmp	r5, #0x78
      1e: 306d         	adds	r0, #0x6d
      20: 0600         	lsls	r0, r0, #0x18
      22: 070c         	lsls	r4, r1, #0x1c
      24: 084d         	lsrs	r5, r1, #0x1
      26: 0900         	lsrs	r0, r0, #0x4
      28: 0e01         	lsrs	r1, r0, #0x18
      2a: 1100         	asrs	r0, r0, #0x4
      2c: 1201         	asrs	r1, r0, #0x8
      2e: 1404         	asrs	r4, r0, #0x10
      30: 1501         	asrs	r1, r0, #0x14
      32: 1700         	asrs	r0, r0, #0x1c
      34: 1803         	adds	r3, r0, r0
      36: 1901         	adds	r1, r0, r4
      38: 1a01         	subs	r1, r0, r0
      3a: 1e02         	subs	r2, r0, #0x0
      3c: 2206         	movs	r2, #0x6
      3e: 2600         	movs	r6, #0x0
      40: 01           	<unknown>

Disassembly of section .symtab:

00000000 <.symtab>:
		...
      10: 0001         	movs	r1, r0
		...
      1a: 0000         	movs	r0, r0
      1c: 0004         	movs	r4, r0
      1e: fff1 000d    	<unknown>
		...
      2e: 0001         	movs	r1, r0
      30: 0010         	movs	r0, r2
      32: 0000         	movs	r0, r0
      34: 00f1         	lsls	r1, r6, #0x3
      36: 0000         	movs	r0, r0
      38: 000a         	movs	r2, r1
      3a: 0000         	movs	r0, r0
      3c: 0002         	movs	r2, r0
      3e: 0001         	movs	r1, r0
      40: 0019         	movs	r1, r3
      42: 0000         	movs	r0, r0
      44: 00fb         	lsls	r3, r7, #0x3
      46: 0000         	movs	r0, r0
      48: 000a         	movs	r2, r1
      4a: 0000         	movs	r0, r0
      4c: 0002         	movs	r2, r0
      4e: 0001         	movs	r1, r0
      50: 0022         	movs	r2, r4
      52: 0000         	movs	r0, r0
      54: 00e8         	lsls	r0, r5, #0x3
		...
      5e: 0001         	movs	r1, r0
      60: 0025         	movs	r5, r4
      62: 0000         	movs	r0, r0
      64: 00f0         	lsls	r0, r6, #0x3
		...
      6e: 0001         	movs	r1, r0
      70: 0028         	movs	r0, r5
      72: 0000         	movs	r0, r0
      74: 01c0         	lsls	r0, r0, #0x7
		...
      7e: 0001         	movs	r1, r0
      80: 002b         	movs	r3, r5
      82: 0000         	movs	r0, r0
      84: 01c4         	lsls	r4, r0, #0x7
		...
      8e: 0001         	movs	r1, r0
      90: 002e         	movs	r6, r5
      92: 0000         	movs	r0, r0
      94: 0210         	lsls	r0, r2, #0x8
		...
      9e: 0001         	movs	r1, r0
      a0: 0031         	movs	r1, r6
		...
      aa: 0000         	movs	r0, r0
      ac: 0004         	movs	r4, r0
      ae: fff1 003a    	<unknown>
      b2: 0000         	movs	r0, r0
      b4: 0218         	lsls	r0, r3, #0x8
		...
      be: 0001         	movs	r1, r0
      c0: 003d         	movs	r5, r7
      c2: 0000         	movs	r0, r0
      c4: 0230         	lsls	r0, r6, #0x8
		...
      ce: 0001         	movs	r1, r0
      d0: 007d         	lsls	r5, r7, #0x1
      d2: 0000         	movs	r0, r0
      d4: 0231         	lsls	r1, r6, #0x8
      d6: 0000         	movs	r0, r0
      d8: 0020         	movs	r0, r4
      da: 0000         	movs	r0, r0
      dc: 0202         	lsls	r2, r0, #0x8
      de: 0001         	movs	r1, r0
      e0: 00d2         	lsls	r2, r2, #0x3
      e2: 0000         	movs	r0, r0
      e4: 0231         	lsls	r1, r6, #0x8
      e6: 0000         	movs	r0, r0
      e8: 0020         	movs	r0, r4
      ea: 0000         	movs	r0, r0
      ec: 0202         	lsls	r2, r0, #0x8
      ee: 0001         	movs	r1, r0
      f0: 0040         	lsls	r0, r0, #0x1
      f2: 0000         	movs	r0, r0
      f4: 0250         	lsls	r0, r2, #0x9
		...
      fe: 0001         	movs	r1, r0
     100: 00db         	lsls	r3, r3, #0x3
     102: 0000         	movs	r0, r0
     104: 0251         	lsls	r1, r2, #0x9
     106: 0000         	movs	r0, r0
     108: 01a2         	lsls	r2, r4, #0x6
     10a: 0000         	movs	r0, r0
     10c: 0202         	lsls	r2, r0, #0x8
     10e: 0001         	movs	r1, r0
     110: 00e5         	lsls	r5, r4, #0x3
     112: 0000         	movs	r0, r0
     114: 0251         	lsls	r1, r2, #0x9
     116: 0000         	movs	r0, r0
     118: 01a2         	lsls	r2, r4, #0x6
     11a: 0000         	movs	r0, r0
     11c: 0202         	lsls	r2, r0, #0x8
     11e: 0001         	movs	r1, r0
     120: 0043         	lsls	r3, r0, #0x1
		...
     12a: 0000         	movs	r0, r0
     12c: 0004         	movs	r4, r0
     12e: fff1 0050    	<unknown>
     132: 0000         	movs	r0, r0
     134: 03f4         	lsls	r4, r6, #0xf
		...
     13e: 0001         	movs	r1, r0
     140: 0053         	lsls	r3, r2, #0x1
     142: 0000         	movs	r0, r0
     144: 03f6         	lsls	r6, r6, #0xf
		...
     14e: 0001         	movs	r1, r0
     150: 00f3         	lsls	r3, r6, #0x3
     152: 0000         	movs	r0, r0
     154: 03f5         	lsls	r5, r6, #0xf
     156: 0000         	movs	r0, r0
     158: 0002         	movs	r2, r0
     15a: 0000         	movs	r0, r0
     15c: 0202         	lsls	r2, r0, #0x8
     15e: 0001         	movs	r1, r0
     160: 0101         	lsls	r1, r0, #0x4
     162: 0000         	movs	r0, r0
     164: 03f7         	lsls	r7, r6, #0xf
     166: 0000         	movs	r0, r0
     168: 0002         	movs	r2, r0
     16a: 0000         	movs	r0, r0
     16c: 0202         	lsls	r2, r0, #0x8
     16e: 0001         	movs	r1, r0
     170: 009f         	lsls	r7, r3, #0x2
		...
     17a: 0000         	movs	r0, r0
     17c: 0200         	lsls	r0, r0, #0x8
     17e: 0001         	movs	r1, r0
     180: 0056         	lsls	r6, r2, #0x1
     182: 0000         	movs	r0, r0
     184: 0001         	movs	r1, r0
     186: 0000         	movs	r0, r0
     188: 002e         	movs	r6, r5
     18a: 0000         	movs	r0, r0
     18c: 0012         	movs	r2, r2
     18e: 0001         	movs	r1, r0
     190: 005b         	lsls	r3, r3, #0x1
     192: 0000         	movs	r0, r0
     194: 002f         	movs	r7, r5
     196: 0000         	movs	r0, r0
     198: 0066         	lsls	r6, r4, #0x1
     19a: 0000         	movs	r0, r0
     19c: 0012         	movs	r2, r2
     19e: 0001         	movs	r1, r0
     1a0: 0067         	lsls	r7, r4, #0x1
     1a2: 0000         	movs	r0, r0
     1a4: 0095         	lsls	r5, r2, #0x2
     1a6: 0000         	movs	r0, r0
     1a8: 005c         	lsls	r4, r3, #0x1
     1aa: 0000         	movs	r0, r0
     1ac: 0012         	movs	r2, r2
     1ae: 0001         	movs	r1, r0
     1b0: 0078         	lsls	r0, r7, #0x1
     1b2: 0000         	movs	r0, r0
     1b4: 0105         	lsls	r5, r0, #0x4
     1b6: 0000         	movs	r0, r0
     1b8: 00c0         	lsls	r0, r0, #0x3
     1ba: 0000         	movs	r0, r0
     1bc: 0012         	movs	r2, r2
     1be: 0001         	movs	r1, r0
     1c0: 008a         	lsls	r2, r1, #0x2
     1c2: 0000         	movs	r0, r0
     1c4: 01c5         	lsls	r5, r0, #0x7
     1c6: 0000         	movs	r0, r0
     1c8: 0054         	lsls	r4, r2, #0x1
     1ca: 0000         	movs	r0, r0
     1cc: 0012         	movs	r2, r2
     1ce: 0001         	movs	r1, r0
     1d0: 008f         	lsls	r7, r1, #0x2
     1d2: 0000         	movs	r0, r0
     1d4: 0219         	lsls	r1, r3, #0x8
     1d6: 0000         	movs	r0, r0
     1d8: 0014         	movs	r4, r2
     1da: 0000         	movs	r0, r0
     1dc: 0022         	movs	r2, r4
     1de: 0001         	movs	r1, r0
     1e0: 00ac         	lsls	r4, r5, #0x2
     1e2: 0000         	movs	r0, r0
     1e4: 0219         	lsls	r1, r3, #0x8
     1e6: 0000         	movs	r0, r0
     1e8: 0014         	movs	r4, r2
     1ea: 0000         	movs	r0, r0
     1ec: 0012         	movs	r2, r2
     1ee: 0001         	movs	r1, r0
     1f0: 00b3         	lsls	r3, r6, #0x2
     1f2: 0000         	movs	r0, r0
     1f4: 0219         	lsls	r1, r3, #0x8
     1f6: 0000         	movs	r0, r0
     1f8: 0014         	movs	r4, r2
     1fa: 0000         	movs	r0, r0
     1fc: 0022         	movs	r2, r4
     1fe: 0001         	movs	r1, r0
     200: 00c3         	lsls	r3, r0, #0x3
     202: 0000         	movs	r0, r0
     204: 0219         	lsls	r1, r3, #0x8
     206: 0000         	movs	r0, r0
     208: 0014         	movs	r4, r2
     20a: 0000         	movs	r0, r0
     20c: 0022         	movs	r2, r4
     20e: 0001         	movs	r1, r0
     210: 010f         	lsls	r7, r1, #0x4
		...
     21a: 0000         	movs	r0, r0
     21c: 0010         	movs	r0, r2
     21e: fff1 0117    	<unknown>
     222: 0000         	movs	r0, r0
     224: 0000         	movs	r0, r0
     226: 0010         	movs	r0, r2
     228: 0000         	movs	r0, r0
     22a: 0000         	movs	r0, r0
     22c: 0010         	movs	r0, r2
     22e: fff1 0124    	<unknown>
     232: 0000         	movs	r0, r0
     234: 0000         	movs	r0, r0
     236: 2000         	movs	r0, #0x0
     238: 0000         	movs	r0, r0
     23a: 0000         	movs	r0, r0
     23c: 0010         	movs	r0, r2
     23e: fff1 012a    	<unknown>
     242: 0000         	movs	r0, r0
     244: 0000         	movs	r0, r0
     246: 0200         	lsls	r0, r0, #0x8
     248: 0000         	movs	r0, r0
     24a: 0000         	movs	r0, r0
     24c: 0010         	movs	r0, r2
     24e: fff1 0135    	<unknown>
     252: 0000         	movs	r0, r0
     254: 0001         	movs	r1, r0
     256: 0000         	movs	r0, r0
     258: 0000         	movs	r0, r0
     25a: 0000         	movs	r0, r0
     25c: 0010         	movs	r0, r2
     25e: fff1 0141    	<unknown>
     262: 0000         	movs	r0, r0
     264: 0000         	movs	r0, r0
     266: 2000         	movs	r0, #0x0
     268: 0000         	movs	r0, r0
     26a: 0000         	movs	r0, r0
     26c: 0010         	movs	r0, r2
     26e: 0006         	movs	r6, r0
     270: 014b         	lsls	r3, r1, #0x5
		...
     27a: 0000         	movs	r0, r0
     27c: 0010         	movs	r0, r2
     27e: 0000         	movs	r0, r0
     280: 015b         	lsls	r3, r3, #0x5
     282: 0000         	movs	r0, r0
     284: 0000         	movs	r0, r0
     286: 0008         	movs	r0, r1
     288: 0000         	movs	r0, r0
     28a: 0000         	movs	r0, r0
     28c: 0010         	movs	r0, r2
     28e: fff1 0168    	<unknown>
		...
     29a: 0000         	movs	r0, r0
     29c: 0010         	movs	r0, r2
     29e: fff1 0174    	<unknown>
		...
     2aa: 0000         	movs	r0, r0
     2ac: 0010         	movs	r0, r2
     2ae: fff1 0187    	<unknown>
     2b2: 0000         	movs	r0, r0
     2b4: 1408         	asrs	r0, r1, #0x10
     2b6: 0000         	movs	r0, r0
     2b8: 0000         	movs	r0, r0
     2ba: 0000         	movs	r0, r0
     2bc: 0010         	movs	r0, r2
     2be: fff1 0199    	<unknown>
     2c2: 0000         	movs	r0, r0
     2c4: 1408         	asrs	r0, r1, #0x10
     2c6: 0000         	movs	r0, r0
     2c8: 0000         	movs	r0, r0
     2ca: 0000         	movs	r0, r0
     2cc: 0010         	movs	r0, r2
     2ce: fff1 01a7    	<unknown>
     2d2: 0000         	movs	r0, r0
     2d4: 1408         	asrs	r0, r1, #0x10
     2d6: 0000         	movs	r0, r0
     2d8: 0000         	movs	r0, r0
     2da: 0000         	movs	r0, r0
     2dc: 0010         	movs	r0, r2
     2de: fff1 01ba    	<unknown>
     2e2: 0000         	movs	r0, r0
     2e4: 0000         	movs	r0, r0
     2e6: 2000         	movs	r0, #0x0
     2e8: 0000         	movs	r0, r0
     2ea: 0000         	movs	r0, r0
     2ec: 0010         	movs	r0, r2
     2ee: 0004         	movs	r4, r0
     2f0: 01c5         	lsls	r5, r0, #0x7
     2f2: 0000         	movs	r0, r0
     2f4: 0000         	movs	r0, r0
     2f6: 2000         	movs	r0, #0x0
     2f8: 0000         	movs	r0, r0
     2fa: 0000         	movs	r0, r0
     2fc: 0010         	movs	r0, r2
     2fe: 0003         	movs	r3, r0
     300: 01d2         	lsls	r2, r2, #0x7
     302: 0000         	movs	r0, r0
     304: 03f8         	lsls	r0, r7, #0xf
     306: 0000         	movs	r0, r0
     308: 0000         	movs	r0, r0
     30a: 0000         	movs	r0, r0
     30c: 0010         	movs	r0, r2
     30e: 0001         	movs	r1, r0
     310: 01dd         	lsls	r5, r3, #0x7
     312: 0000         	movs	r0, r0
     314: 0000         	movs	r0, r0
     316: 2000         	movs	r0, #0x0
     318: 0000         	movs	r0, r0
     31a: 0000         	movs	r0, r0
     31c: 0010         	movs	r0, r2
     31e: 0006         	movs	r6, r0

Disassembly of section .shstrtab:

00000000 <.shstrtab>:
       0: 2e00         	cmp	r6, #0x0
       2: 6574         	str	r4, [r6, #0x54]
       4: 7478         	strb	r0, [r7, #0x11]
       6: 2e00         	cmp	r6, #0x0
       8: 6f72         	ldr	r2, [r6, #0x74]
       a: 6164         	str	r4, [r4, #0x14]
       c: 6174         	str	r4, [r6, #0x14]
       e: 2e00         	cmp	r6, #0x0
      10: 6164         	str	r4, [r4, #0x14]
      12: 6174         	str	r4, [r6, #0x14]
      14: 2e00         	cmp	r6, #0x0
      16: 6474         	str	r4, [r6, #0x44]
      18: 7461         	strb	r1, [r4, #0x11]
      1a: 0061         	lsls	r1, r4, #0x1
      1c: 742e         	strb	r6, [r5, #0x10]
      1e: 7362         	strb	r2, [r4, #0xd]
      20: 0073         	lsls	r3, r6, #0x1
      22: 622e         	str	r6, [r5, #0x20]
      24: 7373         	strb	r3, [r6, #0xd]
      26: 2e00         	cmp	r6, #0x0
      28: 6568         	str	r0, [r5, #0x54]
      2a: 7061         	strb	r1, [r4, #0x1]
      2c: 2e00         	cmp	r6, #0x0
      2e: 7473         	strb	r3, [r6, #0x11]
      30: 6361         	str	r1, [r4, #0x34]
      32: 006b         	lsls	r3, r5, #0x1
      34: 632e         	str	r6, [r5, #0x30]
      36: 6d6f         	ldr	r7, [r5, #0x54]
      38: 656d         	str	r5, [r5, #0x54]
      3a: 746e         	strb	r6, [r5, #0x11]
      3c: 2e00         	cmp	r6, #0x0
      3e: 6564         	str	r4, [r4, #0x54]
      40: 7562         	strb	r2, [r4, #0x15]
      42: 5f67         	ldrsh	r7, [r4, r5]
      44: 6e69         	ldr	r1, [r5, #0x64]
      46: 6f66         	ldr	r6, [r4, #0x74]
      48: 2e00         	cmp	r6, #0x0
      4a: 6564         	str	r4, [r4, #0x54]
      4c: 7562         	strb	r2, [r4, #0x15]
      4e: 5f67         	ldrsh	r7, [r4, r5]
      50: 6261         	str	r1, [r4, #0x24]
      52: 7262         	strb	r2, [r4, #0x9]
      54: 7665         	strb	r5, [r4, #0x19]
      56: 2e00         	cmp	r6, #0x0
      58: 6564         	str	r4, [r4, #0x54]
      5a: 7562         	strb	r2, [r4, #0x15]
      5c: 5f67         	ldrsh	r7, [r4, r5]
      5e: 696c         	ldr	r4, [r5, #0x14]
      60: 656e         	str	r6, [r5, #0x54]
      62: 2e00         	cmp	r6, #0x0
      64: 6564         	str	r4, [r4, #0x54]
      66: 7562         	strb	r2, [r4, #0x15]
      68: 5f67         	ldrsh	r7, [r4, r5]
      6a: 7266         	strb	r6, [r4, #0x9]
      6c: 6d61         	ldr	r1, [r4, #0x54]
      6e: 0065         	lsls	r5, r4, #0x1
      70: 642e         	str	r6, [r5, #0x40]
      72: 6265         	str	r5, [r4, #0x24]
      74: 6775         	str	r5, [r6, #0x74]
      76: 735f         	strb	r7, [r3, #0xd]
      78: 7274         	strb	r4, [r6, #0x9]
      7a: 2e00         	cmp	r6, #0x0
      7c: 6564         	str	r4, [r4, #0x54]
      7e: 7562         	strb	r2, [r4, #0x15]
      80: 5f67         	ldrsh	r7, [r4, r5]
      82: 6461         	str	r1, [r4, #0x44]
      84: 7264         	strb	r4, [r4, #0x9]
      86: 2e00         	cmp	r6, #0x0
      88: 6564         	str	r4, [r4, #0x54]
      8a: 7562         	strb	r2, [r4, #0x15]
      8c: 5f67         	ldrsh	r7, [r4, r5]
      8e: 696c         	ldr	r4, [r5, #0x14]
      90: 656e         	str	r6, [r5, #0x54]
      92: 735f         	strb	r7, [r3, #0xd]
      94: 7274         	strb	r4, [r6, #0x9]
      96: 2e00         	cmp	r6, #0x0
      98: 6564         	str	r4, [r4, #0x54]
      9a: 7562         	strb	r2, [r4, #0x15]
      9c: 5f67         	ldrsh	r7, [r4, r5]
      9e: 6f6c         	ldr	r4, [r5, #0x74]
      a0: 6c63         	ldr	r3, [r4, #0x44]
      a2: 7369         	strb	r1, [r5, #0xd]
      a4: 7374         	strb	r4, [r6, #0xd]
      a6: 2e00         	cmp	r6, #0x0
      a8: 6564         	str	r4, [r4, #0x54]
      aa: 7562         	strb	r2, [r4, #0x15]
      ac: 5f67         	ldrsh	r7, [r4, r5]
      ae: 7473         	strb	r3, [r6, #0x11]
      b0: 5f72         	ldrsh	r2, [r6, r5]
      b2: 666f         	str	r7, [r5, #0x64]
      b4: 7366         	strb	r6, [r4, #0xd]
      b6: 7465         	strb	r5, [r4, #0x11]
      b8: 0073         	lsls	r3, r6, #0x1
      ba: 412e         	asrs	r6, r5
      bc: 4d52         	ldr	r5, [pc, #0x148]        @ 0x208 <main+0x44>
      be: 612e         	str	r6, [r5, #0x10]
      c0: 7474         	strb	r4, [r6, #0x11]
      c2: 6972         	ldr	r2, [r6, #0x14]
      c4: 7562         	strb	r2, [r4, #0x15]
      c6: 6574         	str	r4, [r6, #0x54]
      c8: 0073         	lsls	r3, r6, #0x1
      ca: 732e         	strb	r6, [r5, #0xc]
      cc: 6d79         	ldr	r1, [r7, #0x54]
      ce: 6174         	str	r4, [r6, #0x14]
      d0: 0062         	lsls	r2, r4, #0x1
      d2: 732e         	strb	r6, [r5, #0xc]
      d4: 7368         	strb	r0, [r5, #0xd]
      d6: 7274         	strb	r4, [r6, #0x9]
      d8: 6174         	str	r4, [r6, #0x14]
      da: 0062         	lsls	r2, r4, #0x1
      dc: 732e         	strb	r6, [r5, #0xc]
      de: 7274         	strb	r4, [r6, #0x9]
      e0: 6174         	str	r4, [r6, #0x14]
      e2: 0062         	lsls	r2, r4, #0x1

Disassembly of section .strtab:

00000000 <.strtab>:
       0: 6200         	str	r0, [r0, #0x20]
       2: 6275         	str	r5, [r6, #0x24]
       4: 6c62         	ldr	r2, [r4, #0x44]
       6: 6965         	ldr	r5, [r4, #0x14]
       8: 746e         	strb	r6, [r5, #0x11]
       a: 632e         	str	r6, [r5, #0x30]
       c: 2400         	movs	r4, #0x0
       e: 0074         	lsls	r4, r6, #0x1
      10: 7673         	strb	r3, [r6, #0x19]
      12: 5f63         	ldrsh	r3, [r4, r5]
      14: 7570         	strb	r0, [r6, #0x15]
      16: 7374         	strb	r4, [r6, #0xd]
      18: 7300         	strb	r0, [r0, #0xc]
      1a: 6376         	str	r6, [r6, #0x34]
      1c: 655f         	str	r7, [r3, #0x54]
      1e: 6978         	ldr	r0, [r7, #0x14]
      20: 0074         	lsls	r4, r6, #0x1
      22: 6424         	str	r4, [r4, #0x40]
      24: 2400         	movs	r4, #0x0
      26: 0074         	lsls	r4, r6, #0x1
      28: 6424         	str	r4, [r4, #0x40]
      2a: 2400         	movs	r4, #0x0
      2c: 0074         	lsls	r4, r6, #0x1
      2e: 6424         	str	r4, [r4, #0x40]
      30: 6d00         	ldr	r0, [r0, #0x50]
      32: 6d65         	ldr	r5, [r4, #0x54]
      34: 7063         	strb	r3, [r4, #0x1]
      36: 2e79         	cmp	r6, #0x79
      38: 0063         	lsls	r3, r4, #0x1
      3a: 7424         	strb	r4, [r4, #0x10]
      3c: 2400         	movs	r4, #0x0
      3e: 0074         	lsls	r4, r6, #0x1
      40: 7424         	strb	r4, [r4, #0x10]
      42: 6100         	str	r0, [r0, #0x10]
      44: 6165         	str	r5, [r4, #0x14]
      46: 6962         	ldr	r2, [r4, #0x14]
      48: 645f         	str	r7, [r3, #0x44]
      4a: 7669         	strb	r1, [r5, #0x19]
      4c: 2e30         	cmp	r6, #0x30
      4e: 0063         	lsls	r3, r4, #0x1
      50: 7424         	strb	r4, [r4, #0x10]
      52: 2400         	movs	r4, #0x0
      54: 0074         	lsls	r4, r6, #0x1
      56: 7773         	strb	r3, [r6, #0x1d]
      58: 7061         	strb	r1, [r4, #0x1]
      5a: 6200         	str	r0, [r0, #0x20]
      5c: 6275         	str	r5, [r6, #0x24]
      5e: 6c62         	ldr	r2, [r4, #0x44]
      60: 5f65         	ldrsh	r5, [r4, r5]
      62: 6f73         	ldr	r3, [r6, #0x74]
      64: 7472         	strb	r2, [r6, #0x11]
      66: 6100         	str	r0, [r0, #0x10]
      68: 7373         	strb	r3, [r6, #0xd]
      6a: 7265         	strb	r5, [r4, #0x9]
      6c: 5f74         	ldrsh	r4, [r6, r5]
      6e: 7369         	strb	r1, [r5, #0xd]
      70: 735f         	strb	r7, [r3, #0xd]
      72: 726f         	strb	r7, [r5, #0x9]
      74: 6574         	str	r4, [r6, #0x54]
      76: 0064         	lsls	r4, r4, #0x1
      78: 7469         	strb	r1, [r5, #0x11]
      7a: 616f         	str	r7, [r5, #0x14]
      7c: 5f00         	ldrsh	r0, [r0, r4]
      7e: 615f         	str	r7, [r3, #0x14]
      80: 6165         	str	r5, [r4, #0x14]
      82: 6962         	ldr	r2, [r4, #0x14]
      84: 695f         	ldr	r7, [r3, #0x14]
      86: 6964         	ldr	r4, [r4, #0x14]
      88: 0076         	lsls	r6, r6, #0x1
      8a: 616d         	str	r5, [r5, #0x14]
      8c: 6e69         	ldr	r1, [r5, #0x64]
      8e: 5f00         	ldrsh	r0, [r0, r4]
      90: 615f         	str	r7, [r3, #0x14]
      92: 6165         	str	r5, [r4, #0x14]
      94: 6962         	ldr	r2, [r4, #0x14]
      96: 6d5f         	ldr	r7, [r3, #0x54]
      98: 6d65         	ldr	r5, [r4, #0x54]
      9a: 7063         	strb	r3, [r4, #0x1]
      9c: 3479         	adds	r4, #0x79
      9e: 5f00         	ldrsh	r0, [r0, r4]
      a0: 645f         	str	r7, [r3, #0x44]
      a2: 6f73         	ldr	r3, [r6, #0x74]
      a4: 685f         	ldr	r7, [r3, #0x4]
      a6: 6e61         	ldr	r1, [r4, #0x64]
      a8: 6c64         	ldr	r4, [r4, #0x44]
      aa: 0065         	lsls	r5, r4, #0x1
      ac: 656d         	str	r5, [r5, #0x54]
      ae: 636d         	str	r5, [r5, #0x34]
      b0: 7970         	ldrb	r0, [r6, #0x5]
      b2: 5f00         	ldrsh	r0, [r0, r4]
      b4: 615f         	str	r7, [r3, #0x14]
      b6: 6165         	str	r5, [r4, #0x14]
      b8: 6962         	ldr	r2, [r4, #0x14]
      ba: 6d5f         	ldr	r7, [r3, #0x54]
      bc: 6d65         	ldr	r5, [r4, #0x54]
      be: 7063         	strb	r3, [r4, #0x1]
      c0: 3879         	subs	r0, #0x79
      c2: 5f00         	ldrsh	r0, [r0, r4]
      c4: 615f         	str	r7, [r3, #0x14]
      c6: 6165         	str	r5, [r4, #0x14]
      c8: 6962         	ldr	r2, [r4, #0x14]
      ca: 6d5f         	ldr	r7, [r3, #0x54]
      cc: 6d65         	ldr	r5, [r4, #0x54]
      ce: 7063         	strb	r3, [r4, #0x1]
      d0: 0079         	lsls	r1, r7, #0x1
      d2: 5f5f         	ldrsh	r7, [r3, r5]
      d4: 6964         	ldr	r4, [r4, #0x14]
      d6: 7376         	strb	r6, [r6, #0xd]
      d8: 3369         	adds	r3, #0x69
      da: 5f00         	ldrsh	r0, [r0, r4]
      dc: 755f         	strb	r7, [r3, #0x15]
      de: 6964         	ldr	r4, [r4, #0x14]
      e0: 7376         	strb	r6, [r6, #0xd]
      e2: 3369         	adds	r3, #0x69
      e4: 5f00         	ldrsh	r0, [r0, r4]
      e6: 615f         	str	r7, [r3, #0x14]
      e8: 6165         	str	r5, [r4, #0x14]
      ea: 6962         	ldr	r2, [r4, #0x14]
      ec: 755f         	strb	r7, [r3, #0x15]
      ee: 6469         	str	r1, [r5, #0x44]
      f0: 7669         	strb	r1, [r5, #0x19]
      f2: 5f00         	ldrsh	r0, [r0, r4]
      f4: 615f         	str	r7, [r3, #0x14]
      f6: 6165         	str	r5, [r4, #0x14]
      f8: 6962         	ldr	r2, [r4, #0x14]
      fa: 695f         	ldr	r7, [r3, #0x14]
      fc: 6964         	ldr	r4, [r4, #0x14]
      fe: 3076         	adds	r0, #0x76
     100: 5f00         	ldrsh	r0, [r0, r4]
     102: 615f         	str	r7, [r3, #0x14]
     104: 6165         	str	r5, [r4, #0x14]
     106: 6962         	ldr	r2, [r4, #0x14]
     108: 6c5f         	ldr	r7, [r3, #0x44]
     10a: 6964         	ldr	r4, [r4, #0x14]
     10c: 3076         	adds	r0, #0x76
     10e: 5f00         	ldrsh	r0, [r0, r4]
     110: 665f         	str	r7, [r3, #0x64]
     112: 616c         	str	r4, [r5, #0x14]
     114: 6873         	ldr	r3, [r6, #0x4]
     116: 5f00         	ldrsh	r0, [r0, r4]
     118: 665f         	str	r7, [r3, #0x64]
     11a: 616c         	str	r4, [r5, #0x14]
     11c: 6873         	ldr	r3, [r6, #0x4]
     11e: 735f         	strb	r7, [r3, #0xd]
     120: 7a69         	ldrb	r1, [r5, #0x9]
     122: 0065         	lsls	r5, r4, #0x1
     124: 5f5f         	ldrsh	r7, [r3, r5]
     126: 6172         	str	r2, [r6, #0x14]
     128: 006d         	lsls	r5, r5, #0x1
     12a: 5f5f         	ldrsh	r7, [r3, r5]
     12c: 6172         	str	r2, [r6, #0x14]
     12e: 5f6d         	ldrsh	r5, [r5, r5]
     130: 6973         	ldr	r3, [r6, #0x14]
     132: 657a         	str	r2, [r7, #0x54]
     134: 5f00         	ldrsh	r0, [r0, r4]
     136: 745f         	strb	r7, [r3, #0x11]
     138: 736c         	strb	r4, [r5, #0xd]
     13a: 615f         	str	r7, [r3, #0x14]
     13c: 696c         	ldr	r4, [r5, #0x14]
     13e: 6e67         	ldr	r7, [r4, #0x64]
     140: 5f00         	ldrsh	r0, [r0, r4]
     142: 625f         	str	r7, [r3, #0x24]
     144: 7373         	strb	r3, [r6, #0xd]
     146: 655f         	str	r7, [r3, #0x54]
     148: 646e         	str	r6, [r5, #0x44]
     14a: 5f00         	ldrsh	r0, [r0, r4]
     14c: 685f         	ldr	r7, [r3, #0x4]
     14e: 6165         	str	r5, [r4, #0x14]
     150: 5f70         	ldrsh	r0, [r6, r5]
     152: 6973         	ldr	r3, [r6, #0x14]
     154: 657a         	str	r2, [r7, #0x54]
     156: 6d5f         	ldr	r7, [r3, #0x54]
     158: 6e69         	ldr	r1, [r5, #0x64]
     15a: 5f00         	ldrsh	r0, [r0, r4]
     15c: 735f         	strb	r7, [r3, #0xd]
     15e: 6174         	str	r4, [r6, #0x14]
     160: 6b63         	ldr	r3, [r4, #0x34]
     162: 735f         	strb	r7, [r3, #0xd]
     164: 7a69         	ldrb	r1, [r5, #0x9]
     166: 0065         	lsls	r5, r4, #0x1
     168: 5f5f         	ldrsh	r7, [r3, r5]
     16a: 6164         	str	r4, [r4, #0x14]
     16c: 6174         	str	r4, [r6, #0x14]
     16e: 735f         	strb	r7, [r3, #0xd]
     170: 7a69         	ldrb	r1, [r5, #0x9]
     172: 0065         	lsls	r5, r4, #0x1
     174: 5f5f         	ldrsh	r7, [r3, r5]
     176: 6164         	str	r4, [r4, #0x14]
     178: 6174         	str	r4, [r6, #0x14]
     17a: 735f         	strb	r7, [r3, #0xd]
     17c: 756f         	strb	r7, [r5, #0x15]
     17e: 6372         	str	r2, [r6, #0x34]
     180: 5f65         	ldrsh	r5, [r4, r5]
     182: 6973         	ldr	r3, [r6, #0x14]
     184: 657a         	str	r2, [r7, #0x54]
     186: 5f00         	ldrsh	r0, [r0, r4]
     188: 645f         	str	r7, [r3, #0x44]
     18a: 7461         	strb	r1, [r4, #0x11]
     18c: 5f61         	ldrsh	r1, [r4, r5]
     18e: 6f73         	ldr	r3, [r6, #0x74]
     190: 7275         	strb	r5, [r6, #0x9]
     192: 6563         	str	r3, [r4, #0x54]
     194: 655f         	str	r7, [r3, #0x54]
     196: 646e         	str	r6, [r5, #0x44]
     198: 5f00         	ldrsh	r0, [r0, r4]
     19a: 645f         	str	r7, [r3, #0x44]
     19c: 7461         	strb	r1, [r4, #0x11]
     19e: 5f61         	ldrsh	r1, [r4, r5]
     1a0: 6f73         	ldr	r3, [r6, #0x74]
     1a2: 7275         	strb	r5, [r6, #0x9]
     1a4: 6563         	str	r3, [r4, #0x54]
     1a6: 5f00         	ldrsh	r0, [r0, r4]
     1a8: 745f         	strb	r7, [r3, #0x11]
     1aa: 6164         	str	r4, [r4, #0x14]
     1ac: 6174         	str	r4, [r6, #0x14]
     1ae: 735f         	strb	r7, [r3, #0xd]
     1b0: 756f         	strb	r7, [r5, #0x15]
     1b2: 6372         	str	r2, [r6, #0x34]
     1b4: 5f65         	ldrsh	r5, [r4, r5]
     1b6: 6e65         	ldr	r5, [r4, #0x64]
     1b8: 0064         	lsls	r4, r4, #0x1
     1ba: 5f5f         	ldrsh	r7, [r3, r5]
     1bc: 6164         	str	r4, [r4, #0x14]
     1be: 6174         	str	r4, [r6, #0x14]
     1c0: 655f         	str	r7, [r3, #0x54]
     1c2: 646e         	str	r6, [r5, #0x44]
     1c4: 5f00         	ldrsh	r0, [r0, r4]
     1c6: 645f         	str	r7, [r3, #0x44]
     1c8: 7461         	strb	r1, [r4, #0x11]
     1ca: 5f61         	ldrsh	r1, [r4, r5]
     1cc: 7473         	strb	r3, [r6, #0x11]
     1ce: 7261         	strb	r1, [r4, #0x9]
     1d0: 0074         	lsls	r4, r6, #0x1
     1d2: 5f5f         	ldrsh	r7, [r3, r5]
     1d4: 6574         	str	r4, [r6, #0x54]
     1d6: 7478         	strb	r0, [r7, #0x11]
     1d8: 655f         	str	r7, [r3, #0x54]
     1da: 646e         	str	r6, [r5, #0x44]
     1dc: 5f00         	ldrsh	r0, [r0, r4]
     1de: 6e65         	ldr	r5, [r4, #0x64]
     1e0: 0064         	lsls	r4, r4, #0x1
