
benchmarks/fib.out:	file format elf32-littlearm

Disassembly of section .text:

00000000 <sbrk>:
; extern void* sbrk(ptrdiff_t increment) {
       0: b083         	sub	sp, #0xc
       2: 9001         	str	r0, [sp, #0x4]
;     char* prev_heap_ptr = heap_ptr;
       4: 480f         	ldr	r0, [pc, #0x3c]         @ 0x44 <sbrk+0x44>
       6: 6800         	ldr	r0, [r0]
       8: 9000         	str	r0, [sp]
;     if (increment > 0) {
       a: 9801         	ldr	r0, [sp, #0x4]
       c: 2801         	cmp	r0, #0x1
       e: db12         	blt	0x36 <sbrk+0x36>        @ imm = #0x24
      10: e7ff         	b	0x12 <sbrk+0x12>        @ imm = #-0x2
;         if (heap_ptr + increment > &__heap_end) {
      12: 480c         	ldr	r0, [pc, #0x30]         @ 0x44 <sbrk+0x44>
      14: 6800         	ldr	r0, [r0]
      16: 9901         	ldr	r1, [sp, #0x4]
      18: 1840         	adds	r0, r0, r1
      1a: 490b         	ldr	r1, [pc, #0x2c]         @ 0x48 <sbrk+0x48>
      1c: 4288         	cmp	r0, r1
      1e: d904         	bls	0x2a <sbrk+0x2a>        @ imm = #0x8
      20: e7ff         	b	0x22 <sbrk+0x22>        @ imm = #-0x2
      22: 2000         	movs	r0, #0x0
      24: 43c0         	mvns	r0, r0
;             return (void*)-1;  // Return error if the heap is full
      26: 9002         	str	r0, [sp, #0x8]
      28: e008         	b	0x3c <sbrk+0x3c>        @ imm = #0x10
;         heap_ptr += increment;
      2a: 9a01         	ldr	r2, [sp, #0x4]
      2c: 4905         	ldr	r1, [pc, #0x14]         @ 0x44 <sbrk+0x44>
      2e: 6808         	ldr	r0, [r1]
      30: 1880         	adds	r0, r0, r2
      32: 6008         	str	r0, [r1]
;     }
      34: e7ff         	b	0x36 <sbrk+0x36>        @ imm = #-0x2
;     return (void*)prev_heap_ptr;
      36: 9800         	ldr	r0, [sp]
      38: 9002         	str	r0, [sp, #0x8]
      3a: e7ff         	b	0x3c <sbrk+0x3c>        @ imm = #-0x2
; }
      3c: 9802         	ldr	r0, [sp, #0x8]
      3e: b003         	add	sp, #0xc
      40: 4770         	bx	lr
      42: 46c0         	mov	r8, r8
      44: 00 00 00 20  	.word	0x20000000
      48: 00 00 f8 21  	.word	0x21f80000

0000004c <fibonacci>:
; unsigned long long fibonacci(int n) {
      4c: b08c         	sub	sp, #0x30
      4e: 9009         	str	r0, [sp, #0x24]
;     if (n <= 0) return 0;
      50: 9809         	ldr	r0, [sp, #0x24]
      52: 2800         	cmp	r0, #0x0
      54: dc04         	bgt	0x60 <fibonacci+0x14>   @ imm = #0x8
      56: e7ff         	b	0x58 <fibonacci+0xc>    @ imm = #-0x2
      58: 2000         	movs	r0, #0x0
;     if (n <= 0) return 0;
      5a: 900b         	str	r0, [sp, #0x2c]
      5c: 900a         	str	r0, [sp, #0x28]
      5e: e030         	b	0xc2 <fibonacci+0x76>   @ imm = #0x60
;     if (n == 1) return 1;
      60: 9809         	ldr	r0, [sp, #0x24]
      62: 2801         	cmp	r0, #0x1
      64: d105         	bne	0x72 <fibonacci+0x26>   @ imm = #0xa
      66: e7ff         	b	0x68 <fibonacci+0x1c>   @ imm = #-0x2
      68: 2000         	movs	r0, #0x0
;     if (n == 1) return 1;
      6a: 900b         	str	r0, [sp, #0x2c]
      6c: 2001         	movs	r0, #0x1
      6e: 900a         	str	r0, [sp, #0x28]
      70: e027         	b	0xc2 <fibonacci+0x76>   @ imm = #0x4e
      72: 2000         	movs	r0, #0x0
;     unsigned long long a = 0, b = 1, temp;
      74: 9007         	str	r0, [sp, #0x1c]
      76: 9006         	str	r0, [sp, #0x18]
      78: 9005         	str	r0, [sp, #0x14]
      7a: 2001         	movs	r0, #0x1
      7c: 9004         	str	r0, [sp, #0x10]
      7e: 2002         	movs	r0, #0x2
;     for (int i = 2; i <= n; ++i) {
      80: 9001         	str	r0, [sp, #0x4]
      82: e7ff         	b	0x84 <fibonacci+0x38>   @ imm = #-0x2
      84: 9801         	ldr	r0, [sp, #0x4]
      86: 9909         	ldr	r1, [sp, #0x24]
      88: 4288         	cmp	r0, r1
      8a: dc15         	bgt	0xb8 <fibonacci+0x6c>   @ imm = #0x2a
      8c: e7ff         	b	0x8e <fibonacci+0x42>   @ imm = #-0x2
;         temp = a + b;
      8e: 9807         	ldr	r0, [sp, #0x1c]
      90: 9906         	ldr	r1, [sp, #0x18]
      92: 9a05         	ldr	r2, [sp, #0x14]
      94: 9b04         	ldr	r3, [sp, #0x10]
      96: 18c9         	adds	r1, r1, r3
      98: 4150         	adcs	r0, r2
      9a: 9102         	str	r1, [sp, #0x8]
      9c: 9003         	str	r0, [sp, #0xc]
;         a = b;
      9e: 9804         	ldr	r0, [sp, #0x10]
      a0: 9905         	ldr	r1, [sp, #0x14]
      a2: 9107         	str	r1, [sp, #0x1c]
      a4: 9006         	str	r0, [sp, #0x18]
;         b = temp;
      a6: 9802         	ldr	r0, [sp, #0x8]
      a8: 9903         	ldr	r1, [sp, #0xc]
      aa: 9105         	str	r1, [sp, #0x14]
      ac: 9004         	str	r0, [sp, #0x10]
;     }
      ae: e7ff         	b	0xb0 <fibonacci+0x64>   @ imm = #-0x2
;     for (int i = 2; i <= n; ++i) {
      b0: 9801         	ldr	r0, [sp, #0x4]
      b2: 1c40         	adds	r0, r0, #0x1
      b4: 9001         	str	r0, [sp, #0x4]
      b6: e7e5         	b	0x84 <fibonacci+0x38>   @ imm = #-0x36
;     return b;
      b8: 9804         	ldr	r0, [sp, #0x10]
      ba: 9905         	ldr	r1, [sp, #0x14]
      bc: 910b         	str	r1, [sp, #0x2c]
      be: 900a         	str	r0, [sp, #0x28]
      c0: e7ff         	b	0xc2 <fibonacci+0x76>   @ imm = #-0x2
; }
      c2: 980a         	ldr	r0, [sp, #0x28]
      c4: 990b         	ldr	r1, [sp, #0x2c]
      c6: b00c         	add	sp, #0x30
      c8: 4770         	bx	lr

000000ca <main>:
; int main() {
      ca: b580         	push	{r7, lr}
      cc: af00         	add	r7, sp, #0x0
      ce: b0e8         	sub	sp, #0x1a0
      d0: 2000         	movs	r0, #0x0
      d2: 9001         	str	r0, [sp, #0x4]
      d4: 9067         	str	r0, [sp, #0x19c]
      d6: 2019         	movs	r0, #0x19
      d8: 0101         	lsls	r1, r0, #0x4
      da: a803         	add	r0, sp, #0xc
;     unsigned arr[N] = {0};
      dc: f000 f82e    	bl	0x13c <bzero>           @ imm = #0x5c
      e0: 9801         	ldr	r0, [sp, #0x4]
;     for (unsigned i = 0; i < N; i++) {
      e2: 9002         	str	r0, [sp, #0x8]
      e4: e7ff         	b	0xe6 <main+0x1c>        @ imm = #-0x2
      e6: 9802         	ldr	r0, [sp, #0x8]
      e8: 2863         	cmp	r0, #0x63
      ea: d80d         	bhi	0x108 <main+0x3e>       @ imm = #0x1a
      ec: e7ff         	b	0xee <main+0x24>        @ imm = #-0x2
;         arr[i] = fibonacci(i + 1);
      ee: 9802         	ldr	r0, [sp, #0x8]
      f0: 1c40         	adds	r0, r0, #0x1
      f2: f7ff ffab    	bl	0x4c <fibonacci>        @ imm = #-0xaa
      f6: 9902         	ldr	r1, [sp, #0x8]
      f8: 008a         	lsls	r2, r1, #0x2
      fa: a903         	add	r1, sp, #0xc
      fc: 5088         	str	r0, [r1, r2]
;     }
      fe: e7ff         	b	0x100 <main+0x36>       @ imm = #-0x2
;     for (unsigned i = 0; i < N; i++) {
     100: 9802         	ldr	r0, [sp, #0x8]
     102: 1c40         	adds	r0, r0, #0x1
     104: 9002         	str	r0, [sp, #0x8]
     106: e7ee         	b	0xe6 <main+0x1c>        @ imm = #-0x24
;     svc_putint(arr[N - 1]);
     108: 9866         	ldr	r0, [sp, #0x198]
     10a: f000 f806    	bl	0x11a <svc_putint>      @ imm = #0xc
     10e: 2000         	movs	r0, #0x0
;     svc_exit(0);
     110: f000 f80b    	bl	0x12a <svc_exit>        @ imm = #0x16
; }
     114: 9867         	ldr	r0, [sp, #0x19c]
     116: b068         	add	sp, #0x1a0
     118: bd80         	pop	{r7, pc}

0000011a <svc_putint>:
; static inline void svc_putint(int n) {
     11a: b082         	sub	sp, #0x8
     11c: 9001         	str	r0, [sp, #0x4]
;      register int r0 __asm__("r0") = n;
     11e: 9801         	ldr	r0, [sp, #0x4]
     120: 9000         	str	r0, [sp]
;      __asm volatile ("svc 3" :  : "r"(r0) : "memory");
     122: 9800         	ldr	r0, [sp]
     124: df03         	svc	#0x3
; }
     126: b002         	add	sp, #0x8
     128: 4770         	bx	lr

0000012a <svc_exit>:
; static inline void svc_exit(unsigned code) {
     12a: b082         	sub	sp, #0x8
     12c: 9001         	str	r0, [sp, #0x4]
;     register unsigned r0 __asm__("r0") = code;
     12e: 9801         	ldr	r0, [sp, #0x4]
     130: 9000         	str	r0, [sp]
;     __asm volatile ("svc 0" :  : "r"(r0) : "memory");
     132: 9800         	ldr	r0, [sp]
     134: df00         	svc	#0x0
; };
     136: b002         	add	sp, #0x8
     138: 4770         	bx	lr
     13a: d4d4         	bmi	0xe6 <main+0x1c>        @ imm = #-0x58

0000013c <bzero>:
     13c: b580         	push	{r7, lr}
     13e: af00         	add	r7, sp, #0x0
     140: 460a         	mov	r2, r1
     142: 2100         	movs	r1, #0x0
     144: f000 f802    	bl	0x14c <memset>          @ imm = #0x4
     148: bd80         	pop	{r7, pc}
     14a: d4d4         	bmi	0xf6 <main+0x2c>        @ imm = #-0x58

0000014c <memset>:
     14c: 2300         	movs	r3, #0x0
     14e: 429a         	cmp	r2, r3
     150: d002         	beq	0x158 <memset+0xc>      @ imm = #0x4
     152: 54c1         	strb	r1, [r0, r3]
     154: 1c5b         	adds	r3, r3, #0x1
     156: e7fa         	b	0x14e <memset+0x2>      @ imm = #-0xc
     158: 4770         	bx	lr

0000015a <__text_end>:
     15a: d4d4         	bmi	0x106 <main+0x3c>       @ imm = #-0x58
     15c: d4d4         	bmi	0x108 <main+0x3e>       @ imm = #-0x58
     15e: d4d4         	bmi	0x10a <main+0x40>       @ imm = #-0x58

Disassembly of section .data:

20000000 <heap_ptr>:
20000000: 0008         	movs	r0, r1
20000002: 2000         	movs	r0, #0x0
20000004: 0000         	movs	r0, r0
20000006: 0000         	movs	r0, r0

Disassembly of section .heap:

20000008 <.heap>:
...

Disassembly of section .stack:

20080008 <.stack>:
...

Disassembly of section .comment:

00000000 <.comment>:
; extern void* sbrk(ptrdiff_t increment) {
       0: 6300         	str	r0, [r0, #0x30]
       2: 616c         	str	r4, [r5, #0x14]
;     char* prev_heap_ptr = heap_ptr;
       4: 676e         	str	r6, [r5, #0x74]
       6: 7620         	strb	r0, [r4, #0x18]
       8: 7265         	strb	r5, [r4, #0x9]
;     if (increment > 0) {
       a: 6973         	ldr	r3, [r6, #0x14]
       c: 6e6f         	ldr	r7, [r5, #0x64]
       e: 3120         	adds	r1, #0x20
      10: 2e39         	cmp	r6, #0x39
;         if (heap_ptr + increment > &__heap_end) {
      12: 2e31         	cmp	r6, #0x31
      14: 0035         	movs	r5, r6
      16: 694c         	ldr	r4, [r1, #0x14]
      18: 6b6e         	ldr	r6, [r5, #0x34]
      1a: 7265         	strb	r5, [r4, #0x9]
      1c: 203a         	movs	r0, #0x3a
      1e: 4c4c         	ldr	r4, [pc, #0x130]        @ 0x150 <memset+0x4>
      20: 2044         	movs	r0, #0x44
      22: 3931         	subs	r1, #0x31
      24: 312e         	adds	r1, #0x2e
;             return (void*)-1;  // Return error if the heap is full
      26: 352e         	adds	r5, #0x2e
      28: 00           	<unknown>

Disassembly of section .debug_info:

00000000 <.debug_info>:
; extern void* sbrk(ptrdiff_t increment) {
       0: 013e         	lsls	r6, r7, #0x4
       2: 0000         	movs	r0, r0
;     char* prev_heap_ptr = heap_ptr;
       4: 0005         	movs	r5, r0
       6: 0401         	lsls	r1, r0, #0x10
       8: 0000         	movs	r0, r0
;     if (increment > 0) {
       a: 0000         	movs	r0, r0
       c: 0001         	movs	r1, r0
       e: 001d         	movs	r5, r3
      10: 0801         	lsrs	r1, r0, #0x20
;         if (heap_ptr + increment > &__heap_end) {
      12: 0000         	movs	r0, r0
      14: 0000         	movs	r0, r0
      16: 0000         	movs	r0, r0
      18: 0200         	lsls	r0, r0, #0x8
      1a: 3a01         	subs	r2, #0x1
      1c: 0001         	movs	r1, r0
      1e: 0800         	lsrs	r0, r0, #0x20
      20: 0000         	movs	r0, r0
      22: 0200         	lsls	r0, r0, #0x8
      24: 2e03         	cmp	r6, #0x3
;             return (void*)-1;  // Return error if the heap is full
      26: 0000         	movs	r0, r0
      28: 0100         	lsls	r0, r0, #0x4
;         heap_ptr += increment;
      2a: 0209         	lsls	r1, r1, #0x8
      2c: 00a1         	lsls	r1, r4, #0x2
      2e: 3303         	adds	r3, #0x3
      30: 0000         	movs	r0, r0
      32: 0400         	lsls	r0, r0, #0x10
;     }
      34: 0804         	lsrs	r4, r0, #0x20
;     return (void*)prev_heap_ptr;
      36: 0501         	lsls	r1, r0, #0x14
      38: 0106         	lsls	r6, r0, #0x4
      3a: 004c         	lsls	r4, r1, #0x1
; }
      3c: 0000         	movs	r0, r0
      3e: 5701         	ldrsb	r1, [r0, r4]
      40: 0105         	lsls	r5, r0, #0x4
      42: 371a         	adds	r7, #0x1a
      44: 0000         	movs	r0, r0
      46: 0700         	lsls	r0, r0, #0x1c
      48: 7d02         	ldrb	r2, [r0, #0x14]
      4a: 0c04         	lsrs	r4, r0, #0x10
; unsigned long long fibonacci(int n) {
      4c: 1a01         	subs	r1, r0, r0
      4e: 0125         	lsls	r5, r4, #0x4
;     if (n <= 0) return 0;
      50: 0000         	movs	r0, r0
      52: 0208         	lsls	r0, r1, #0x8
      54: 007d         	lsls	r5, r7, #0x1
      56: 010e         	lsls	r6, r1, #0x4
      58: 2e1b         	cmp	r6, #0x1b
;     if (n <= 0) return 0;
      5a: 0000         	movs	r0, r0
      5c: 0000         	movs	r0, r0
      5e: 0206         	lsls	r6, r0, #0x8
;     if (n == 1) return 1;
      60: 007e         	lsls	r6, r7, #0x1
      62: 0000         	movs	r0, r0
      64: 5701         	ldrsb	r1, [r0, r4]
      66: 0006         	movs	r6, r0
      68: 1d05         	adds	r5, r0, #0x4
;     if (n == 1) return 1;
      6a: 0001         	movs	r1, r0
      6c: 0700         	lsls	r0, r0, #0x1c
      6e: 7d02         	ldrb	r2, [r0, #0x14]
      70: 0f24         	lsrs	r4, r4, #0x1c
      72: 0500         	lsls	r0, r0, #0x14
;     unsigned long long a = 0, b = 1, temp;
      74: 0121         	lsls	r1, r4, #0x4
      76: 0000         	movs	r0, r0
      78: 0208         	lsls	r0, r1, #0x8
      7a: 187d         	adds	r5, r7, r1
      7c: 0010         	movs	r0, r2
      7e: 1d09         	adds	r1, r1, #0x4
;     for (int i = 2; i <= n; ++i) {
      80: 0001         	movs	r1, r0
      82: 0800         	lsrs	r0, r0, #0x20
      84: 7d02         	ldrb	r2, [r0, #0x14]
      86: 1110         	asrs	r0, r2, #0x4
      88: 0900         	lsrs	r0, r0, #0x4
      8a: 011d         	lsls	r5, r3, #0x4
      8c: 0000         	movs	r0, r0
;         temp = a + b;
      8e: 0208         	lsls	r0, r1, #0x8
      90: 087d         	lsrs	r5, r7, #0x1
      92: 0012         	movs	r2, r2
      94: 1d09         	adds	r1, r1, #0x4
      96: 0001         	movs	r1, r0
      98: 0900         	lsrs	r0, r0, #0x4
      9a: 3803         	subs	r0, #0x3
      9c: 0000         	movs	r0, r0
;         a = b;
      9e: 0800         	lsrs	r0, r0, #0x20
      a0: 7d02         	ldrb	r2, [r0, #0x14]
      a2: 1304         	asrs	r4, r0, #0xc
      a4: 0a00         	lsrs	r0, r0, #0x8
;         b = temp;
      a6: 0121         	lsls	r1, r4, #0x4
      a8: 0000         	movs	r0, r0
      aa: 0000         	movs	r0, r0
      ac: 040a         	lsls	r2, r1, #0x10
;     }
      ae: 0050         	lsls	r0, r2, #0x1
;     for (int i = 2; i <= n; ++i) {
      b0: 0000         	movs	r0, r0
      b2: 5701         	ldrsb	r1, [r0, r4]
      b4: 0008         	movs	r0, r1
      b6: 2112         	movs	r1, #0x12
;     return b;
      b8: 0001         	movs	r1, r0
      ba: 0800         	lsrs	r0, r0, #0x20
      bc: 7d02         	ldrb	r2, [r0, #0x14]
      be: 140c         	asrs	r4, r1, #0x10
      c0: 1300         	asrs	r0, r0, #0xc
; }
      c2: 012d         	lsls	r5, r5, #0x4
      c4: 0000         	movs	r0, r0
      c6: 0509         	lsls	r1, r1, #0x14
      c8: 0026         	movs	r6, r4
; int main() {
      ca: 0000         	movs	r0, r0
      cc: 0208         	lsls	r0, r1, #0x8
      ce: 087d         	lsrs	r5, r7, #0x1
      d0: 0013         	movs	r3, r2
      d2: 3914         	subs	r1, #0x14
      d4: 0001         	movs	r1, r0
      d6: 0000         	movs	r0, r0
      d8: 0b00         	lsrs	r0, r0, #0xc
      da: 1006         	asrs	r6, r0, #0x20
;     unsigned arr[N] = {0};
      dc: 0000         	movs	r0, r0
      de: 0100         	lsls	r0, r0, #0x4
      e0: 0a57         	lsrs	r7, r2, #0x9
;     for (unsigned i = 0; i < N; i++) {
      e2: 1501         	asrs	r1, r0, #0x14
      e4: 0207         	lsls	r7, r0, #0x8
      e6: 047d         	lsls	r5, r7, #0x11
      e8: 010f         	lsls	r7, r1, #0x4
      ea: 2115         	movs	r1, #0x15
      ec: 0001         	movs	r1, r0
;         arr[i] = fibonacci(i + 1);
      ee: 0800         	lsrs	r0, r0, #0x20
      f0: 7d02         	ldrb	r2, [r0, #0x14]
      f2: 1700         	asrs	r0, r0, #0x1c
      f4: 1601         	asrs	r1, r0, #0x18
      f6: 0121         	lsls	r1, r4, #0x4
      f8: 0000         	movs	r0, r0
      fa: 0b00         	lsrs	r0, r0, #0xc
      fc: 1007         	asrs	r7, r0, #0x20
;     }
      fe: 0000         	movs	r0, r0
;     for (unsigned i = 0; i < N; i++) {
     100: 0100         	lsls	r0, r0, #0x4
     102: 0b57         	lsrs	r7, r2, #0xd
     104: 0b01         	lsrs	r1, r0, #0xc
     106: 0207         	lsls	r7, r0, #0x8
;     svc_putint(arr[N - 1]);
     108: 047d         	lsls	r5, r7, #0x11
     10a: 0118         	lsls	r0, r3, #0x4
     10c: 390b         	subs	r1, #0xb
     10e: 0001         	movs	r1, r0
;     svc_exit(0);
     110: 0800         	lsrs	r0, r0, #0x20
     112: 7d02         	ldrb	r2, [r0, #0x14]
; }
     114: 1700         	asrs	r0, r0, #0x1c
     116: 0c01         	lsrs	r1, r0, #0x10
     118: 0139         	lsls	r1, r7, #0x4
; static inline void svc_putint(int n) {
     11a: 0000         	movs	r0, r0
     11c: 0400         	lsls	r0, r0, #0x10
;      register int r0 __asm__("r0") = n;
     11e: 0707         	lsls	r7, r0, #0x1c
     120: 0408         	lsls	r0, r1, #0x10
;      __asm volatile ("svc 3" :  : "r"(r0) : "memory");
     122: 0509         	lsls	r1, r1, #0x14
     124: 0c04         	lsrs	r4, r0, #0x10
; }
     126: 0121         	lsls	r1, r4, #0x4
     128: 0000         	movs	r0, r0
; static inline void svc_exit(unsigned code) {
     12a: 020d         	lsls	r5, r1, #0x8
     12c: 0d12         	lsrs	r2, r2, #0x14
;     register unsigned r0 __asm__("r0") = code;
     12e: 0139         	lsls	r1, r7, #0x4
     130: 0000         	movs	r0, r0
;     __asm volatile ("svc 0" :  : "r"(r0) : "memory");
     132: 3d0e         	subs	r5, #0xe
     134: 0001         	movs	r1, r0
; };
     136: 6400         	str	r0, [r0, #0x40]
     138: 0400         	lsls	r0, r0, #0x10
     13a: 0715         	lsls	r5, r2, #0x1c
     13c: 0f04         	lsrs	r4, r0, #0x1c
     13e: 0816         	lsrs	r6, r2, #0x20
     140: 0007         	movs	r7, r0
     142: 004f         	lsls	r7, r1, #0x1
     144: 0000         	movs	r0, r0
     146: 0005         	movs	r5, r0
     148: 0401         	lsls	r1, r0, #0x10
     14a: 00cc         	lsls	r4, r1, #0x3
     14c: 0000         	movs	r0, r0
     14e: 0001         	movs	r1, r0
     150: 001d         	movs	r5, r3
     152: 7401         	strb	r1, [r0, #0x10]
     154: 0000         	movs	r0, r0
     156: b400         	<unknown>
     158: 0001         	movs	r1, r0
     15a: 0200         	lsls	r0, r0, #0x8
     15c: 0e00         	lsrs	r0, r0, #0x18
     15e: 0000         	movs	r0, r0
     160: 3000         	adds	r0, #0x0
     162: 0000         	movs	r0, r0
     164: 0c00         	lsrs	r0, r0, #0x10
     166: 0000         	movs	r0, r0
     168: 0200         	lsls	r0, r0, #0x8
     16a: 0e00         	lsrs	r0, r0, #0x18
     16c: 0000         	movs	r0, r0
     16e: 0100         	lsls	r0, r0, #0x4
     170: 0357         	lsls	r7, r2, #0xd
     172: 3101         	adds	r1, #0x1
     174: 0003         	movs	r3, r0
     176: 0104         	lsls	r4, r0, #0x4
     178: 4531         	cmp	r1, r6
     17a: 0000         	movs	r0, r0
     17c: 0300         	lsls	r0, r0, #0xc
     17e: 0501         	lsls	r1, r0, #0x14
     180: 3101         	adds	r1, #0x1
     182: 0046         	lsls	r6, r0, #0x1
     184: 0000         	movs	r0, r0
     186: 0400         	lsls	r0, r0, #0x10
     188: 4e05         	ldr	r6, [pc, #0x14]         @ 0x1a0 <.debug_info+0x1a0>
     18a: 0000         	movs	r0, r0
     18c: 0700         	lsls	r0, r0, #0x1c
     18e: 1202         	asrs	r2, r0, #0x8
     190: 0606         	lsls	r6, r0, #0x18
     192: 0407         	lsls	r7, r0, #0x10
     194: 7400         	strb	r0, [r0, #0x10]
     196: 0000         	movs	r0, r0
     198: 0500         	lsls	r0, r0, #0x14
     19a: 0100         	lsls	r0, r0, #0x4
     19c: 2a04         	cmp	r2, #0x4
     19e: 0001         	movs	r1, r0
     1a0: 0100         	lsls	r0, r0, #0x4
     1a2: 1d00         	adds	r0, r0, #0x4
     1a4: 0100         	lsls	r0, r0, #0x4
     1a6: 009c         	lsls	r4, r3, #0x2
     1a8: 0000         	movs	r0, r0
     1aa: 0240         	lsls	r0, r0, #0x9
     1ac: 0000         	movs	r0, r0
     1ae: 0002         	movs	r2, r0
     1b0: 000e         	movs	r6, r1
     1b2: 0000         	movs	r0, r0
     1b4: 003c         	movs	r4, r7
     1b6: 0000         	movs	r0, r0
     1b8: 0039         	movs	r1, r7
     1ba: 0000         	movs	r0, r0
     1bc: 2c02         	cmp	r4, #0x2
     1be: 0000         	movs	r0, r0
     1c0: 0300         	lsls	r0, r0, #0xc
     1c2: 0803         	lsrs	r3, r0, #0x20
     1c4: 0401         	lsls	r1, r0, #0x10
     1c6: 0e00         	lsrs	r0, r0, #0x18
     1c8: 0000         	movs	r0, r0
     1ca: 0100         	lsls	r0, r0, #0x4
     1cc: 0457         	lsls	r7, r2, #0x11
     1ce: 3901         	subs	r1, #0x1
     1d0: 0066         	lsls	r6, r4, #0x1
     1d2: 0000         	movs	r0, r0
     1d4: 0105         	lsls	r5, r0, #0x4
     1d6: 0550         	lsls	r0, r2, #0x15
     1d8: 3901         	subs	r1, #0x1
     1da: 0066         	lsls	r6, r4, #0x1
     1dc: 0000         	movs	r0, r0
     1de: 0105         	lsls	r5, r0, #0x4
     1e0: 0651         	lsls	r1, r2, #0x19
     1e2: 3a01         	subs	r2, #0x1
     1e4: 0067         	lsls	r7, r4, #0x1
     1e6: 0000         	movs	r0, r0
     1e8: 0006         	movs	r6, r0
     1ea: 0108         	lsls	r0, r1, #0x4
     1ec: 6b3b         	ldr	r3, [r7, #0x30]
     1ee: 0000         	movs	r0, r0
     1f0: 0700         	lsls	r0, r0, #0x1c
     1f2: 0b01         	lsrs	r1, r0, #0xc
     1f4: 3d01         	subs	r5, #0x1
     1f6: 0027         	movs	r7, r4
     1f8: 0000         	movs	r0, r0
     1fa: 0800         	lsrs	r0, r0, #0x20
     1fc: 0703         	lsls	r3, r0, #0x1c
     1fe: 0405         	lsls	r5, r0, #0x10
     200: 7309         	strb	r1, [r1, #0xc]
     202: 0000         	movs	r0, r0
     204: 0a00         	lsrs	r0, r0, #0x8
     206: 1202         	asrs	r2, r0, #0x8
     208: 0903         	lsrs	r3, r0, #0x4
     20a: 0407         	lsls	r7, r0, #0x10
     20c: 00           	<unknown>

Disassembly of section .debug_abbrev:

00000000 <.debug_abbrev>:
; extern void* sbrk(ptrdiff_t increment) {
       0: 1101         	asrs	r1, r0, #0x4
       2: 2501         	movs	r5, #0x1
;     char* prev_heap_ptr = heap_ptr;
       4: 1325         	asrs	r5, r4, #0xc
       6: 0305         	lsls	r5, r0, #0xc
       8: 7225         	strb	r5, [r4, #0x8]
;     if (increment > 0) {
       a: 1017         	asrs	r7, r2, #0x20
       c: 1b17         	subs	r7, r2, r4
       e: 1125         	asrs	r5, r4, #0x4
      10: 121b         	asrs	r3, r3, #0x8
;         if (heap_ptr + increment > &__heap_end) {
      12: 7306         	strb	r6, [r0, #0xc]
      14: 0017         	movs	r7, r2
      16: 0200         	lsls	r0, r0, #0x8
      18: 0034         	movs	r4, r6
      1a: 2503         	movs	r5, #0x3
      1c: 1349         	asrs	r1, r1, #0xd
      1e: 0b3a         	lsrs	r2, r7, #0xc
      20: 0b3b         	lsrs	r3, r7, #0xc
      22: 1802         	adds	r2, r0, r0
      24: 0000         	movs	r0, r0
;             return (void*)-1;  // Return error if the heap is full
      26: 0f03         	lsrs	r3, r0, #0x1c
      28: 4900         	ldr	r1, [pc, #0x0]          @ 0x2c <.debug_info+0x2c>
;         heap_ptr += increment;
      2a: 0013         	movs	r3, r2
      2c: 0400         	lsls	r0, r0, #0x10
      2e: 0024         	movs	r4, r4
      30: 2503         	movs	r5, #0x3
      32: 0b3e         	lsrs	r6, r7, #0xc
;     }
      34: 0b0b         	lsrs	r3, r1, #0xc
;     return (void*)prev_heap_ptr;
      36: 0000         	movs	r0, r0
      38: 0f05         	lsrs	r5, r0, #0x1c
      3a: 0000         	movs	r0, r0
; }
      3c: 0600         	lsls	r0, r0, #0x18
      3e: 012e         	lsls	r6, r5, #0x4
      40: 1b11         	subs	r1, r2, r4
      42: 0612         	lsls	r2, r2, #0x18
      44: 1840         	adds	r0, r0, r1
      46: 2503         	movs	r5, #0x3
      48: 0b3a         	lsrs	r2, r7, #0xc
      4a: 0b3b         	lsrs	r3, r7, #0xc
; unsigned long long fibonacci(int n) {
      4c: 1927         	adds	r7, r4, r4
      4e: 1349         	asrs	r1, r1, #0xd
;     if (n <= 0) return 0;
      50: 193f         	adds	r7, r7, r4
      52: 0000         	movs	r0, r0
      54: 0507         	lsls	r7, r0, #0x14
      56: 0200         	lsls	r0, r0, #0x8
      58: 0318         	lsls	r0, r3, #0xc
;     if (n <= 0) return 0;
      5a: 3a25         	subs	r2, #0x25
      5c: 3b0b         	subs	r3, #0xb
      5e: 490b         	ldr	r1, [pc, #0x2c]         @ 0x8c <.debug_info+0x8c>
;     if (n == 1) return 1;
      60: 0013         	movs	r3, r2
      62: 0800         	lsrs	r0, r0, #0x20
      64: 0034         	movs	r4, r6
      66: 1802         	adds	r2, r0, r0
      68: 2503         	movs	r5, #0x3
;     if (n == 1) return 1;
      6a: 0b3a         	lsrs	r2, r7, #0xc
      6c: 0b3b         	lsrs	r3, r7, #0xc
      6e: 1349         	asrs	r1, r1, #0xd
      70: 0000         	movs	r0, r0
      72: 0b09         	lsrs	r1, r1, #0xc
;     unsigned long long a = 0, b = 1, temp;
      74: 1101         	asrs	r1, r0, #0x4
      76: 121b         	asrs	r3, r3, #0x8
      78: 0006         	movs	r6, r0
      7a: 0a00         	lsrs	r0, r0, #0x8
      7c: 012e         	lsls	r6, r5, #0x4
      7e: 1b11         	subs	r1, r2, r4
;     for (int i = 2; i <= n; ++i) {
      80: 0612         	lsls	r2, r2, #0x18
      82: 1840         	adds	r0, r0, r1
      84: 2503         	movs	r5, #0x3
      86: 0b3a         	lsrs	r2, r7, #0xc
      88: 0b3b         	lsrs	r3, r7, #0xc
      8a: 1349         	asrs	r1, r1, #0xd
      8c: 193f         	adds	r7, r7, r4
;         temp = a + b;
      8e: 0000         	movs	r0, r0
      90: 2e0b         	cmp	r6, #0xb
      92: 1101         	asrs	r1, r0, #0x4
      94: 121b         	asrs	r3, r3, #0x8
      96: 4006         	ands	r6, r0
      98: 0318         	lsls	r0, r3, #0xc
      9a: 3a25         	subs	r2, #0x25
      9c: 3b0b         	subs	r3, #0xb
;         a = b;
      9e: 270b         	movs	r7, #0xb
      a0: 0019         	movs	r1, r3
      a2: 0c00         	lsrs	r0, r0, #0x10
      a4: 0016         	movs	r6, r2
;         b = temp;
      a6: 1349         	asrs	r1, r1, #0xd
      a8: 2503         	movs	r5, #0x3
      aa: 0b3a         	lsrs	r2, r7, #0xc
      ac: 0b3b         	lsrs	r3, r7, #0xc
;     }
      ae: 0000         	movs	r0, r0
;     for (int i = 2; i <= n; ++i) {
      b0: 010d         	lsls	r5, r1, #0x4
      b2: 4901         	ldr	r1, [pc, #0x4]          @ 0xb8 <.debug_info+0xb8>
      b4: 0013         	movs	r3, r2
      b6: 0e00         	lsrs	r0, r0, #0x18
;     return b;
      b8: 0021         	movs	r1, r4
      ba: 1349         	asrs	r1, r1, #0xd
      bc: 0b37         	lsrs	r7, r6, #0xc
      be: 0000         	movs	r0, r0
      c0: 240f         	movs	r4, #0xf
; }
      c2: 0300         	lsls	r0, r0, #0xc
      c4: 0b25         	lsrs	r5, r4, #0xc
      c6: 3e0b         	subs	r6, #0xb
      c8: 000b         	movs	r3, r1
; int main() {
      ca: 0000         	movs	r0, r0
      cc: 1101         	asrs	r1, r0, #0x4
      ce: 2501         	movs	r5, #0x1
      d0: 1325         	asrs	r5, r4, #0xc
      d2: 0305         	lsls	r5, r0, #0xc
      d4: 7225         	strb	r5, [r4, #0x8]
      d6: 1017         	asrs	r7, r2, #0x20
      d8: 1b17         	subs	r7, r2, r4
      da: 1125         	asrs	r5, r4, #0x4
;     unsigned arr[N] = {0};
      dc: 121b         	asrs	r3, r3, #0x8
      de: 7306         	strb	r6, [r0, #0xc]
      e0: 8c17         	ldrh	r7, [r2, #0x20]
;     for (unsigned i = 0; i < N; i++) {
      e2: 1701         	asrs	r1, r0, #0x1c
      e4: 0000         	movs	r0, r0
      e6: 2e02         	cmp	r6, #0x2
      e8: 1101         	asrs	r1, r0, #0x4
      ea: 121b         	asrs	r3, r3, #0x8
      ec: 4006         	ands	r6, r0
;         arr[i] = fibonacci(i + 1);
      ee: 7a18         	ldrb	r0, [r3, #0x8]
      f0: 0319         	lsls	r1, r3, #0xc
      f2: 3a25         	subs	r2, #0x25
      f4: 3b0b         	subs	r3, #0xb
      f6: 270b         	movs	r7, #0xb
      f8: 3f19         	subs	r7, #0x19
      fa: 0019         	movs	r1, r3
      fc: 0300         	lsls	r0, r0, #0xc
;     }
      fe: 0005         	movs	r5, r0
;     for (unsigned i = 0; i < N; i++) {
     100: 2202         	movs	r2, #0x2
     102: 2503         	movs	r5, #0x3
     104: 0b3a         	lsrs	r2, r7, #0xc
     106: 0b3b         	lsrs	r3, r7, #0xc
;     svc_putint(arr[N - 1]);
     108: 1349         	asrs	r1, r1, #0xd
     10a: 0000         	movs	r0, r0
     10c: 0f04         	lsrs	r4, r0, #0x1c
     10e: 0000         	movs	r0, r0
;     svc_exit(0);
     110: 0500         	lsls	r0, r0, #0x14
     112: 0016         	movs	r6, r2
; }
     114: 1349         	asrs	r1, r1, #0xd
     116: 2503         	movs	r5, #0x3
     118: 0b3a         	lsrs	r2, r7, #0xc
; static inline void svc_putint(int n) {
     11a: 0b3b         	lsrs	r3, r7, #0xc
     11c: 0000         	movs	r0, r0
;      register int r0 __asm__("r0") = n;
     11e: 2406         	movs	r4, #0x6
     120: 0300         	lsls	r0, r0, #0xc
;      __asm volatile ("svc 3" :  : "r"(r0) : "memory");
     122: 3e25         	subs	r6, #0x25
     124: 0b0b         	lsrs	r3, r1, #0xc
; }
     126: 000b         	movs	r3, r1
     128: 0000         	movs	r0, r0
; static inline void svc_exit(unsigned code) {
     12a: 1101         	asrs	r1, r0, #0x4
     12c: 2501         	movs	r5, #0x1
;     register unsigned r0 __asm__("r0") = code;
     12e: 1325         	asrs	r5, r4, #0xc
     130: 0305         	lsls	r5, r0, #0xc
;     __asm volatile ("svc 0" :  : "r"(r0) : "memory");
     132: 7225         	strb	r5, [r4, #0x8]
     134: 1017         	asrs	r7, r2, #0x20
; };
     136: 1b17         	subs	r7, r2, r4
     138: 1125         	asrs	r5, r4, #0x4
     13a: 121b         	asrs	r3, r3, #0x8
     13c: 7306         	strb	r6, [r0, #0xc]
     13e: 8c17         	ldrh	r7, [r2, #0x20]
     140: 1701         	asrs	r1, r0, #0x1c
     142: 0000         	movs	r0, r0
     144: 0f02         	lsrs	r2, r0, #0x1c
     146: 4900         	ldr	r1, [pc, #0x0]          @ 0x148 <.debug_info+0x148>
     148: 0013         	movs	r3, r2
     14a: 0300         	lsls	r0, r0, #0xc
     14c: 0024         	movs	r4, r4
     14e: 2503         	movs	r5, #0x3
     150: 0b3e         	lsrs	r6, r7, #0xc
     152: 0b0b         	lsrs	r3, r1, #0xc
     154: 0000         	movs	r0, r0
     156: 2e04         	cmp	r6, #0x4
     158: 1101         	asrs	r1, r0, #0x4
     15a: 121b         	asrs	r3, r3, #0x8
     15c: 4006         	ands	r6, r0
     15e: 7a18         	ldrb	r0, [r3, #0x8]
     160: 0319         	lsls	r1, r3, #0xc
     162: 3a25         	subs	r2, #0x25
     164: 3b0b         	subs	r3, #0xb
     166: 270b         	movs	r7, #0xb
     168: 4919         	ldr	r1, [pc, #0x64]         @ 0x1d0 <.debug_info+0x1d0>
     16a: 3f13         	subs	r7, #0x13
     16c: 0019         	movs	r1, r3
     16e: 0500         	lsls	r0, r0, #0x14
     170: 0005         	movs	r5, r0
     172: 1802         	adds	r2, r0, r0
     174: 2503         	movs	r5, #0x3
     176: 0b3a         	lsrs	r2, r7, #0xc
     178: 0b3b         	lsrs	r3, r7, #0xc
     17a: 1349         	asrs	r1, r1, #0xd
     17c: 0000         	movs	r0, r0
     17e: 0506         	lsls	r6, r0, #0x14
     180: 0200         	lsls	r0, r0, #0x8
     182: 0322         	lsls	r2, r4, #0xc
     184: 3a25         	subs	r2, #0x25
     186: 3b0b         	subs	r3, #0xb
     188: 490b         	ldr	r1, [pc, #0x2c]         @ 0x1b8 <.debug_info+0x1b8>
     18a: 0013         	movs	r3, r2
     18c: 0700         	lsls	r0, r0, #0x1c
     18e: 0034         	movs	r4, r6
     190: 2202         	movs	r2, #0x2
     192: 2503         	movs	r5, #0x3
     194: 0b3a         	lsrs	r2, r7, #0xc
     196: 0b3b         	lsrs	r3, r7, #0xc
     198: 1349         	asrs	r1, r1, #0xd
     19a: 0000         	movs	r0, r0
     19c: 0f08         	lsrs	r0, r1, #0x1c
     19e: 0000         	movs	r0, r0
     1a0: 0900         	lsrs	r0, r0, #0x4
     1a2: 0016         	movs	r6, r2
     1a4: 1349         	asrs	r1, r1, #0xd
     1a6: 2503         	movs	r5, #0x3
     1a8: 0b3a         	lsrs	r2, r7, #0xc
     1aa: 0b3b         	lsrs	r3, r7, #0xc
     1ac: 0000         	movs	r0, r0
     1ae: 00           	<unknown>

Disassembly of section .debug_line:

00000000 <.debug_line>:
; extern void* sbrk(ptrdiff_t increment) {
       0: 01b0         	lsls	r0, r6, #0x6
       2: 0000         	movs	r0, r0
;     char* prev_heap_ptr = heap_ptr;
       4: 0005         	movs	r5, r0
       6: 0004         	movs	r4, r0
       8: 0069         	lsls	r1, r5, #0x1
;     if (increment > 0) {
       a: 0000         	movs	r0, r0
       c: 0101         	lsls	r1, r0, #0x4
       e: fb01 0d0e    	<unknown>
;         if (heap_ptr + increment > &__heap_end) {
      12: 0100         	lsls	r0, r0, #0x4
      14: 0101         	lsls	r1, r0, #0x4
      16: 0001         	movs	r1, r0
      18: 0000         	movs	r0, r0
      1a: 0001         	movs	r1, r0
      1c: 0100         	lsls	r0, r0, #0x4
      1e: 0101         	lsls	r1, r0, #0x4
      20: 031f         	lsls	r7, r3, #0xc
      22: 0051         	lsls	r1, r2, #0x1
      24: 0000         	movs	r0, r0
;             return (void*)-1;  // Return error if the heap is full
      26: 006a         	lsls	r2, r5, #0x1
      28: 0000         	movs	r0, r0
;         heap_ptr += increment;
      2a: 0019         	movs	r1, r3
      2c: 0000         	movs	r0, r0
      2e: 0103         	lsls	r3, r0, #0x4
      30: 021f         	lsls	r7, r3, #0x8
      32: 050f         	lsls	r7, r1, #0x14
;     }
      34: 031e         	lsls	r6, r3, #0xc
;     return (void*)prev_heap_ptr;
      36: 0008         	movs	r0, r1
      38: 0000         	movs	r0, r0
      3a: 5500         	strb	r0, [r0, r4]
; }
      3c: d0e9         	beq	0x12 <.debug_line+0x12> @ imm = #-0x2e
      3e: ef14 e3f9    	<unknown>
      42: 14fb         	asrs	r3, r7, #0x13
      44: 4a96         	ldr	r2, [pc, #0x258]        @ 0x2a0 <.debug_line+0x2a0>
      46: 9e88         	ldr	r6, [sp, #0x220]
      48: de7a         	udf	#0x7a
      4a: 63d9         	str	r1, [r3, #0x3c]
; unsigned long long fibonacci(int n) {
      4c: 0002         	movs	r2, r0
      4e: 0100         	lsls	r0, r0, #0x4
;     if (n <= 0) return 0;
      50: 9c5b         	ldr	r4, [sp, #0x16c]
      52: 2155         	movs	r1, #0x55
      54: e3d5         	b	0x802 <.debug_line+0x802> @ imm = #0x7aa
      56: a127         	adr	r1, #156 <.debug_line+0x81>
      58: a52a         	adr	r5, #168 <.debug_line+0x86>
;     if (n <= 0) return 0;
      5a: 8fab         	ldrh	r3, [r5, #0x3c]
      5c: b551         	push	{r0, r4, r6, lr}
      5e: 7e63         	ldrb	r3, [r4, #0x19]
;     if (n == 1) return 1;
      60: 0110         	lsls	r0, r2, #0x4
      62: 0000         	movs	r0, r0
      64: 2102         	movs	r1, #0x2
      66: c4e0         	stm	r4!, {r5, r6, r7}
      68: 330f         	adds	r3, #0xf
;     if (n == 1) return 1;
      6a: 7915         	ldrb	r5, [r2, #0x4]
      6c: 917d         	str	r1, [sp, #0x1f4]
      6e: c75c         	stm	r7!, {r2, r3, r4, r6}
      70: 60ea         	str	r2, [r5, #0xc]
      72: 0a04         	lsrs	r4, r0, #0x8
;     unsigned long long a = 0, b = 1, temp;
      74: 0098         	lsls	r0, r3, #0x2
      76: 0205         	lsls	r5, r0, #0x8
      78: 0000         	movs	r0, r0
      7a: 0000         	movs	r0, r0
      7c: 1903         	adds	r3, r0, r4
      7e: 0501         	lsls	r1, r0, #0x14
;     for (int i = 2; i <= n; ++i) {
      80: 0a1b         	lsrs	r3, r3, #0x8
      82: 054b         	lsls	r3, r1, #0x15
      84: 060b         	lsls	r3, r1, #0x18
      86: 054a         	lsls	r2, r1, #0x15
      88: 0609         	lsls	r1, r1, #0x18
      8a: 0631         	lsls	r1, r6, #0x18
      8c: 052e         	lsls	r6, r5, #0x14
;         temp = a + b;
      8e: 060d         	lsls	r5, r1, #0x18
      90: 0568         	lsls	r0, r5, #0x15
      92: 0618         	lsls	r0, r3, #0x18
      94: 054a         	lsls	r2, r1, #0x15
      96: 2e16         	cmp	r6, #0x16
      98: 2205         	movs	r2, #0x5
      9a: 052e         	lsls	r6, r5, #0x14
      9c: 2e0d         	cmp	r6, #0xd
;         a = b;
      9e: 6003         	str	r3, [r0]
      a0: 0666         	lsls	r6, r4, #0x19
      a2: 2103         	movs	r1, #0x3
      a4: 054a         	lsls	r2, r1, #0x15
;         b = temp;
      a6: 4e15         	ldr	r6, [pc, #0x54]         @ 0xfc <.debug_line+0xfc>
      a8: 1205         	asrs	r5, r0, #0x8
      aa: 2e06         	cmp	r6, #0x6
      ac: 0505         	lsls	r5, r0, #0x14
;     }
      ae: 8306         	strh	r6, [r0, #0x18]
;     for (int i = 2; i <= n; ++i) {
      b0: 1305         	asrs	r5, r0, #0xc
      b2: 0531         	lsls	r1, r6, #0x14
      b4: 0605         	lsls	r5, r0, #0x18
      b6: 052e         	lsls	r6, r5, #0x14
;     return b;
      b8: 0601         	lsls	r1, r0, #0x18
      ba: 064b         	lsls	r3, r1, #0x19
      bc: 2e0b         	cmp	r6, #0xb
      be: 5603         	ldrsb	r3, [r0, r0]
      c0: 0466         	lsls	r6, r4, #0x11
; }
      c2: 0500         	lsls	r0, r0, #0x14
      c4: 0600         	lsls	r0, r0, #0x18
      c6: 0587         	lsls	r7, r0, #0x16
      c8: 0a09         	lsrs	r1, r1, #0x8
; int main() {
      ca: 064b         	lsls	r3, r1, #0x19
      cc: 032e         	lsls	r6, r5, #0xc
      ce: 667a         	str	r2, [r7, #0x64]
      d0: 1105         	asrs	r5, r0, #0x4
      d2: 0534         	lsls	r4, r6, #0x14
      d4: 0609         	lsls	r1, r1, #0x18
      d6: 0667         	lsls	r7, r4, #0x19
      d8: 032e         	lsls	r6, r5, #0xc
      da: 6679         	str	r1, [r7, #0x64]
;     unsigned arr[N] = {0};
      dc: 1105         	asrs	r5, r0, #0x4
      de: 0335         	lsls	r5, r6, #0xc
      e0: 8279         	strh	r1, [r7, #0x12]
;     for (unsigned i = 0; i < N; i++) {
      e2: 1805         	adds	r5, r0, r0
      e4: 0306         	lsls	r6, r0, #0xc
      e6: 2e09         	cmp	r6, #0x9
      e8: 1f05         	subs	r5, r0, #0x4
      ea: 4a06         	ldr	r2, [pc, #0x18]         @ 0x104 <.debug_line+0x104>
      ec: 0e05         	lsrs	r5, r0, #0x18
;         arr[i] = fibonacci(i + 1);
      ee: 8306         	strh	r6, [r0, #0x18]
      f0: 0a05         	lsrs	r5, r0, #0x8
      f2: 2e06         	cmp	r6, #0x6
      f4: 1505         	asrs	r5, r0, #0x14
      f6: 052e         	lsls	r6, r5, #0x14
      f8: 2e1a         	cmp	r6, #0x1a
      fa: 0505         	lsls	r5, r0, #0x14
      fc: 052e         	lsls	r6, r5, #0x14
;     }
      fe: 0610         	lsls	r0, r2, #0x18
;     for (unsigned i = 0; i < N; i++) {
     100: 0567         	lsls	r7, r4, #0x15
     102: 0614         	lsls	r4, r2, #0x18
     104: 054a         	lsls	r2, r1, #0x15
     106: 4a12         	ldr	r2, [pc, #0x48]         @ 0x150 <.debug_line+0x150>
;     svc_putint(arr[N - 1]);
     108: 0e05         	lsrs	r5, r0, #0x18
     10a: 054a         	lsls	r2, r1, #0x15
     10c: 060d         	lsls	r5, r1, #0x18
     10e: 054b         	lsls	r3, r1, #0x15
;     svc_exit(0);
     110: 060b         	lsls	r3, r1, #0x18
     112: 054a         	lsls	r2, r1, #0x15
; }
     114: 060d         	lsls	r5, r1, #0x18
     116: 054b         	lsls	r3, r1, #0x15
     118: 060b         	lsls	r3, r1, #0x18
; static inline void svc_putint(int n) {
     11a: 054a         	lsls	r2, r1, #0x15
     11c: 0605         	lsls	r5, r0, #0x18
;      register int r0 __asm__("r0") = n;
     11e: 054b         	lsls	r3, r1, #0x15
     120: 2a1d         	cmp	r2, #0x1d
;      __asm volatile ("svc 3" :  : "r"(r0) : "memory");
     122: 0505         	lsls	r5, r0, #0x14
     124: 6606         	str	r6, [r0, #0x60]
; }
     126: 0c05         	lsrs	r5, r0, #0x10
     128: 3306         	adds	r3, #0x6
; static inline void svc_exit(unsigned code) {
     12a: 0505         	lsls	r5, r0, #0x14
     12c: 4a06         	ldr	r2, [pc, #0x18]         @ 0x148 <.debug_line+0x148>
;     register unsigned r0 __asm__("r0") = code;
     12e: 0105         	lsls	r5, r0, #0x4
     130: 6706         	str	r6, [r0, #0x70]
;     __asm volatile ("svc 0" :  : "r"(r0) : "memory");
     132: 0b06         	lsrs	r6, r0, #0xc
     134: 054a         	lsls	r2, r1, #0x15
; };
     136: 0600         	lsls	r0, r0, #0x18
     138: 054c         	lsls	r4, r1, #0x15
     13a: 0a0e         	lsrs	r6, r1, #0x8
     13c: 2108         	movs	r1, #0x8
     13e: 1305         	asrs	r5, r0, #0xc
     140: 0567         	lsls	r7, r4, #0x15
     142: 060a         	lsls	r2, r1, #0x18
     144: 052e         	lsls	r6, r5, #0x14
     146: 2e1a         	cmp	r6, #0x1a
     148: 0505         	lsls	r5, r0, #0x14
     14a: 052e         	lsls	r6, r5, #0x14
     14c: 061c         	lsls	r4, r3, #0x18
     14e: 0567         	lsls	r7, r4, #0x15
     150: 061e         	lsls	r6, r3, #0x18
     152: 052e         	lsls	r6, r5, #0x14
     154: 2e12         	cmp	r6, #0x12
     156: 0d05         	lsrs	r5, r0, #0x14
     158: 054a         	lsls	r2, r1, #0x15
     15a: 2e09         	cmp	r6, #0x9
     15c: 1005         	asrs	r5, r0, #0x20
     15e: 054a         	lsls	r2, r1, #0x15
     160: 0605         	lsls	r5, r0, #0x18
     162: 052f         	lsls	r7, r5, #0x14
     164: 2c22         	cmp	r4, #0x22
     166: 0505         	lsls	r5, r0, #0x14
     168: 6606         	str	r6, [r0, #0x60]
     16a: 1005         	asrs	r5, r0, #0x20
     16c: 3206         	adds	r2, #0x6
     16e: 0505         	lsls	r5, r0, #0x14
     170: 2e06         	cmp	r6, #0x6
     172: 6706         	str	r6, [r0, #0x70]
     174: 0105         	lsls	r5, r0, #0x4
     176: 064b         	lsls	r3, r1, #0x19
     178: 2e0b         	cmp	r6, #0xb
     17a: 0104         	lsls	r4, r0, #0x4
     17c: 0005         	movs	r5, r0
     17e: 4506         	cmp	r6, r0
     180: 2605         	movs	r6, #0x5
     182: 4b0a         	ldr	r3, [pc, #0x28]         @ 0x1ac <.debug_line+0x1ac>
     184: 1305         	asrs	r5, r0, #0xc
     186: 2e06         	cmp	r6, #0x6
     188: 2705         	movs	r7, #0x5
     18a: 2f06         	cmp	r7, #0x6
     18c: 0605         	lsls	r5, r0, #0x18
     18e: 2e06         	cmp	r6, #0x6
     190: 0105         	lsls	r5, r0, #0x4
     192: 0b06         	lsrs	r6, r0, #0xc
     194: 052f         	lsls	r7, r5, #0x14
     196: 0300         	lsls	r0, r0, #0xc
     198: 4a73         	ldr	r2, [pc, #0x1cc]        @ 0x368 <.debug_line+0x368>
     19a: 2a05         	cmp	r2, #0x5
     19c: 4b0a         	ldr	r3, [pc, #0x28]         @ 0x1c8 <.debug_line+0x1c8>
     19e: 1705         	asrs	r5, r0, #0x1c
     1a0: 2e06         	cmp	r6, #0x6
     1a2: 2605         	movs	r6, #0x5
     1a4: 2f06         	cmp	r7, #0x6
     1a6: 0505         	lsls	r5, r0, #0x14
     1a8: 2e06         	cmp	r6, #0x6
     1aa: 0105         	lsls	r5, r0, #0x4
     1ac: 0b06         	lsrs	r6, r0, #0xc
     1ae: 022f         	lsls	r7, r5, #0x8
     1b0: 0004         	movs	r4, r0
     1b2: 0101         	lsls	r1, r0, #0x4
     1b4: 0088         	lsls	r0, r1, #0x2
     1b6: 0000         	movs	r0, r0
     1b8: 0005         	movs	r5, r0
     1ba: 0004         	movs	r4, r0
     1bc: 0069         	lsls	r1, r5, #0x1
     1be: 0000         	movs	r0, r0
     1c0: 0101         	lsls	r1, r0, #0x4
     1c2: fb01 0d0e    	<unknown>
     1c6: 0100         	lsls	r0, r0, #0x4
     1c8: 0101         	lsls	r1, r0, #0x4
     1ca: 0001         	movs	r1, r0
     1cc: 0000         	movs	r0, r0
     1ce: 0001         	movs	r1, r0
     1d0: 0100         	lsls	r0, r0, #0x4
     1d2: 0101         	lsls	r1, r0, #0x4
     1d4: 031f         	lsls	r7, r3, #0xc
     1d6: 01ca         	lsls	r2, r1, #0x7
     1d8: 0000         	movs	r0, r0
     1da: 014d         	lsls	r5, r1, #0x5
     1dc: 0000         	movs	r0, r0
     1de: 008a         	lsls	r2, r1, #0x2
     1e0: 0000         	movs	r0, r0
     1e2: 0103         	lsls	r3, r0, #0x4
     1e4: 021f         	lsls	r7, r3, #0x8
     1e6: 050f         	lsls	r7, r1, #0x14
     1e8: 031e         	lsls	r6, r3, #0xc
     1ea: 018e         	lsls	r6, r1, #0x6
     1ec: 0000         	movs	r0, r0
     1ee: e000         	b	0x1f2 <.debug_line+0x1f2> @ imm = #0x0
     1f0: 8283         	strh	r3, [r0, #0x14]
     1f2: 7ef3         	ldrb	r3, [r6, #0x1b]
     1f4: 0b5f         	lsrs	r7, r3, #0xd
     1f6: 5ab0         	ldrh	r0, [r6, r2]
     1f8: 9591         	str	r5, [sp, #0x244]
     1fa: 1213         	asrs	r3, r2, #0x8
     1fc: 0325         	lsls	r5, r4, #0xc
     1fe: 00e0         	lsls	r0, r4, #0x3
     200: 0000         	movs	r0, r0
     202: 0100         	lsls	r0, r0, #0x4
     204: 3f9d         	subs	r7, #0x9d
     206: 8f23         	ldrh	r3, [r4, #0x38]
     208: 4fc4         	ldr	r7, [pc, #0x310]        @ 0x51c <.debug_line+0x51c>
     20a: bbfe         	<unknown>
     20c: 3940         	subs	r1, #0x40
     20e: 9002         	str	r0, [sp, #0x8]
     210: ae6a         	add	r6, sp, #0x1a8
     212: 74b9         	strb	r1, [r7, #0x12]
     214: 0025         	movs	r5, r4
     216: 0000         	movs	r0, r0
     218: 2c02         	cmp	r4, #0x2
     21a: e844 a221    	<unknown>
     21e: 95b1         	str	r5, [sp, #0x2c4]
     220: de1c         	udf	#0x1c
     222: b02e         	add	sp, #0xb8
     224: 2efb         	cmp	r6, #0xfb
     226: 6865         	ldr	r5, [r4, #0x4]
     228: 0067         	lsls	r7, r4, #0x1
     22a: 0205         	lsls	r5, r0, #0x8
     22c: 013c         	lsls	r4, r7, #0x4
     22e: 0000         	movs	r0, r0
     230: 3103         	adds	r1, #0x3
     232: 0501         	lsls	r1, r0, #0x14
     234: 0a02         	lsrs	r2, r0, #0x8
     236: 0583         	lsls	r3, r0, #0x16
     238: 0b01         	lsrs	r1, r0, #0xc
     23a: 024b         	lsls	r3, r1, #0x9
     23c: 0002         	movs	r2, r0
     23e: 0101         	lsls	r1, r0, #0x4
     240: 008d         	lsls	r5, r1, #0x2
     242: 0000         	movs	r0, r0
     244: 0005         	movs	r5, r0
     246: 0004         	movs	r4, r0
     248: 0069         	lsls	r1, r5, #0x1
     24a: 0000         	movs	r0, r0
     24c: 0101         	lsls	r1, r0, #0x4
     24e: fb01 0d0e    	<unknown>
     252: 0100         	lsls	r0, r0, #0x4
     254: 0101         	lsls	r1, r0, #0x4
     256: 0001         	movs	r1, r0
     258: 0000         	movs	r0, r0
     25a: 0001         	movs	r1, r0
     25c: 0100         	lsls	r0, r0, #0x4
     25e: 0101         	lsls	r1, r0, #0x4
     260: 031f         	lsls	r7, r3, #0xc
     262: 01ca         	lsls	r2, r1, #0x7
     264: 0000         	movs	r0, r0
     266: 014d         	lsls	r5, r1, #0x5
     268: 0000         	movs	r0, r0
     26a: 008a         	lsls	r2, r1, #0x2
     26c: 0000         	movs	r0, r0
     26e: 0103         	lsls	r3, r0, #0x4
     270: 021f         	lsls	r7, r3, #0x8
     272: 050f         	lsls	r7, r1, #0x14
     274: 031e         	lsls	r6, r3, #0xc
     276: 00d3         	lsls	r3, r2, #0x3
     278: 0000         	movs	r0, r0
     27a: 9c00         	ldr	r4, [sp]
     27c: c7f5         	stm	r7!, {r0, r2, r4, r5, r6, r7}
     27e: fd87 f13b    	<unknown>
     282: 1117         	asrs	r7, r2, #0x4
     284: 9b76         	ldr	r3, [sp, #0x1d8]
     286: bd7c         	pop	{r2, r3, r4, r5, r6, pc}
     288: c786         	stm	r7!, {r1, r2, r7}
     28a: 812e         	strh	r6, [r5, #0x8]
     28c: 0000         	movs	r0, r0
     28e: 0100         	lsls	r0, r0, #0x4
     290: 8f50         	ldrh	r0, [r2, #0x3a]
     292: a569         	adr	r5, #420 <.debug_line+0x2ff>
     294: 5250         	strh	r0, [r2, r1]
     296: ee0c 866b    	<unknown>
     29a: e373         	b	0x984 <.debug_line+0x984> @ imm = #0x6e6
     29c: 95a1         	str	r5, [sp, #0x284]
     29e: 13fd         	asrs	r5, r7, #0xf
     2a0: 0025         	movs	r5, r4
     2a2: 0000         	movs	r0, r0
     2a4: 2c02         	cmp	r4, #0x2
     2a6: e844 a221    	<unknown>
     2aa: 95b1         	str	r5, [sp, #0x2c4]
     2ac: de1c         	udf	#0x1c
     2ae: b02e         	add	sp, #0xb8
     2b0: 2efb         	cmp	r6, #0xfb
     2b2: 6865         	ldr	r5, [r4, #0x4]
     2b4: 0067         	lsls	r7, r4, #0x1
     2b6: 0205         	lsls	r5, r0, #0x8
     2b8: 014c         	lsls	r4, r1, #0x5
     2ba: 0000         	movs	r0, r0
     2bc: 3b03         	subs	r3, #0x3
     2be: 0501         	lsls	r1, r0, #0x14
     2c0: 0a03         	lsrs	r3, r0, #0x8
     2c2: 3303         	adds	r3, #0x3
     2c4: 052e         	lsls	r6, r5, #0x14
     2c6: 4b0a         	ldr	r3, [pc, #0x28]         @ 0x2f0 <.debug_line+0x2f0>
     2c8: 0305         	lsls	r5, r0, #0xc
     2ca: 4d2d         	ldr	r5, [pc, #0xb4]         @ 0x380 <.debug_line+0x380>
     2cc: 0202         	lsls	r2, r0, #0x8
     2ce: 0100         	lsls	r0, r0, #0x4
     2d0: 01           	<unknown>

Disassembly of section .debug_frame:

00000000 <.debug_frame>:
; extern void* sbrk(ptrdiff_t increment) {
       0: 0010         	movs	r0, r2
       2: 0000         	movs	r0, r0
;     char* prev_heap_ptr = heap_ptr;
       4: ffff ffff    	<unknown>
       8: 0004         	movs	r4, r0
;     if (increment > 0) {
       a: 0004         	movs	r4, r0
       c: 7c01         	ldrb	r1, [r0, #0x10]
       e: 0c0e         	lsrs	r6, r1, #0x10
      10: 000d         	movs	r5, r1
;         if (heap_ptr + increment > &__heap_end) {
      12: 0000         	movs	r0, r0
      14: 0010         	movs	r0, r2
		...
      1e: 0000         	movs	r0, r0
      20: 004c         	lsls	r4, r1, #0x1
      22: 0000         	movs	r0, r0
      24: 0e42         	lsrs	r2, r0, #0x19
;             return (void*)-1;  // Return error if the heap is full
      26: 000c         	movs	r4, r1
      28: 0010         	movs	r0, r2
;         heap_ptr += increment;
      2a: 0000         	movs	r0, r0
      2c: 0000         	movs	r0, r0
      2e: 0000         	movs	r0, r0
      30: 004c         	lsls	r4, r1, #0x1
      32: 0000         	movs	r0, r0
;     }
      34: 007e         	lsls	r6, r7, #0x1
;     return (void*)prev_heap_ptr;
      36: 0000         	movs	r0, r0
      38: 0e42         	lsrs	r2, r0, #0x19
      3a: 0030         	movs	r0, r6
; }
      3c: 0018         	movs	r0, r3
      3e: 0000         	movs	r0, r0
      40: 0000         	movs	r0, r0
      42: 0000         	movs	r0, r0
      44: 00ca         	lsls	r2, r1, #0x3
      46: 0000         	movs	r0, r0
      48: 0050         	lsls	r0, r2, #0x1
      4a: 0000         	movs	r0, r0
; unsigned long long fibonacci(int n) {
      4c: 0e42         	lsrs	r2, r0, #0x19
      4e: 8e08         	ldrh	r0, [r1, #0x30]
;     if (n <= 0) return 0;
      50: 8701         	strh	r1, [r0, #0x38]
      52: 4202         	tst	r2, r0
      54: 070d         	lsls	r5, r1, #0x1c
      56: 0000         	movs	r0, r0
      58: 0010         	movs	r0, r2
;     if (n <= 0) return 0;
      5a: 0000         	movs	r0, r0
      5c: 0000         	movs	r0, r0
      5e: 0000         	movs	r0, r0
;     if (n == 1) return 1;
      60: 011a         	lsls	r2, r3, #0x4
      62: 0000         	movs	r0, r0
      64: 0010         	movs	r0, r2
      66: 0000         	movs	r0, r0
      68: 0e42         	lsrs	r2, r0, #0x19
;     if (n == 1) return 1;
      6a: 0008         	movs	r0, r1
      6c: 0010         	movs	r0, r2
      6e: 0000         	movs	r0, r0
      70: 0000         	movs	r0, r0
      72: 0000         	movs	r0, r0
;     unsigned long long a = 0, b = 1, temp;
      74: 012a         	lsls	r2, r5, #0x4
      76: 0000         	movs	r0, r0
      78: 0010         	movs	r0, r2
      7a: 0000         	movs	r0, r0
      7c: 0e42         	lsrs	r2, r0, #0x19
      7e: 0008         	movs	r0, r1
;     for (int i = 2; i <= n; ++i) {
      80: 0010         	movs	r0, r2
      82: 0000         	movs	r0, r0
      84: ffff ffff    	<unknown>
      88: 0004         	movs	r4, r0
      8a: 0004         	movs	r4, r0
      8c: 7c01         	ldrb	r1, [r0, #0x10]
;         temp = a + b;
      8e: 0c0e         	lsrs	r6, r1, #0x10
      90: 000d         	movs	r5, r1
      92: 0000         	movs	r0, r0
      94: 0018         	movs	r0, r3
      96: 0000         	movs	r0, r0
      98: 0080         	lsls	r0, r0, #0x2
      9a: 0000         	movs	r0, r0
      9c: 013c         	lsls	r4, r7, #0x4
;         a = b;
      9e: 0000         	movs	r0, r0
      a0: 000e         	movs	r6, r1
      a2: 0000         	movs	r0, r0
      a4: 0e42         	lsrs	r2, r0, #0x19
;         b = temp;
      a6: 8e08         	ldrh	r0, [r1, #0x30]
      a8: 8701         	strh	r1, [r0, #0x38]
      aa: 4202         	tst	r2, r0
      ac: 070d         	lsls	r5, r1, #0x1c
;     }
      ae: 0000         	movs	r0, r0
;     for (int i = 2; i <= n; ++i) {
      b0: 0010         	movs	r0, r2
      b2: 0000         	movs	r0, r0
      b4: ffff ffff    	<unknown>
;     return b;
      b8: 0004         	movs	r4, r0
      ba: 0004         	movs	r4, r0
      bc: 7c01         	ldrb	r1, [r0, #0x10]
      be: 0c0e         	lsrs	r6, r1, #0x10
      c0: 000d         	movs	r5, r1
; }
      c2: 0000         	movs	r0, r0
      c4: 000c         	movs	r4, r1
      c6: 0000         	movs	r0, r0
      c8: 00b0         	lsls	r0, r6, #0x2
; int main() {
      ca: 0000         	movs	r0, r0
      cc: 014c         	lsls	r4, r1, #0x5
      ce: 0000         	movs	r0, r0
      d0: 000e         	movs	r6, r1
      d2: 0000         	movs	r0, r0

Disassembly of section .debug_str:

00000000 <.debug_str>:
; extern void* sbrk(ptrdiff_t increment) {
       0: 6e75         	ldr	r5, [r6, #0x64]
       2: 6973         	ldr	r3, [r6, #0x14]
;     char* prev_heap_ptr = heap_ptr;
       4: 6e67         	ldr	r7, [r4, #0x64]
       6: 6465         	str	r5, [r4, #0x44]
       8: 6c20         	ldr	r0, [r4, #0x40]
;     if (increment > 0) {
       a: 6e6f         	ldr	r7, [r5, #0x64]
       c: 2067         	movs	r0, #0x67
       e: 6f6c         	ldr	r4, [r5, #0x74]
      10: 676e         	str	r6, [r5, #0x74]
;         if (heap_ptr + increment > &__heap_end) {
      12: 6900         	ldr	r0, [r0, #0x10]
      14: 636e         	str	r6, [r5, #0x34]
      16: 6572         	str	r2, [r6, #0x54]
      18: 656d         	str	r5, [r5, #0x54]
      1a: 746e         	strb	r6, [r5, #0x11]
      1c: 6900         	ldr	r0, [r0, #0x10]
      1e: 6100         	str	r0, [r0, #0x10]
      20: 6300         	str	r0, [r0, #0x30]
      22: 646f         	str	r7, [r5, #0x44]
      24: 0065         	lsls	r5, r4, #0x1
;             return (void*)-1;  // Return error if the heap is full
      26: 7470         	strb	r0, [r6, #0x11]
      28: 6472         	str	r2, [r6, #0x44]
;         heap_ptr += increment;
      2a: 6669         	str	r1, [r5, #0x64]
      2c: 5f66         	ldrsh	r6, [r4, r5]
      2e: 0074         	lsls	r4, r6, #0x1
      30: 006e         	lsls	r6, r5, #0x1
      32: 6562         	str	r2, [r4, #0x54]
;     }
      34: 636e         	str	r6, [r5, #0x34]
;     return (void*)prev_heap_ptr;
      36: 6d68         	ldr	r0, [r5, #0x54]
      38: 7261         	strb	r1, [r4, #0x9]
      3a: 736b         	strb	r3, [r5, #0xd]
; }
      3c: 662f         	str	r7, [r5, #0x60]
      3e: 6269         	str	r1, [r5, #0x24]
      40: 632e         	str	r6, [r5, #0x30]
      42: 7300         	strb	r0, [r0, #0xc]
      44: 7a69         	ldrb	r1, [r5, #0x9]
      46: 5f65         	ldrsh	r5, [r4, r5]
      48: 0074         	lsls	r4, r6, #0x1
      4a: 6c63         	ldr	r3, [r4, #0x44]
; unsigned long long fibonacci(int n) {
      4c: 6e61         	ldr	r1, [r4, #0x64]
      4e: 2067         	movs	r0, #0x67
;     if (n <= 0) return 0;
      50: 6576         	str	r6, [r6, #0x54]
      52: 7372         	strb	r2, [r6, #0xd]
      54: 6f69         	ldr	r1, [r5, #0x74]
      56: 206e         	movs	r0, #0x6e
      58: 3931         	subs	r1, #0x31
;     if (n <= 0) return 0;
      5a: 312e         	adds	r1, #0x2e
      5c: 352e         	adds	r5, #0x2e
      5e: 7000         	strb	r0, [r0]
;     if (n == 1) return 1;
      60: 6572         	str	r2, [r6, #0x54]
      62: 5f76         	ldrsh	r6, [r6, r5]
      64: 6568         	str	r0, [r5, #0x54]
      66: 7061         	strb	r1, [r4, #0x1]
      68: 705f         	strb	r7, [r3, #0x1]
;     if (n == 1) return 1;
      6a: 7274         	strb	r4, [r6, #0x9]
      6c: 6200         	str	r0, [r0, #0x20]
      6e: 6d00         	ldr	r0, [r0, #0x50]
      70: 6300         	str	r0, [r0, #0x30]
      72: 2f00         	cmp	r7, #0x0
;     unsigned long long a = 0, b = 1, temp;
      74: 6f68         	ldr	r0, [r5, #0x74]
      76: 656d         	str	r5, [r5, #0x54]
      78: 6b2f         	ldr	r7, [r5, #0x30]
      7a: 7269         	strb	r1, [r5, #0x9]
      7c: 6e61         	ldr	r1, [r4, #0x64]
      7e: 412f         	asrs	r7, r5
;     for (int i = 2; i <= n; ++i) {
      80: 4143         	adcs	r3, r0
      82: 702f         	strb	r7, [r5]
      84: 6f72         	ldr	r2, [r6, #0x74]
      86: 7267         	strb	r7, [r4, #0x9]
      88: 6d61         	ldr	r1, [r4, #0x54]
      8a: 0073         	lsls	r3, r6, #0x1
      8c: 0073         	lsls	r3, r6, #0x1
;         temp = a + b;
      8e: 3072         	adds	r0, #0x72
      90: 6800         	ldr	r0, [r0]
      92: 6165         	str	r5, [r4, #0x14]
      94: 5f70         	ldrsh	r0, [r6, r5]
      96: 7470         	strb	r0, [r6, #0x11]
      98: 0072         	lsls	r2, r6, #0x1
      9a: 7673         	strb	r3, [r6, #0x19]
      9c: 5f63         	ldrsh	r3, [r4, r5]
;         a = b;
      9e: 7570         	strb	r0, [r6, #0x15]
      a0: 6974         	ldr	r4, [r6, #0x14]
      a2: 746e         	strb	r6, [r5, #0x11]
      a4: 6d00         	ldr	r0, [r0, #0x50]
;         b = temp;
      a6: 6961         	ldr	r1, [r4, #0x14]
      a8: 006e         	lsls	r6, r5, #0x1
      aa: 7673         	strb	r3, [r6, #0x19]
      ac: 5f63         	ldrsh	r3, [r4, r5]
;     }
      ae: 7865         	ldrb	r5, [r4, #0x1]
;     for (int i = 2; i <= n; ++i) {
      b0: 7469         	strb	r1, [r5, #0x11]
      b2: 7400         	strb	r0, [r0, #0x10]
      b4: 6d65         	ldr	r5, [r4, #0x54]
      b6: 0070         	lsls	r0, r6, #0x1
;     return b;
      b8: 6863         	ldr	r3, [r4, #0x4]
      ba: 7261         	strb	r1, [r4, #0x9]
      bc: 6900         	ldr	r0, [r0, #0x10]
      be: 746e         	strb	r6, [r5, #0x11]
      c0: 6d00         	ldr	r0, [r0, #0x50]
; }
      c2: 6d65         	ldr	r5, [r4, #0x54]
      c4: 6573         	str	r3, [r6, #0x54]
      c6: 0074         	lsls	r4, r6, #0x1
      c8: 656c         	str	r4, [r5, #0x54]
; int main() {
      ca: 676e         	str	r6, [r5, #0x74]
      cc: 6874         	ldr	r4, [r6, #0x4]
      ce: 2e00         	cmp	r6, #0x0
      d0: 2f2e         	cmp	r7, #0x2e
      d2: 2e2e         	cmp	r6, #0x2e
      d4: 2e2f         	cmp	r6, #0x2f
      d6: 2f2e         	cmp	r7, #0x2e
      d8: 2e2e         	cmp	r6, #0x2e
      da: 2e2f         	cmp	r6, #0x2f
;     unsigned arr[N] = {0};
      dc: 2f2e         	cmp	r7, #0x2e
      de: 7273         	strb	r3, [r6, #0x9]
      e0: 2f63         	cmp	r7, #0x63
;     for (unsigned i = 0; i < N; i++) {
      e2: 6970         	ldr	r0, [r6, #0x14]
      e4: 6f63         	ldr	r3, [r4, #0x74]
      e6: 696c         	ldr	r4, [r5, #0x14]
      e8: 6362         	str	r2, [r4, #0x34]
      ea: 6e2f         	ldr	r7, [r5, #0x60]
      ec: 7765         	strb	r5, [r4, #0x1d]
;         arr[i] = fibonacci(i + 1);
      ee: 696c         	ldr	r4, [r5, #0x14]
      f0: 2f62         	cmp	r7, #0x62
      f2: 696c         	ldr	r4, [r5, #0x14]
      f4: 6362         	str	r2, [r4, #0x34]
      f6: 6d2f         	ldr	r7, [r5, #0x50]
      f8: 6361         	str	r1, [r4, #0x34]
      fa: 6968         	ldr	r0, [r5, #0x14]
      fc: 656e         	str	r6, [r5, #0x54]
;     }
      fe: 612f         	str	r7, [r5, #0x10]
;     for (unsigned i = 0; i < N; i++) {
     100: 6d72         	ldr	r2, [r6, #0x54]
     102: 6d2f         	ldr	r7, [r5, #0x50]
     104: 6d65         	ldr	r5, [r4, #0x54]
     106: 6573         	str	r3, [r6, #0x54]
;     svc_putint(arr[N - 1]);
     108: 2e74         	cmp	r6, #0x74
     10a: 0063         	lsls	r3, r4, #0x1
     10c: 6e75         	ldr	r5, [r6, #0x64]
     10e: 6973         	ldr	r3, [r6, #0x14]
;     svc_exit(0);
     110: 6e67         	ldr	r7, [r4, #0x64]
     112: 6465         	str	r5, [r4, #0x44]
; }
     114: 6920         	ldr	r0, [r4, #0x10]
     116: 746e         	strb	r6, [r5, #0x11]
     118: 6600         	str	r0, [r0, #0x60]
; static inline void svc_putint(int n) {
     11a: 6269         	str	r1, [r5, #0x24]
     11c: 6e6f         	ldr	r7, [r5, #0x64]
;      register int r0 __asm__("r0") = n;
     11e: 6361         	str	r1, [r4, #0x34]
     120: 6963         	ldr	r3, [r4, #0x14]
;      __asm volatile ("svc 3" :  : "r"(r0) : "memory");
     122: 5f00         	ldrsh	r0, [r0, r4]
     124: 415f         	adcs	r7, r3
; }
     126: 5252         	strh	r2, [r2, r1]
     128: 5941         	ldr	r1, [r0, r5]
; static inline void svc_exit(unsigned code) {
     12a: 535f         	strh	r7, [r3, r5]
     12c: 5a49         	ldrh	r1, [r1, r1]
;     register unsigned r0 __asm__("r0") = code;
     12e: 5f45         	ldrsh	r5, [r0, r5]
     130: 5954         	ldr	r4, [r2, r5]
;     __asm volatile ("svc 0" :  : "r"(r0) : "memory");
     132: 4550         	cmp	r0, r10
     134: 5f5f         	ldrsh	r7, [r3, r5]
; };
     136: 6200         	str	r0, [r0, #0x20]
     138: 657a         	str	r2, [r7, #0x54]
     13a: 6f72         	ldr	r2, [r6, #0x74]
     13c: 2e00         	cmp	r6, #0x0
     13e: 2f2e         	cmp	r7, #0x2e
     140: 2e2e         	cmp	r6, #0x2e
     142: 2e2f         	cmp	r6, #0x2f
     144: 2f2e         	cmp	r7, #0x2e
     146: 2e2e         	cmp	r6, #0x2e
     148: 2e2f         	cmp	r6, #0x2f
     14a: 2f2e         	cmp	r7, #0x2e
     14c: 7273         	strb	r3, [r6, #0x9]
     14e: 2f63         	cmp	r7, #0x63
     150: 6970         	ldr	r0, [r6, #0x14]
     152: 6f63         	ldr	r3, [r4, #0x74]
     154: 696c         	ldr	r4, [r5, #0x14]
     156: 6362         	str	r2, [r4, #0x34]
     158: 6e2f         	ldr	r7, [r5, #0x60]
     15a: 7765         	strb	r5, [r4, #0x1d]
     15c: 696c         	ldr	r4, [r5, #0x14]
     15e: 2f62         	cmp	r7, #0x62
     160: 696c         	ldr	r4, [r5, #0x14]
     162: 6362         	str	r2, [r4, #0x34]
     164: 6d2f         	ldr	r7, [r5, #0x50]
     166: 6361         	str	r1, [r4, #0x34]
     168: 6968         	ldr	r0, [r5, #0x14]
     16a: 656e         	str	r6, [r5, #0x54]
     16c: 612f         	str	r7, [r5, #0x10]
     16e: 6d72         	ldr	r2, [r6, #0x54]
     170: 622f         	str	r7, [r5, #0x20]
     172: 657a         	str	r2, [r7, #0x54]
     174: 6f72         	ldr	r2, [r6, #0x74]
     176: 632e         	str	r6, [r5, #0x30]
     178: 2f00         	cmp	r7, #0x0
     17a: 6f68         	ldr	r0, [r5, #0x74]
     17c: 656d         	str	r5, [r5, #0x54]
     17e: 6a2f         	ldr	r7, [r5, #0x20]
     180: 6e65         	ldr	r5, [r4, #0x64]
     182: 696b         	ldr	r3, [r5, #0x14]
     184: 736e         	strb	r6, [r5, #0xd]
     186: 612f         	str	r7, [r5, #0x10]
     188: 6567         	str	r7, [r4, #0x54]
     18a: 746e         	strb	r6, [r5, #0x11]
     18c: 772f         	strb	r7, [r5, #0x1c]
     18e: 726f         	strb	r7, [r5, #0x9]
     190: 736b         	strb	r3, [r5, #0xd]
     192: 6170         	str	r0, [r6, #0x14]
     194: 6563         	str	r3, [r4, #0x54]
     196: 6c2f         	ldr	r7, [r5, #0x40]
     198: 766c         	strb	r4, [r5, #0x19]
     19a: 2d6d         	cmp	r5, #0x6d
     19c: 6d65         	ldr	r5, [r4, #0x54]
     19e: 6562         	str	r2, [r4, #0x54]
     1a0: 6464         	str	r4, [r4, #0x44]
     1a2: 6465         	str	r5, [r4, #0x44]
     1a4: 6c2f         	ldr	r7, [r5, #0x40]
     1a6: 766c         	strb	r4, [r5, #0x19]
     1a8: 2d6d         	cmp	r5, #0x6d
     1aa: 3931         	subs	r1, #0x31
     1ac: 622f         	str	r7, [r5, #0x20]
     1ae: 6975         	ldr	r5, [r6, #0x14]
     1b0: 646c         	str	r4, [r5, #0x44]
     1b2: 612d         	str	r5, [r5, #0x10]
     1b4: 646e         	str	r6, [r5, #0x44]
     1b6: 742d         	strb	r5, [r5, #0x10]
     1b8: 7365         	strb	r5, [r4, #0xd]
     1ba: 2f74         	cmp	r7, #0x74
     1bc: 7562         	strb	r2, [r4, #0x15]
     1be: 6c69         	ldr	r1, [r5, #0x44]
     1c0: 2f64         	cmp	r7, #0x64
     1c2: 6970         	ldr	r0, [r6, #0x14]
     1c4: 6f63         	ldr	r3, [r4, #0x74]
     1c6: 696c         	ldr	r4, [r5, #0x14]
     1c8: 6362         	str	r2, [r4, #0x34]
     1ca: 612f         	str	r7, [r5, #0x10]
     1cc: 6d72         	ldr	r2, [r6, #0x54]
     1ce: 3676         	adds	r6, #0x76
     1d0: 5f6d         	ldrsh	r5, [r5, r5]
     1d2: 6f73         	ldr	r3, [r6, #0x74]
     1d4: 7466         	strb	r6, [r4, #0x11]
     1d6: 6e5f         	ldr	r7, [r3, #0x64]
     1d8: 666f         	str	r7, [r5, #0x64]
     1da: 5f70         	ldrsh	r0, [r6, r5]
     1dc: 7865         	ldrb	r5, [r4, #0x1]
     1de: 5f6e         	ldrsh	r6, [r5, r5]
     1e0: 7472         	strb	r2, [r6, #0x11]
     1e2: 6974         	ldr	r4, [r6, #0x14]
     1e4: 732f         	strb	r7, [r5, #0xc]
     1e6: 6372         	str	r2, [r6, #0x34]
     1e8: 702f         	strb	r7, [r5]
     1ea: 6369         	str	r1, [r5, #0x34]
     1ec: 6c6f         	ldr	r7, [r5, #0x44]
     1ee: 6269         	str	r1, [r5, #0x24]
     1f0: 5f63         	ldrsh	r3, [r4, r5]
     1f2: 7261         	strb	r1, [r4, #0x9]
     1f4: 766d         	strb	r5, [r5, #0x19]
     1f6: 6d36         	ldr	r6, [r6, #0x50]
     1f8: 735f         	strb	r7, [r3, #0xd]
     1fa: 666f         	str	r7, [r5, #0x64]
     1fc: 5f74         	ldrsh	r4, [r6, r5]
     1fe: 6f6e         	ldr	r6, [r5, #0x74]
     200: 7066         	strb	r6, [r4, #0x1]
     202: 655f         	str	r7, [r3, #0x54]
     204: 6e78         	ldr	r0, [r7, #0x64]
     206: 725f         	strb	r7, [r3, #0x9]
     208: 7474         	strb	r4, [r6, #0x11]
     20a: 2d69         	cmp	r5, #0x69
     20c: 7562         	strb	r2, [r4, #0x15]
     20e: 6c69         	ldr	r1, [r5, #0x44]
     210: 0064         	lsls	r4, r4, #0x1
     212: 6273         	str	r3, [r6, #0x24]
     214: 6b72         	ldr	r2, [r6, #0x34]
     216: 6100         	str	r0, [r0, #0x10]
     218: 7272         	strb	r2, [r6, #0x9]
     21a: 00           	<unknown>

Disassembly of section .debug_addr:

00000000 <.debug_addr>:
; extern void* sbrk(ptrdiff_t increment) {
       0: 0024         	movs	r4, r4
       2: 0000         	movs	r0, r0
;     char* prev_heap_ptr = heap_ptr;
       4: 0005         	movs	r5, r0
       6: 0004         	movs	r4, r0
       8: 0000         	movs	r0, r0
;     if (increment > 0) {
       a: 2000         	movs	r0, #0x0
       c: 0000         	movs	r0, r0
       e: 0000         	movs	r0, r0
      10: 004c         	lsls	r4, r1, #0x1
;         if (heap_ptr + increment > &__heap_end) {
      12: 0000         	movs	r0, r0
      14: 0080         	lsls	r0, r0, #0x2
      16: 0000         	movs	r0, r0
      18: 00ca         	lsls	r2, r1, #0x3
      1a: 0000         	movs	r0, r0
      1c: 00e2         	lsls	r2, r4, #0x3
      1e: 0000         	movs	r0, r0
      20: 011a         	lsls	r2, r3, #0x4
      22: 0000         	movs	r0, r0
      24: 012a         	lsls	r2, r5, #0x4
;             return (void*)-1;  // Return error if the heap is full
      26: 0000         	movs	r0, r0
      28: 0008         	movs	r0, r1
;         heap_ptr += increment;
      2a: 0000         	movs	r0, r0
      2c: 0005         	movs	r5, r0
      2e: 0004         	movs	r4, r0
      30: 013c         	lsls	r4, r7, #0x4
      32: 0000         	movs	r0, r0
;     }
      34: 0008         	movs	r0, r1
;     return (void*)prev_heap_ptr;
      36: 0000         	movs	r0, r0
      38: 0005         	movs	r5, r0
      3a: 0004         	movs	r4, r0
; }
      3c: 014c         	lsls	r4, r1, #0x5
      3e: 0000         	movs	r0, r0

Disassembly of section .debug_line_str:

00000000 <.debug_line_str>:
; extern void* sbrk(ptrdiff_t increment) {
       0: 7a62         	ldrb	r2, [r4, #0x9]
       2: 7265         	strb	r5, [r4, #0x9]
;     char* prev_heap_ptr = heap_ptr;
       4: 2e6f         	cmp	r6, #0x6f
       6: 0063         	lsls	r3, r4, #0x1
       8: 6562         	str	r2, [r4, #0x54]
;     if (increment > 0) {
       a: 636e         	str	r6, [r5, #0x34]
       c: 6d68         	ldr	r0, [r5, #0x54]
       e: 7261         	strb	r1, [r4, #0x9]
      10: 736b         	strb	r3, [r5, #0xd]
;         if (heap_ptr + increment > &__heap_end) {
      12: 662f         	str	r7, [r5, #0x60]
      14: 6269         	str	r1, [r5, #0x24]
      16: 632e         	str	r6, [r5, #0x30]
      18: 2f00         	cmp	r7, #0x0
      1a: 6f68         	ldr	r0, [r5, #0x74]
      1c: 656d         	str	r5, [r5, #0x54]
      1e: 6b2f         	ldr	r7, [r5, #0x30]
      20: 7269         	strb	r1, [r5, #0x9]
      22: 6e61         	ldr	r1, [r4, #0x64]
      24: 6c00         	ldr	r0, [r0, #0x40]
;             return (void*)-1;  // Return error if the heap is full
      26: 766c         	strb	r4, [r5, #0x19]
      28: 2f6d         	cmp	r7, #0x6d
;         heap_ptr += increment;
      2a: 696c         	ldr	r4, [r5, #0x14]
      2c: 2f62         	cmp	r7, #0x62
      2e: 6c63         	ldr	r3, [r4, #0x44]
      30: 6e61         	ldr	r1, [r4, #0x64]
      32: 2f67         	cmp	r7, #0x67
;     }
      34: 3931         	subs	r1, #0x31
;     return (void*)prev_heap_ptr;
      36: 692f         	ldr	r7, [r5, #0x10]
      38: 636e         	str	r6, [r5, #0x34]
      3a: 756c         	strb	r4, [r5, #0x15]
; }
      3c: 6564         	str	r4, [r4, #0x54]
      3e: 5f2f         	ldrsh	r7, [r5, r4]
      40: 735f         	strb	r7, [r3, #0xd]
      42: 6474         	str	r4, [r6, #0x44]
      44: 6564         	str	r4, [r4, #0x54]
      46: 5f66         	ldrsh	r6, [r4, r5]
      48: 6973         	ldr	r3, [r6, #0x14]
      4a: 657a         	str	r2, [r7, #0x54]
; unsigned long long fibonacci(int n) {
      4c: 745f         	strb	r7, [r3, #0x11]
      4e: 682e         	ldr	r6, [r5]
;     if (n <= 0) return 0;
      50: 2f00         	cmp	r7, #0x0
      52: 6f68         	ldr	r0, [r5, #0x74]
      54: 656d         	str	r5, [r5, #0x54]
      56: 6b2f         	ldr	r7, [r5, #0x30]
      58: 7269         	strb	r1, [r5, #0x9]
;     if (n <= 0) return 0;
      5a: 6e61         	ldr	r1, [r4, #0x64]
      5c: 412f         	asrs	r7, r5
      5e: 4143         	adcs	r3, r0
;     if (n == 1) return 1;
      60: 702f         	strb	r7, [r5]
      62: 6f72         	ldr	r2, [r6, #0x74]
      64: 7267         	strb	r7, [r4, #0x9]
      66: 6d61         	ldr	r1, [r4, #0x54]
      68: 0073         	lsls	r3, r6, #0x1
;     if (n == 1) return 1;
      6a: 6562         	str	r2, [r4, #0x54]
      6c: 636e         	str	r6, [r5, #0x34]
      6e: 6d68         	ldr	r0, [r5, #0x54]
      70: 7261         	strb	r1, [r4, #0x9]
      72: 736b         	strb	r3, [r5, #0xd]
;     unsigned long long a = 0, b = 1, temp;
      74: 2e2f         	cmp	r6, #0x2f
      76: 2f2e         	cmp	r7, #0x2e
      78: 7973         	ldrb	r3, [r6, #0x5]
      7a: 6373         	str	r3, [r6, #0x34]
      7c: 6c61         	ldr	r1, [r4, #0x44]
      7e: 736c         	strb	r4, [r5, #0xd]
;     for (int i = 2; i <= n; ++i) {
      80: 6d00         	ldr	r0, [r0, #0x50]
      82: 6d65         	ldr	r5, [r4, #0x54]
      84: 6573         	str	r3, [r6, #0x54]
      86: 2e74         	cmp	r6, #0x74
      88: 0063         	lsls	r3, r4, #0x1
      8a: 682f         	ldr	r7, [r5]
      8c: 6d6f         	ldr	r7, [r5, #0x54]
;         temp = a + b;
      8e: 2f65         	cmp	r7, #0x65
      90: 656a         	str	r2, [r5, #0x54]
      92: 6b6e         	ldr	r6, [r5, #0x34]
      94: 6e69         	ldr	r1, [r5, #0x64]
      96: 2f73         	cmp	r7, #0x73
      98: 6761         	str	r1, [r4, #0x74]
      9a: 6e65         	ldr	r5, [r4, #0x64]
      9c: 2f74         	cmp	r7, #0x74
;         a = b;
      9e: 6f77         	ldr	r7, [r6, #0x74]
      a0: 6b72         	ldr	r2, [r6, #0x34]
      a2: 7073         	strb	r3, [r6, #0x1]
      a4: 6361         	str	r1, [r4, #0x34]
;         b = temp;
      a6: 2f65         	cmp	r7, #0x65
      a8: 6c6c         	ldr	r4, [r5, #0x44]
      aa: 6d76         	ldr	r6, [r6, #0x54]
      ac: 652d         	str	r5, [r5, #0x50]
;     }
      ae: 626d         	str	r5, [r5, #0x24]
;     for (int i = 2; i <= n; ++i) {
      b0: 6465         	str	r5, [r4, #0x44]
      b2: 6564         	str	r4, [r4, #0x54]
      b4: 2f64         	cmp	r7, #0x64
      b6: 6c6c         	ldr	r4, [r5, #0x44]
;     return b;
      b8: 6d76         	ldr	r6, [r6, #0x54]
      ba: 312d         	adds	r1, #0x2d
      bc: 2f39         	cmp	r7, #0x39
      be: 7562         	strb	r2, [r4, #0x15]
      c0: 6c69         	ldr	r1, [r5, #0x44]
; }
      c2: 2d64         	cmp	r5, #0x64
      c4: 6e61         	ldr	r1, [r4, #0x64]
      c6: 2d64         	cmp	r5, #0x64
      c8: 6574         	str	r4, [r6, #0x54]
; int main() {
      ca: 7473         	strb	r3, [r6, #0x11]
      cc: 622f         	str	r7, [r5, #0x20]
      ce: 6975         	ldr	r5, [r6, #0x14]
      d0: 646c         	str	r4, [r5, #0x44]
      d2: 2e00         	cmp	r6, #0x0
      d4: 2f2e         	cmp	r7, #0x2e
      d6: 2e2e         	cmp	r6, #0x2e
      d8: 2e2f         	cmp	r6, #0x2f
      da: 2f2e         	cmp	r7, #0x2e
;     unsigned arr[N] = {0};
      dc: 2e2e         	cmp	r6, #0x2e
      de: 2e2f         	cmp	r6, #0x2f
      e0: 2f2e         	cmp	r7, #0x2e
;     for (unsigned i = 0; i < N; i++) {
      e2: 7273         	strb	r3, [r6, #0x9]
      e4: 2f63         	cmp	r7, #0x63
      e6: 6970         	ldr	r0, [r6, #0x14]
      e8: 6f63         	ldr	r3, [r4, #0x74]
      ea: 696c         	ldr	r4, [r5, #0x14]
      ec: 6362         	str	r2, [r4, #0x34]
;         arr[i] = fibonacci(i + 1);
      ee: 6e2f         	ldr	r7, [r5, #0x60]
      f0: 7765         	strb	r5, [r4, #0x1d]
      f2: 696c         	ldr	r4, [r5, #0x14]
      f4: 2f62         	cmp	r7, #0x62
      f6: 696c         	ldr	r4, [r5, #0x14]
      f8: 6362         	str	r2, [r4, #0x34]
      fa: 6d2f         	ldr	r7, [r5, #0x50]
      fc: 6361         	str	r1, [r4, #0x34]
;     }
      fe: 6968         	ldr	r0, [r5, #0x14]
;     for (unsigned i = 0; i < N; i++) {
     100: 656e         	str	r6, [r5, #0x54]
     102: 612f         	str	r7, [r5, #0x10]
     104: 6d72         	ldr	r2, [r6, #0x54]
     106: 6d2f         	ldr	r7, [r5, #0x50]
;     svc_putint(arr[N - 1]);
     108: 6d65         	ldr	r5, [r4, #0x54]
     10a: 6573         	str	r3, [r6, #0x54]
     10c: 2e74         	cmp	r6, #0x74
     10e: 0063         	lsls	r3, r4, #0x1
;     svc_exit(0);
     110: 4c4c         	ldr	r4, [pc, #0x130]        @ 0x244 <.debug_line+0x244>
     112: 4d56         	ldr	r5, [pc, #0x158]        @ 0x26c <.debug_line+0x26c>
; }
     114: 452d         	cmp	r5, r5
     116: 2d54         	cmp	r5, #0x54
     118: 7241         	strb	r1, [r0, #0x9]
; static inline void svc_putint(int n) {
     11a: 2d6d         	cmp	r5, #0x6d
     11c: 3931         	subs	r1, #0x31
;      register int r0 __asm__("r0") = n;
     11e: 312e         	adds	r1, #0x2e
     120: 352e         	adds	r5, #0x2e
;      __asm volatile ("svc 3" :  : "r"(r0) : "memory");
     122: 6c2f         	ldr	r7, [r5, #0x40]
     124: 6269         	str	r1, [r5, #0x24]
; }
     126: 632f         	str	r7, [r5, #0x30]
     128: 616c         	str	r4, [r5, #0x14]
; static inline void svc_exit(unsigned code) {
     12a: 676e         	str	r6, [r5, #0x74]
     12c: 312f         	adds	r1, #0x2f
;     register unsigned r0 __asm__("r0") = code;
     12e: 2f39         	cmp	r7, #0x39
     130: 6e69         	ldr	r1, [r5, #0x64]
;     __asm volatile ("svc 0" :  : "r"(r0) : "memory");
     132: 6c63         	ldr	r3, [r4, #0x44]
     134: 6475         	str	r5, [r6, #0x44]
; };
     136: 2f65         	cmp	r7, #0x65
     138: 5f5f         	ldrsh	r7, [r3, r5]
     13a: 7473         	strb	r3, [r6, #0x11]
     13c: 6464         	str	r4, [r4, #0x44]
     13e: 6665         	str	r5, [r4, #0x64]
     140: 705f         	strb	r7, [r3, #0x1]
     142: 7274         	strb	r4, [r6, #0x9]
     144: 6964         	ldr	r4, [r4, #0x14]
     146: 6666         	str	r6, [r4, #0x64]
     148: 745f         	strb	r7, [r3, #0x11]
     14a: 682e         	ldr	r6, [r5]
     14c: 2e00         	cmp	r6, #0x0
     14e: 2f2e         	cmp	r7, #0x2e
     150: 2e2e         	cmp	r6, #0x2e
     152: 2e2f         	cmp	r6, #0x2f
     154: 2f2e         	cmp	r7, #0x2e
     156: 2e2e         	cmp	r6, #0x2e
     158: 2e2f         	cmp	r6, #0x2f
     15a: 2f2e         	cmp	r7, #0x2e
     15c: 7273         	strb	r3, [r6, #0x9]
     15e: 2f63         	cmp	r7, #0x63
     160: 6970         	ldr	r0, [r6, #0x14]
     162: 6f63         	ldr	r3, [r4, #0x74]
     164: 696c         	ldr	r4, [r5, #0x14]
     166: 6362         	str	r2, [r4, #0x34]
     168: 6e2f         	ldr	r7, [r5, #0x60]
     16a: 7765         	strb	r5, [r4, #0x1d]
     16c: 696c         	ldr	r4, [r5, #0x14]
     16e: 2f62         	cmp	r7, #0x62
     170: 696c         	ldr	r4, [r5, #0x14]
     172: 6362         	str	r2, [r4, #0x34]
     174: 6d2f         	ldr	r7, [r5, #0x50]
     176: 6361         	str	r1, [r4, #0x34]
     178: 6968         	ldr	r0, [r5, #0x14]
     17a: 656e         	str	r6, [r5, #0x54]
     17c: 612f         	str	r7, [r5, #0x10]
     17e: 6d72         	ldr	r2, [r6, #0x54]
     180: 2e2f         	cmp	r6, #0x2f
     182: 2f2e         	cmp	r7, #0x2e
     184: 2e2e         	cmp	r6, #0x2e
     186: 732f         	strb	r7, [r5, #0xc]
     188: 7274         	strb	r4, [r6, #0x9]
     18a: 6e69         	ldr	r1, [r5, #0x64]
     18c: 0067         	lsls	r7, r4, #0x1
     18e: 2e2e         	cmp	r6, #0x2e
     190: 2e2f         	cmp	r6, #0x2f
     192: 2f2e         	cmp	r7, #0x2e
     194: 2e2e         	cmp	r6, #0x2e
     196: 2e2f         	cmp	r6, #0x2f
     198: 2f2e         	cmp	r7, #0x2e
     19a: 2e2e         	cmp	r6, #0x2e
     19c: 732f         	strb	r7, [r5, #0xc]
     19e: 6372         	str	r2, [r6, #0x34]
     1a0: 702f         	strb	r7, [r5]
     1a2: 6369         	str	r1, [r5, #0x34]
     1a4: 6c6f         	ldr	r7, [r5, #0x44]
     1a6: 6269         	str	r1, [r5, #0x24]
     1a8: 2f63         	cmp	r7, #0x63
     1aa: 656e         	str	r6, [r5, #0x54]
     1ac: 6c77         	ldr	r7, [r6, #0x44]
     1ae: 6269         	str	r1, [r5, #0x24]
     1b0: 6c2f         	ldr	r7, [r5, #0x40]
     1b2: 6269         	str	r1, [r5, #0x24]
     1b4: 2f63         	cmp	r7, #0x63
     1b6: 616d         	str	r5, [r5, #0x14]
     1b8: 6863         	ldr	r3, [r4, #0x4]
     1ba: 6e69         	ldr	r1, [r5, #0x64]
     1bc: 2f65         	cmp	r7, #0x65
     1be: 7261         	strb	r1, [r4, #0x9]
     1c0: 2f6d         	cmp	r7, #0x6d
     1c2: 7a62         	ldrb	r2, [r4, #0x9]
     1c4: 7265         	strb	r5, [r4, #0x9]
     1c6: 2e6f         	cmp	r6, #0x6f
     1c8: 0063         	lsls	r3, r4, #0x1
     1ca: 682f         	ldr	r7, [r5]
     1cc: 6d6f         	ldr	r7, [r5, #0x54]
     1ce: 2f65         	cmp	r7, #0x65
     1d0: 656a         	str	r2, [r5, #0x54]
     1d2: 6b6e         	ldr	r6, [r5, #0x34]
     1d4: 6e69         	ldr	r1, [r5, #0x64]
     1d6: 2f73         	cmp	r7, #0x73
     1d8: 6761         	str	r1, [r4, #0x74]
     1da: 6e65         	ldr	r5, [r4, #0x64]
     1dc: 2f74         	cmp	r7, #0x74
     1de: 6f77         	ldr	r7, [r6, #0x74]
     1e0: 6b72         	ldr	r2, [r6, #0x34]
     1e2: 7073         	strb	r3, [r6, #0x1]
     1e4: 6361         	str	r1, [r4, #0x34]
     1e6: 2f65         	cmp	r7, #0x65
     1e8: 6c6c         	ldr	r4, [r5, #0x44]
     1ea: 6d76         	ldr	r6, [r6, #0x54]
     1ec: 652d         	str	r5, [r5, #0x50]
     1ee: 626d         	str	r5, [r5, #0x24]
     1f0: 6465         	str	r5, [r4, #0x44]
     1f2: 6564         	str	r4, [r4, #0x54]
     1f4: 2f64         	cmp	r7, #0x64
     1f6: 6c6c         	ldr	r4, [r5, #0x44]
     1f8: 6d76         	ldr	r6, [r6, #0x54]
     1fa: 312d         	adds	r1, #0x2d
     1fc: 2f39         	cmp	r7, #0x39
     1fe: 7562         	strb	r2, [r4, #0x15]
     200: 6c69         	ldr	r1, [r5, #0x44]
     202: 2d64         	cmp	r5, #0x64
     204: 6e61         	ldr	r1, [r4, #0x64]
     206: 2d64         	cmp	r5, #0x64
     208: 6574         	str	r4, [r6, #0x54]
     20a: 7473         	strb	r3, [r6, #0x11]
     20c: 622f         	str	r7, [r5, #0x20]
     20e: 6975         	ldr	r5, [r6, #0x14]
     210: 646c         	str	r4, [r5, #0x44]
     212: 702f         	strb	r7, [r5]
     214: 6369         	str	r1, [r5, #0x34]
     216: 6c6f         	ldr	r7, [r5, #0x44]
     218: 6269         	str	r1, [r5, #0x24]
     21a: 2f63         	cmp	r7, #0x63
     21c: 7261         	strb	r1, [r4, #0x9]
     21e: 766d         	strb	r5, [r5, #0x19]
     220: 6d36         	ldr	r6, [r6, #0x50]
     222: 735f         	strb	r7, [r3, #0xd]
     224: 666f         	str	r7, [r5, #0x64]
     226: 5f74         	ldrsh	r4, [r6, r5]
     228: 6f6e         	ldr	r6, [r5, #0x74]
     22a: 7066         	strb	r6, [r4, #0x1]
     22c: 655f         	str	r7, [r3, #0x54]
     22e: 6e78         	ldr	r0, [r7, #0x64]
     230: 725f         	strb	r7, [r3, #0x9]
     232: 7474         	strb	r4, [r6, #0x11]
     234: 2f69         	cmp	r7, #0x69
     236: 7273         	strb	r3, [r6, #0x9]
     238: 2f63         	cmp	r7, #0x63
     23a: 6970         	ldr	r0, [r6, #0x14]
     23c: 6f63         	ldr	r3, [r4, #0x74]
     23e: 696c         	ldr	r4, [r5, #0x14]
     240: 6362         	str	r2, [r4, #0x34]
     242: 615f         	str	r7, [r3, #0x14]
     244: 6d72         	ldr	r2, [r6, #0x54]
     246: 3676         	adds	r6, #0x76
     248: 5f6d         	ldrsh	r5, [r5, r5]
     24a: 6f73         	ldr	r3, [r6, #0x74]
     24c: 7466         	strb	r6, [r4, #0x11]
     24e: 6e5f         	ldr	r7, [r3, #0x64]
     250: 666f         	str	r7, [r5, #0x64]
     252: 5f70         	ldrsh	r0, [r6, r5]
     254: 7865         	ldrb	r5, [r4, #0x1]
     256: 5f6e         	ldrsh	r6, [r5, r5]
     258: 7472         	strb	r2, [r6, #0x11]
     25a: 6974         	ldr	r4, [r6, #0x14]
     25c: 622d         	str	r5, [r5, #0x20]
     25e: 6975         	ldr	r5, [r6, #0x14]
     260: 646c         	str	r4, [r5, #0x44]
     262: 7300         	strb	r0, [r0, #0xc]
     264: 7379         	strb	r1, [r7, #0xd]
     266: 6163         	str	r3, [r4, #0x14]
     268: 6c6c         	ldr	r4, [r5, #0x44]
     26a: 2e73         	cmp	r6, #0x73
     26c: 0068         	lsls	r0, r5, #0x1

Disassembly of section .debug_loclists:

00000000 <.debug_loclists>:
; extern void* sbrk(ptrdiff_t increment) {
       0: 0029         	movs	r1, r5
       2: 0000         	movs	r0, r0
;     char* prev_heap_ptr = heap_ptr;
       4: 0005         	movs	r5, r0
       6: 0004         	movs	r4, r0
       8: 0002         	movs	r2, r0
;     if (increment > 0) {
       a: 0000         	movs	r0, r0
       c: 0008         	movs	r0, r1
       e: 0000         	movs	r0, r0
      10: 0016         	movs	r6, r2
;         if (heap_ptr + increment > &__heap_end) {
      12: 0000         	movs	r0, r0
      14: 0004         	movs	r4, r0
      16: 010c         	lsls	r4, r1, #0x4
      18: 0450         	lsls	r0, r2, #0x11
      1a: 0e0c         	lsrs	r4, r1, #0x18
      1c: a304         	adr	r3, #16 <.debug_line+0x24>
      1e: 5001         	str	r1, [r0, r0]
      20: 009f         	lsls	r7, r3, #0x2
      22: 0004         	movs	r4, r0
      24: 0106         	lsls	r6, r0, #0x4
;             return (void*)-1;  // Return error if the heap is full
      26: 0451         	lsls	r1, r2, #0x11
      28: 0c06         	lsrs	r6, r0, #0x10
;         heap_ptr += increment;
      2a: 5201         	strh	r1, [r0, r0]
      2c: 4b00         	ldr	r3, [pc, #0x0]          @ 0x30 <.debug_line+0x30>
      2e: 0000         	movs	r0, r0
      30: 0500         	lsls	r0, r0, #0x14
      32: 0400         	lsls	r0, r0, #0x10
;     }
      34: 0200         	lsls	r0, r0, #0x8
;     return (void*)prev_heap_ptr;
      36: 0000         	movs	r0, r0
      38: 0800         	lsrs	r0, r0, #0x20
      3a: 0000         	movs	r0, r0
; }
      3c: 1c00         	adds	r0, r0, #0x0
      3e: 0000         	movs	r0, r0
      40: 0400         	lsls	r0, r0, #0x10
      42: 0200         	lsls	r0, r0, #0x8
      44: 5201         	strh	r1, [r0, r0]
      46: 0204         	lsls	r4, r0, #0x8
      48: 0306         	lsls	r6, r0, #0xc
      4a: 7f73         	ldrb	r3, [r6, #0x1d]
; unsigned long long fibonacci(int n) {
      4c: 049f         	lsls	r7, r3, #0x12
      4e: 0e0c         	lsrs	r4, r1, #0x18
;     if (n <= 0) return 0;
      50: 7303         	strb	r3, [r0, #0xc]
      52: 9f7f         	ldr	r7, [sp, #0x1fc]
      54: 0400         	lsls	r0, r0, #0x10
      56: 0200         	lsls	r0, r0, #0x8
      58: 5001         	str	r1, [r0, r0]
;     if (n <= 0) return 0;
      5a: 0204         	lsls	r4, r0, #0x8
      5c: 0606         	lsls	r6, r0, #0x18
      5e: 0073         	lsls	r3, r6, #0x1
;     if (n == 1) return 1;
      60: 0070         	lsls	r0, r6, #0x1
      62: 9f22         	ldr	r7, [sp, #0x88]
      64: 0604         	lsls	r4, r0, #0x18
      66: 090a         	lsrs	r2, r1, #0x4
      68: 0073         	lsls	r3, r6, #0x1
;     if (n == 1) return 1;
      6a: 0111         	lsls	r1, r2, #0x4
      6c: 0070         	lsls	r0, r6, #0x1
      6e: 2222         	movs	r2, #0x22
      70: 049f         	lsls	r7, r3, #0x12
      72: 0e0c         	lsrs	r4, r1, #0x18
;     unsigned long long a = 0, b = 1, temp;
      74: 7306         	strb	r6, [r0, #0xc]
      76: 7000         	strb	r0, [r0]
      78: 2200         	movs	r2, #0x0
      7a: 009f         	lsls	r7, r3, #0x2

Disassembly of section .debug_str_offsets:

00000000 <.debug_str_offsets>:
; extern void* sbrk(ptrdiff_t increment) {
       0: 0068         	lsls	r0, r5, #0x1
       2: 0000         	movs	r0, r0
;     char* prev_heap_ptr = heap_ptr;
       4: 0005         	movs	r5, r0
       6: 0000         	movs	r0, r0
       8: 004a         	lsls	r2, r1, #0x1
;     if (increment > 0) {
       a: 0000         	movs	r0, r0
       c: 0032         	movs	r2, r6
       e: 0000         	movs	r0, r0
      10: 0073         	lsls	r3, r6, #0x1
;         if (heap_ptr + increment > &__heap_end) {
      12: 0000         	movs	r0, r0
      14: 0091         	lsls	r1, r2, #0x2
      16: 0000         	movs	r0, r0
      18: 00b8         	lsls	r0, r7, #0x2
      1a: 0000         	movs	r0, r0
      1c: 0212         	lsls	r2, r2, #0x8
      1e: 0000         	movs	r0, r0
      20: 0119         	lsls	r1, r3, #0x4
      22: 0000         	movs	r0, r0
      24: 0000         	movs	r0, r0
;             return (void*)-1;  // Return error if the heap is full
      26: 0000         	movs	r0, r0
      28: 00a5         	lsls	r5, r4, #0x2
;         heap_ptr += increment;
      2a: 0000         	movs	r0, r0
      2c: 00bd         	lsls	r5, r7, #0x2
      2e: 0000         	movs	r0, r0
      30: 009a         	lsls	r2, r3, #0x2
      32: 0000         	movs	r0, r0
;     }
      34: 00aa         	lsls	r2, r5, #0x2
;     return (void*)prev_heap_ptr;
      36: 0000         	movs	r0, r0
      38: 0013         	movs	r3, r2
      3a: 0000         	movs	r0, r0
; }
      3c: 0026         	movs	r6, r4
      3e: 0000         	movs	r0, r0
      40: 005f         	lsls	r7, r3, #0x1
      42: 0000         	movs	r0, r0
      44: 0030         	movs	r0, r6
      46: 0000         	movs	r0, r0
      48: 001f         	movs	r7, r3
      4a: 0000         	movs	r0, r0
; unsigned long long fibonacci(int n) {
      4c: 006d         	lsls	r5, r5, #0x1
      4e: 0000         	movs	r0, r0
;     if (n <= 0) return 0;
      50: 00b3         	lsls	r3, r6, #0x2
      52: 0000         	movs	r0, r0
      54: 001d         	movs	r5, r3
      56: 0000         	movs	r0, r0
      58: 0217         	lsls	r7, r2, #0x8
;     if (n <= 0) return 0;
      5a: 0000         	movs	r0, r0
      5c: 010c         	lsls	r4, r1, #0x4
      5e: 0000         	movs	r0, r0
;     if (n == 1) return 1;
      60: 0123         	lsls	r3, r4, #0x4
      62: 0000         	movs	r0, r0
      64: 008e         	lsls	r6, r1, #0x2
      66: 0000         	movs	r0, r0
      68: 0021         	movs	r1, r4
;     if (n == 1) return 1;
      6a: 0000         	movs	r0, r0
      6c: 0024         	movs	r4, r4
      6e: 0000         	movs	r0, r0
      70: 0005         	movs	r5, r0
      72: 0000         	movs	r0, r0
;     unsigned long long a = 0, b = 1, temp;
      74: 004a         	lsls	r2, r1, #0x1
      76: 0000         	movs	r0, r0
      78: 013d         	lsls	r5, r7, #0x4
      7a: 0000         	movs	r0, r0
      7c: 0179         	lsls	r1, r7, #0x5
      7e: 0000         	movs	r0, r0
;     for (int i = 2; i <= n; ++i) {
      80: 0137         	lsls	r7, r6, #0x4
      82: 0000         	movs	r0, r0
      84: 006d         	lsls	r5, r5, #0x1
      86: 0000         	movs	r0, r0
      88: 00c8         	lsls	r0, r1, #0x3
      8a: 0000         	movs	r0, r0
      8c: 010c         	lsls	r4, r1, #0x4
;         temp = a + b;
      8e: 0000         	movs	r0, r0
      90: 0043         	lsls	r3, r0, #0x1
      92: 0000         	movs	r0, r0
      94: 0034         	movs	r4, r6
      96: 0000         	movs	r0, r0
      98: 0005         	movs	r5, r0
      9a: 0000         	movs	r0, r0
      9c: 004a         	lsls	r2, r1, #0x1
;         a = b;
      9e: 0000         	movs	r0, r0
      a0: 00cf         	lsls	r7, r1, #0x3
      a2: 0000         	movs	r0, r0
      a4: 0179         	lsls	r1, r7, #0x5
;         b = temp;
      a6: 0000         	movs	r0, r0
      a8: 00b8         	lsls	r0, r7, #0x2
      aa: 0000         	movs	r0, r0
      ac: 00c1         	lsls	r1, r0, #0x3
;     }
      ae: 0000         	movs	r0, r0
;     for (int i = 2; i <= n; ++i) {
      b0: 006f         	lsls	r7, r5, #0x1
      b2: 0000         	movs	r0, r0
      b4: 0071         	lsls	r1, r6, #0x1
      b6: 0000         	movs	r0, r0
;     return b;
      b8: 00bd         	lsls	r5, r7, #0x2
      ba: 0000         	movs	r0, r0
      bc: 0030         	movs	r0, r6
      be: 0000         	movs	r0, r0
      c0: 010c         	lsls	r4, r1, #0x4
; }
      c2: 0000         	movs	r0, r0
      c4: 0043         	lsls	r3, r0, #0x1
      c6: 0000         	movs	r0, r0
      c8: 008c         	lsls	r4, r1, #0x2
; int main() {
      ca: 0000         	movs	r0, r0

Disassembly of section .ARM.attributes:

00000000 <.ARM.attributes>:
; extern void* sbrk(ptrdiff_t increment) {
       0: 4041         	eors	r1, r0
       2: 0000         	movs	r0, r0
;     char* prev_heap_ptr = heap_ptr;
       4: 6100         	str	r0, [r0, #0x10]
       6: 6165         	str	r5, [r4, #0x14]
       8: 6962         	ldr	r2, [r4, #0x14]
;     if (increment > 0) {
       a: 0100         	lsls	r0, r0, #0x4
       c: 0036         	movs	r6, r6
       e: 0000         	movs	r0, r0
      10: 3243         	adds	r2, #0x43
;         if (heap_ptr + increment > &__heap_end) {
      12: 302e         	adds	r0, #0x2e
      14: 0039         	movs	r1, r7
      16: 6305         	str	r5, [r0, #0x30]
      18: 726f         	strb	r7, [r5, #0x9]
      1a: 6574         	str	r4, [r6, #0x54]
      1c: 2d78         	cmp	r5, #0x78
      1e: 306d         	adds	r0, #0x6d
      20: 0600         	lsls	r0, r0, #0x18
      22: 070c         	lsls	r4, r1, #0x1c
      24: 084d         	lsrs	r5, r1, #0x1
;             return (void*)-1;  // Return error if the heap is full
      26: 0900         	lsrs	r0, r0, #0x4
      28: 0e01         	lsrs	r1, r0, #0x18
;         heap_ptr += increment;
      2a: 1100         	asrs	r0, r0, #0x4
      2c: 1201         	asrs	r1, r0, #0x8
      2e: 1404         	asrs	r4, r0, #0x10
      30: 1501         	asrs	r1, r0, #0x14
      32: 1700         	asrs	r0, r0, #0x1c
;     }
      34: 1803         	adds	r3, r0, r0
;     return (void*)prev_heap_ptr;
      36: 1901         	adds	r1, r0, r4
      38: 1a01         	subs	r1, r0, r0
      3a: 1e02         	subs	r2, r0, #0x0
; }
      3c: 2206         	movs	r2, #0x6
      3e: 2600         	movs	r6, #0x0
      40: 01           	<unknown>

Disassembly of section .symtab:

00000000 <.symtab>:
		...
;     if (increment > 0) {
      10: 0001         	movs	r1, r0
		...
;         if (heap_ptr + increment > &__heap_end) {
      1a: 0000         	movs	r0, r0
      1c: 0004         	movs	r4, r0
      1e: fff1 0007    	<unknown>
		...
;         heap_ptr += increment;
      2e: 0001         	movs	r1, r0
      30: 000a         	movs	r2, r1
      32: 0000         	movs	r0, r0
;     }
      34: 0044         	lsls	r4, r0, #0x1
		...
; }
      3e: 0001         	movs	r1, r0
      40: 000d         	movs	r5, r1
      42: 0000         	movs	r0, r0
      44: 0000         	movs	r0, r0
      46: 2000         	movs	r0, #0x0
      48: 0004         	movs	r4, r0
      4a: 0000         	movs	r0, r0
; unsigned long long fibonacci(int n) {
      4c: 0001         	movs	r1, r0
      4e: 0002         	movs	r2, r0
;     if (n <= 0) return 0;
      50: 0016         	movs	r6, r2
      52: 0000         	movs	r0, r0
      54: 004c         	lsls	r4, r1, #0x1
		...
      5e: 0001         	movs	r1, r0
;     if (n == 1) return 1;
      60: 0019         	movs	r1, r3
      62: 0000         	movs	r0, r0
      64: 011b         	lsls	r3, r3, #0x4
      66: 0000         	movs	r0, r0
      68: 0010         	movs	r0, r2
;     if (n == 1) return 1;
      6a: 0000         	movs	r0, r0
      6c: 0002         	movs	r2, r0
      6e: 0001         	movs	r1, r0
      70: 0024         	movs	r4, r4
      72: 0000         	movs	r0, r0
;     unsigned long long a = 0, b = 1, temp;
      74: 012b         	lsls	r3, r5, #0x4
      76: 0000         	movs	r0, r0
      78: 0010         	movs	r0, r2
      7a: 0000         	movs	r0, r0
      7c: 0002         	movs	r2, r0
      7e: 0001         	movs	r1, r0
;     for (int i = 2; i <= n; ++i) {
      80: 002d         	movs	r5, r5
		...
      8a: 0000         	movs	r0, r0
      8c: 0004         	movs	r4, r0
;         temp = a + b;
      8e: fff1 0035    	<unknown>
      92: 0000         	movs	r0, r0
      94: 013c         	lsls	r4, r7, #0x4
		...
;         a = b;
      9e: 0001         	movs	r1, r0
      a0: 0038         	movs	r0, r7
		...
;         b = temp;
      aa: 0000         	movs	r0, r0
      ac: 0004         	movs	r4, r0
;     }
      ae: fff1 0041    	<unknown>
;     for (int i = 2; i <= n; ++i) {
      b2: 0000         	movs	r0, r0
      b4: 014c         	lsls	r4, r1, #0x5
		...
;     return b;
      be: 0001         	movs	r1, r0
      c0: 0080         	lsls	r0, r0, #0x2
		...
; int main() {
      ca: 0000         	movs	r0, r0
      cc: 0200         	lsls	r0, r0, #0x8
      ce: 0001         	movs	r1, r0
      d0: 0044         	lsls	r4, r0, #0x1
      d2: 0000         	movs	r0, r0
      d4: 0001         	movs	r1, r0
      d6: 0000         	movs	r0, r0
      d8: 004c         	lsls	r4, r1, #0x1
      da: 0000         	movs	r0, r0
;     unsigned arr[N] = {0};
      dc: 0012         	movs	r2, r2
      de: 0001         	movs	r1, r0
      e0: 0049         	lsls	r1, r1, #0x1
;     for (unsigned i = 0; i < N; i++) {
      e2: 0000         	movs	r0, r0
      e4: 0000         	movs	r0, r0
      e6: 21f8         	movs	r1, #0xf8
      e8: 0000         	movs	r0, r0
      ea: 0000         	movs	r0, r0
      ec: 0010         	movs	r0, r2
;         arr[i] = fibonacci(i + 1);
      ee: fff1 0054    	<unknown>
      f2: 0000         	movs	r0, r0
      f4: 004d         	lsls	r5, r1, #0x1
      f6: 0000         	movs	r0, r0
      f8: 007e         	lsls	r6, r7, #0x1
      fa: 0000         	movs	r0, r0
      fc: 0012         	movs	r2, r2
;     }
      fe: 0001         	movs	r1, r0
;     for (unsigned i = 0; i < N; i++) {
     100: 005e         	lsls	r6, r3, #0x1
     102: 0000         	movs	r0, r0
     104: 00cb         	lsls	r3, r1, #0x3
     106: 0000         	movs	r0, r0
;     svc_putint(arr[N - 1]);
     108: 0050         	lsls	r0, r2, #0x1
     10a: 0000         	movs	r0, r0
     10c: 0012         	movs	r2, r2
     10e: 0001         	movs	r1, r0
;     svc_exit(0);
     110: 0063         	lsls	r3, r4, #0x1
     112: 0000         	movs	r0, r0
; }
     114: 013d         	lsls	r5, r7, #0x4
     116: 0000         	movs	r0, r0
     118: 000e         	movs	r6, r1
; static inline void svc_putint(int n) {
     11a: 0000         	movs	r0, r0
     11c: 0022         	movs	r2, r4
;      register int r0 __asm__("r0") = n;
     11e: 0001         	movs	r1, r0
     120: 0073         	lsls	r3, r6, #0x1
;      __asm volatile ("svc 3" :  : "r"(r0) : "memory");
     122: 0000         	movs	r0, r0
     124: 0008         	movs	r0, r1
; }
     126: 2000         	movs	r0, #0x0
     128: 0000         	movs	r0, r0
; static inline void svc_exit(unsigned code) {
     12a: 0000         	movs	r0, r0
     12c: 0010         	movs	r0, r2
;     register unsigned r0 __asm__("r0") = code;
     12e: 0005         	movs	r5, r0
     130: 008d         	lsls	r5, r1, #0x2
;     __asm volatile ("svc 0" :  : "r"(r0) : "memory");
     132: 0000         	movs	r0, r0
     134: 013d         	lsls	r5, r7, #0x4
; };
     136: 0000         	movs	r0, r0
     138: 000e         	movs	r6, r1
     13a: 0000         	movs	r0, r0
     13c: 0012         	movs	r2, r2
     13e: 0001         	movs	r1, r0
     140: 0093         	lsls	r3, r2, #0x2
     142: 0000         	movs	r0, r0
     144: 014d         	lsls	r5, r1, #0x5
     146: 0000         	movs	r0, r0
     148: 000e         	movs	r6, r1
     14a: 0000         	movs	r0, r0
     14c: 0012         	movs	r2, r2
     14e: 0001         	movs	r1, r0
     150: 009a         	lsls	r2, r3, #0x2
     152: 0000         	movs	r0, r0
     154: 013d         	lsls	r5, r7, #0x4
     156: 0000         	movs	r0, r0
     158: 000e         	movs	r6, r1
     15a: 0000         	movs	r0, r0
     15c: 0022         	movs	r2, r4
     15e: 0001         	movs	r1, r0
     160: 00aa         	lsls	r2, r5, #0x2
     162: 0000         	movs	r0, r0
     164: 013d         	lsls	r5, r7, #0x4
     166: 0000         	movs	r0, r0
     168: 000e         	movs	r6, r1
     16a: 0000         	movs	r0, r0
     16c: 0022         	movs	r2, r4
     16e: 0001         	movs	r1, r0
     170: 00b9         	lsls	r1, r7, #0x2
		...
     17a: 0000         	movs	r0, r0
     17c: 0010         	movs	r0, r2
     17e: fff1 00c1    	<unknown>
     182: 0000         	movs	r0, r0
     184: 0000         	movs	r0, r0
     186: 0010         	movs	r0, r2
     188: 0000         	movs	r0, r0
     18a: 0000         	movs	r0, r0
     18c: 0010         	movs	r0, r2
     18e: fff1 00ce    	<unknown>
     192: 0000         	movs	r0, r0
     194: 0000         	movs	r0, r0
     196: 2000         	movs	r0, #0x0
     198: 0000         	movs	r0, r0
     19a: 0000         	movs	r0, r0
     19c: 0010         	movs	r0, r2
     19e: fff1 00d4    	<unknown>
     1a2: 0000         	movs	r0, r0
     1a4: 0000         	movs	r0, r0
     1a6: 0200         	lsls	r0, r0, #0x8
     1a8: 0000         	movs	r0, r0
     1aa: 0000         	movs	r0, r0
     1ac: 0010         	movs	r0, r2
     1ae: fff1 00df    	<unknown>
     1b2: 0000         	movs	r0, r0
     1b4: 0001         	movs	r1, r0
     1b6: 0000         	movs	r0, r0
     1b8: 0000         	movs	r0, r0
     1ba: 0000         	movs	r0, r0
     1bc: 0010         	movs	r0, r2
     1be: fff1 00eb    	<unknown>
     1c2: 0000         	movs	r0, r0
     1c4: 0008         	movs	r0, r1
     1c6: 2000         	movs	r0, #0x0
     1c8: 0000         	movs	r0, r0
     1ca: 0000         	movs	r0, r0
     1cc: 0010         	movs	r0, r2
     1ce: 0005         	movs	r5, r0
     1d0: 00f5         	lsls	r5, r6, #0x3
     1d2: 0000         	movs	r0, r0
     1d4: 0000         	movs	r0, r0
     1d6: 0008         	movs	r0, r1
     1d8: 0000         	movs	r0, r0
     1da: 0000         	movs	r0, r0
     1dc: 0010         	movs	r0, r2
     1de: fff1 0105    	<unknown>
     1e2: 0000         	movs	r0, r0
     1e4: 0000         	movs	r0, r0
     1e6: 0008         	movs	r0, r1
     1e8: 0000         	movs	r0, r0
     1ea: 0000         	movs	r0, r0
     1ec: 0010         	movs	r0, r2
     1ee: fff1 0112    	<unknown>
     1f2: 0000         	movs	r0, r0
     1f4: 0008         	movs	r0, r1
     1f6: 0000         	movs	r0, r0
     1f8: 0000         	movs	r0, r0
     1fa: 0000         	movs	r0, r0
     1fc: 0010         	movs	r0, r2
     1fe: fff1 011e    	<unknown>
     202: 0000         	movs	r0, r0
     204: 0008         	movs	r0, r1
     206: 0000         	movs	r0, r0
     208: 0000         	movs	r0, r0
     20a: 0000         	movs	r0, r0
     20c: 0010         	movs	r0, r2
     20e: fff1 0131    	<unknown>
     212: 0000         	movs	r0, r0
     214: 0000         	movs	r0, r0
     216: 2200         	movs	r2, #0x0
     218: 0000         	movs	r0, r0
     21a: 0000         	movs	r0, r0
     21c: 0010         	movs	r0, r2
     21e: fff1 0139    	<unknown>
     222: 0000         	movs	r0, r0
     224: 0008         	movs	r0, r1
     226: 2000         	movs	r0, #0x0
     228: 0000         	movs	r0, r0
     22a: 0000         	movs	r0, r0
     22c: 0010         	movs	r0, r2
     22e: 0005         	movs	r5, r0
     230: 013f         	lsls	r7, r7, #0x4
     232: 0000         	movs	r0, r0
     234: 0168         	lsls	r0, r5, #0x5
     236: 0000         	movs	r0, r0
     238: 0000         	movs	r0, r0
     23a: 0000         	movs	r0, r0
     23c: 0010         	movs	r0, r2
     23e: fff1 0151    	<unknown>
     242: 0000         	movs	r0, r0
     244: 0160         	lsls	r0, r4, #0x5
     246: 0000         	movs	r0, r0
     248: 0000         	movs	r0, r0
     24a: 0000         	movs	r0, r0
     24c: 0010         	movs	r0, r2
     24e: fff1 015f    	<unknown>
     252: 0000         	movs	r0, r0
     254: 0168         	lsls	r0, r5, #0x5
     256: 0000         	movs	r0, r0
     258: 0000         	movs	r0, r0
     25a: 0000         	movs	r0, r0
     25c: 0010         	movs	r0, r2
     25e: fff1 0172    	<unknown>
     262: 0000         	movs	r0, r0
     264: 0008         	movs	r0, r1
     266: 2000         	movs	r0, #0x0
     268: 0000         	movs	r0, r0
     26a: 0000         	movs	r0, r0
     26c: 0010         	movs	r0, r2
     26e: 0003         	movs	r3, r0
     270: 017d         	lsls	r5, r7, #0x5
     272: 0000         	movs	r0, r0
     274: 0000         	movs	r0, r0
     276: 2000         	movs	r0, #0x0
     278: 0000         	movs	r0, r0
     27a: 0000         	movs	r0, r0
     27c: 0010         	movs	r0, r2
     27e: 0002         	movs	r2, r0
     280: 018a         	lsls	r2, r1, #0x6
     282: 0000         	movs	r0, r0
     284: 015a         	lsls	r2, r3, #0x5
     286: 0000         	movs	r0, r0
     288: 0000         	movs	r0, r0
     28a: 0000         	movs	r0, r0
     28c: 0010         	movs	r0, r2
     28e: 0001         	movs	r1, r0
     290: 0195         	lsls	r5, r2, #0x6
     292: 0000         	movs	r0, r0
     294: 0008         	movs	r0, r1
     296: 2000         	movs	r0, #0x0
     298: 0000         	movs	r0, r0
     29a: 0000         	movs	r0, r0
     29c: 0010         	movs	r0, r2
     29e: 0005         	movs	r5, r0

Disassembly of section .shstrtab:

00000000 <.shstrtab>:
; extern void* sbrk(ptrdiff_t increment) {
       0: 2e00         	cmp	r6, #0x0
       2: 6574         	str	r4, [r6, #0x54]
;     char* prev_heap_ptr = heap_ptr;
       4: 7478         	strb	r0, [r7, #0x11]
       6: 2e00         	cmp	r6, #0x0
       8: 6164         	str	r4, [r4, #0x14]
;     if (increment > 0) {
       a: 6174         	str	r4, [r6, #0x14]
       c: 2e00         	cmp	r6, #0x0
       e: 6474         	str	r4, [r6, #0x44]
      10: 7461         	strb	r1, [r4, #0x11]
;         if (heap_ptr + increment > &__heap_end) {
      12: 0061         	lsls	r1, r4, #0x1
      14: 742e         	strb	r6, [r5, #0x10]
      16: 7362         	strb	r2, [r4, #0xd]
      18: 0073         	lsls	r3, r6, #0x1
      1a: 622e         	str	r6, [r5, #0x20]
      1c: 7373         	strb	r3, [r6, #0xd]
      1e: 2e00         	cmp	r6, #0x0
      20: 6568         	str	r0, [r5, #0x54]
      22: 7061         	strb	r1, [r4, #0x1]
      24: 2e00         	cmp	r6, #0x0
;             return (void*)-1;  // Return error if the heap is full
      26: 7473         	strb	r3, [r6, #0x11]
      28: 6361         	str	r1, [r4, #0x34]
;         heap_ptr += increment;
      2a: 006b         	lsls	r3, r5, #0x1
      2c: 632e         	str	r6, [r5, #0x30]
      2e: 6d6f         	ldr	r7, [r5, #0x54]
      30: 656d         	str	r5, [r5, #0x54]
      32: 746e         	strb	r6, [r5, #0x11]
;     }
      34: 2e00         	cmp	r6, #0x0
;     return (void*)prev_heap_ptr;
      36: 6564         	str	r4, [r4, #0x54]
      38: 7562         	strb	r2, [r4, #0x15]
      3a: 5f67         	ldrsh	r7, [r4, r5]
; }
      3c: 6e69         	ldr	r1, [r5, #0x64]
      3e: 6f66         	ldr	r6, [r4, #0x74]
      40: 2e00         	cmp	r6, #0x0
      42: 6564         	str	r4, [r4, #0x54]
      44: 7562         	strb	r2, [r4, #0x15]
      46: 5f67         	ldrsh	r7, [r4, r5]
      48: 6261         	str	r1, [r4, #0x24]
      4a: 7262         	strb	r2, [r4, #0x9]
; unsigned long long fibonacci(int n) {
      4c: 7665         	strb	r5, [r4, #0x19]
      4e: 2e00         	cmp	r6, #0x0
;     if (n <= 0) return 0;
      50: 6564         	str	r4, [r4, #0x54]
      52: 7562         	strb	r2, [r4, #0x15]
      54: 5f67         	ldrsh	r7, [r4, r5]
      56: 696c         	ldr	r4, [r5, #0x14]
      58: 656e         	str	r6, [r5, #0x54]
;     if (n <= 0) return 0;
      5a: 2e00         	cmp	r6, #0x0
      5c: 6564         	str	r4, [r4, #0x54]
      5e: 7562         	strb	r2, [r4, #0x15]
;     if (n == 1) return 1;
      60: 5f67         	ldrsh	r7, [r4, r5]
      62: 7266         	strb	r6, [r4, #0x9]
      64: 6d61         	ldr	r1, [r4, #0x54]
      66: 0065         	lsls	r5, r4, #0x1
      68: 642e         	str	r6, [r5, #0x40]
;     if (n == 1) return 1;
      6a: 6265         	str	r5, [r4, #0x24]
      6c: 6775         	str	r5, [r6, #0x74]
      6e: 735f         	strb	r7, [r3, #0xd]
      70: 7274         	strb	r4, [r6, #0x9]
      72: 2e00         	cmp	r6, #0x0
;     unsigned long long a = 0, b = 1, temp;
      74: 6564         	str	r4, [r4, #0x54]
      76: 7562         	strb	r2, [r4, #0x15]
      78: 5f67         	ldrsh	r7, [r4, r5]
      7a: 6461         	str	r1, [r4, #0x44]
      7c: 7264         	strb	r4, [r4, #0x9]
      7e: 2e00         	cmp	r6, #0x0
;     for (int i = 2; i <= n; ++i) {
      80: 6564         	str	r4, [r4, #0x54]
      82: 7562         	strb	r2, [r4, #0x15]
      84: 5f67         	ldrsh	r7, [r4, r5]
      86: 696c         	ldr	r4, [r5, #0x14]
      88: 656e         	str	r6, [r5, #0x54]
      8a: 735f         	strb	r7, [r3, #0xd]
      8c: 7274         	strb	r4, [r6, #0x9]
;         temp = a + b;
      8e: 2e00         	cmp	r6, #0x0
      90: 6564         	str	r4, [r4, #0x54]
      92: 7562         	strb	r2, [r4, #0x15]
      94: 5f67         	ldrsh	r7, [r4, r5]
      96: 6f6c         	ldr	r4, [r5, #0x74]
      98: 6c63         	ldr	r3, [r4, #0x44]
      9a: 7369         	strb	r1, [r5, #0xd]
      9c: 7374         	strb	r4, [r6, #0xd]
;         a = b;
      9e: 2e00         	cmp	r6, #0x0
      a0: 6564         	str	r4, [r4, #0x54]
      a2: 7562         	strb	r2, [r4, #0x15]
      a4: 5f67         	ldrsh	r7, [r4, r5]
;         b = temp;
      a6: 7473         	strb	r3, [r6, #0x11]
      a8: 5f72         	ldrsh	r2, [r6, r5]
      aa: 666f         	str	r7, [r5, #0x64]
      ac: 7366         	strb	r6, [r4, #0xd]
;     }
      ae: 7465         	strb	r5, [r4, #0x11]
;     for (int i = 2; i <= n; ++i) {
      b0: 0073         	lsls	r3, r6, #0x1
      b2: 412e         	asrs	r6, r5
      b4: 4d52         	ldr	r5, [pc, #0x148]        @ 0x200 <.debug_line+0x200>
      b6: 612e         	str	r6, [r5, #0x10]
;     return b;
      b8: 7474         	strb	r4, [r6, #0x11]
      ba: 6972         	ldr	r2, [r6, #0x14]
      bc: 7562         	strb	r2, [r4, #0x15]
      be: 6574         	str	r4, [r6, #0x54]
      c0: 0073         	lsls	r3, r6, #0x1
; }
      c2: 732e         	strb	r6, [r5, #0xc]
      c4: 6d79         	ldr	r1, [r7, #0x54]
      c6: 6174         	str	r4, [r6, #0x14]
      c8: 0062         	lsls	r2, r4, #0x1
; int main() {
      ca: 732e         	strb	r6, [r5, #0xc]
      cc: 7368         	strb	r0, [r5, #0xd]
      ce: 7274         	strb	r4, [r6, #0x9]
      d0: 6174         	str	r4, [r6, #0x14]
      d2: 0062         	lsls	r2, r4, #0x1
      d4: 732e         	strb	r6, [r5, #0xc]
      d6: 7274         	strb	r4, [r6, #0x9]
      d8: 6174         	str	r4, [r6, #0x14]
      da: 0062         	lsls	r2, r4, #0x1

Disassembly of section .strtab:

00000000 <.strtab>:
; extern void* sbrk(ptrdiff_t increment) {
       0: 6600         	str	r0, [r0, #0x60]
       2: 6269         	str	r1, [r5, #0x24]
;     char* prev_heap_ptr = heap_ptr;
       4: 632e         	str	r6, [r5, #0x30]
       6: 2400         	movs	r4, #0x0
       8: 0074         	lsls	r4, r6, #0x1
;     if (increment > 0) {
       a: 6424         	str	r4, [r4, #0x40]
       c: 6800         	ldr	r0, [r0]
       e: 6165         	str	r5, [r4, #0x14]
      10: 5f70         	ldrsh	r0, [r6, r5]
;         if (heap_ptr + increment > &__heap_end) {
      12: 7470         	strb	r0, [r6, #0x11]
      14: 0072         	lsls	r2, r6, #0x1
      16: 7424         	strb	r4, [r4, #0x10]
      18: 7300         	strb	r0, [r0, #0xc]
      1a: 6376         	str	r6, [r6, #0x34]
      1c: 705f         	strb	r7, [r3, #0x1]
      1e: 7475         	strb	r5, [r6, #0x11]
      20: 6e69         	ldr	r1, [r5, #0x64]
      22: 0074         	lsls	r4, r6, #0x1
      24: 7673         	strb	r3, [r6, #0x19]
;             return (void*)-1;  // Return error if the heap is full
      26: 5f63         	ldrsh	r3, [r4, r5]
      28: 7865         	ldrb	r5, [r4, #0x1]
;         heap_ptr += increment;
      2a: 7469         	strb	r1, [r5, #0x11]
      2c: 6200         	str	r0, [r0, #0x20]
      2e: 657a         	str	r2, [r7, #0x54]
      30: 6f72         	ldr	r2, [r6, #0x74]
      32: 632e         	str	r6, [r5, #0x30]
;     }
      34: 2400         	movs	r4, #0x0
;     return (void*)prev_heap_ptr;
      36: 0074         	lsls	r4, r6, #0x1
      38: 656d         	str	r5, [r5, #0x54]
      3a: 736d         	strb	r5, [r5, #0xd]
; }
      3c: 7465         	strb	r5, [r4, #0x11]
      3e: 632e         	str	r6, [r5, #0x30]
      40: 2400         	movs	r4, #0x0
      42: 0074         	lsls	r4, r6, #0x1
      44: 6273         	str	r3, [r6, #0x24]
      46: 6b72         	ldr	r2, [r6, #0x34]
      48: 5f00         	ldrsh	r0, [r0, r4]
      4a: 685f         	ldr	r7, [r3, #0x4]
; unsigned long long fibonacci(int n) {
      4c: 6165         	str	r5, [r4, #0x14]
      4e: 5f70         	ldrsh	r0, [r6, r5]
;     if (n <= 0) return 0;
      50: 6e65         	ldr	r5, [r4, #0x64]
      52: 0064         	lsls	r4, r4, #0x1
      54: 6966         	ldr	r6, [r4, #0x14]
      56: 6f62         	ldr	r2, [r4, #0x74]
      58: 616e         	str	r6, [r5, #0x14]
;     if (n <= 0) return 0;
      5a: 6363         	str	r3, [r4, #0x34]
      5c: 0069         	lsls	r1, r5, #0x1
      5e: 616d         	str	r5, [r5, #0x14]
;     if (n == 1) return 1;
      60: 6e69         	ldr	r1, [r5, #0x64]
      62: 5f00         	ldrsh	r0, [r0, r4]
      64: 615f         	str	r7, [r3, #0x14]
      66: 6165         	str	r5, [r4, #0x14]
      68: 6962         	ldr	r2, [r4, #0x14]
;     if (n == 1) return 1;
      6a: 6d5f         	ldr	r7, [r3, #0x54]
      6c: 6d65         	ldr	r5, [r4, #0x54]
      6e: 6c63         	ldr	r3, [r4, #0x44]
      70: 3472         	adds	r4, #0x72
      72: 5f00         	ldrsh	r0, [r0, r4]
;     unsigned long long a = 0, b = 1, temp;
      74: 685f         	ldr	r7, [r3, #0x4]
      76: 6165         	str	r5, [r4, #0x14]
      78: 5f70         	ldrsh	r0, [r6, r5]
      7a: 7473         	strb	r3, [r6, #0x11]
      7c: 7261         	strb	r1, [r4, #0x9]
      7e: 0074         	lsls	r4, r6, #0x1
;     for (int i = 2; i <= n; ++i) {
      80: 5f5f         	ldrsh	r7, [r3, r5]
      82: 7364         	strb	r4, [r4, #0xd]
      84: 5f6f         	ldrsh	r7, [r5, r5]
      86: 6168         	str	r0, [r5, #0x14]
      88: 646e         	str	r6, [r5, #0x44]
      8a: 656c         	str	r4, [r5, #0x54]
      8c: 6200         	str	r0, [r0, #0x20]
;         temp = a + b;
      8e: 657a         	str	r2, [r7, #0x54]
      90: 6f72         	ldr	r2, [r6, #0x74]
      92: 6d00         	ldr	r0, [r0, #0x50]
      94: 6d65         	ldr	r5, [r4, #0x54]
      96: 6573         	str	r3, [r6, #0x54]
      98: 0074         	lsls	r4, r6, #0x1
      9a: 5f5f         	ldrsh	r7, [r3, r5]
      9c: 6561         	str	r1, [r4, #0x54]
;         a = b;
      9e: 6261         	str	r1, [r4, #0x24]
      a0: 5f69         	ldrsh	r1, [r5, r5]
      a2: 656d         	str	r5, [r5, #0x54]
      a4: 636d         	str	r5, [r5, #0x34]
;         b = temp;
      a6: 726c         	strb	r4, [r5, #0x9]
      a8: 0038         	movs	r0, r7
      aa: 5f5f         	ldrsh	r7, [r3, r5]
      ac: 6561         	str	r1, [r4, #0x54]
;     }
      ae: 6261         	str	r1, [r4, #0x24]
;     for (int i = 2; i <= n; ++i) {
      b0: 5f69         	ldrsh	r1, [r5, r5]
      b2: 656d         	str	r5, [r5, #0x54]
      b4: 636d         	str	r5, [r5, #0x34]
      b6: 726c         	strb	r4, [r5, #0x9]
;     return b;
      b8: 5f00         	ldrsh	r0, [r0, r4]
      ba: 665f         	str	r7, [r3, #0x64]
      bc: 616c         	str	r4, [r5, #0x14]
      be: 6873         	ldr	r3, [r6, #0x4]
      c0: 5f00         	ldrsh	r0, [r0, r4]
; }
      c2: 665f         	str	r7, [r3, #0x64]
      c4: 616c         	str	r4, [r5, #0x14]
      c6: 6873         	ldr	r3, [r6, #0x4]
      c8: 735f         	strb	r7, [r3, #0xd]
; int main() {
      ca: 7a69         	ldrb	r1, [r5, #0x9]
      cc: 0065         	lsls	r5, r4, #0x1
      ce: 5f5f         	ldrsh	r7, [r3, r5]
      d0: 6172         	str	r2, [r6, #0x14]
      d2: 006d         	lsls	r5, r5, #0x1
      d4: 5f5f         	ldrsh	r7, [r3, r5]
      d6: 6172         	str	r2, [r6, #0x14]
      d8: 5f6d         	ldrsh	r5, [r5, r5]
      da: 6973         	ldr	r3, [r6, #0x14]
;     unsigned arr[N] = {0};
      dc: 657a         	str	r2, [r7, #0x54]
      de: 5f00         	ldrsh	r0, [r0, r4]
      e0: 745f         	strb	r7, [r3, #0x11]
;     for (unsigned i = 0; i < N; i++) {
      e2: 736c         	strb	r4, [r5, #0xd]
      e4: 615f         	str	r7, [r3, #0x14]
      e6: 696c         	ldr	r4, [r5, #0x14]
      e8: 6e67         	ldr	r7, [r4, #0x64]
      ea: 5f00         	ldrsh	r0, [r0, r4]
      ec: 625f         	str	r7, [r3, #0x24]
;         arr[i] = fibonacci(i + 1);
      ee: 7373         	strb	r3, [r6, #0xd]
      f0: 655f         	str	r7, [r3, #0x54]
      f2: 646e         	str	r6, [r5, #0x44]
      f4: 5f00         	ldrsh	r0, [r0, r4]
      f6: 685f         	ldr	r7, [r3, #0x4]
      f8: 6165         	str	r5, [r4, #0x14]
      fa: 5f70         	ldrsh	r0, [r6, r5]
      fc: 6973         	ldr	r3, [r6, #0x14]
;     }
      fe: 657a         	str	r2, [r7, #0x54]
;     for (unsigned i = 0; i < N; i++) {
     100: 6d5f         	ldr	r7, [r3, #0x54]
     102: 6e69         	ldr	r1, [r5, #0x64]
     104: 5f00         	ldrsh	r0, [r0, r4]
     106: 735f         	strb	r7, [r3, #0xd]
;     svc_putint(arr[N - 1]);
     108: 6174         	str	r4, [r6, #0x14]
     10a: 6b63         	ldr	r3, [r4, #0x34]
     10c: 735f         	strb	r7, [r3, #0xd]
     10e: 7a69         	ldrb	r1, [r5, #0x9]
;     svc_exit(0);
     110: 0065         	lsls	r5, r4, #0x1
     112: 5f5f         	ldrsh	r7, [r3, r5]
; }
     114: 6164         	str	r4, [r4, #0x14]
     116: 6174         	str	r4, [r6, #0x14]
     118: 735f         	strb	r7, [r3, #0xd]
; static inline void svc_putint(int n) {
     11a: 7a69         	ldrb	r1, [r5, #0x9]
     11c: 0065         	lsls	r5, r4, #0x1
;      register int r0 __asm__("r0") = n;
     11e: 5f5f         	ldrsh	r7, [r3, r5]
     120: 6164         	str	r4, [r4, #0x14]
;      __asm volatile ("svc 3" :  : "r"(r0) : "memory");
     122: 6174         	str	r4, [r6, #0x14]
     124: 735f         	strb	r7, [r3, #0xd]
; }
     126: 756f         	strb	r7, [r5, #0x15]
     128: 6372         	str	r2, [r6, #0x34]
; static inline void svc_exit(unsigned code) {
     12a: 5f65         	ldrsh	r5, [r4, r5]
     12c: 6973         	ldr	r3, [r6, #0x14]
;     register unsigned r0 __asm__("r0") = code;
     12e: 657a         	str	r2, [r7, #0x54]
     130: 5f00         	ldrsh	r0, [r0, r4]
;     __asm volatile ("svc 0" :  : "r"(r0) : "memory");
     132: 735f         	strb	r7, [r3, #0xd]
     134: 6174         	str	r4, [r6, #0x14]
; };
     136: 6b63         	ldr	r3, [r4, #0x34]
     138: 5f00         	ldrsh	r0, [r0, r4]
     13a: 655f         	str	r7, [r3, #0x54]
     13c: 646e         	str	r6, [r5, #0x44]
     13e: 5f00         	ldrsh	r0, [r0, r4]
     140: 645f         	str	r7, [r3, #0x44]
     142: 7461         	strb	r1, [r4, #0x11]
     144: 5f61         	ldrsh	r1, [r4, r5]
     146: 6f73         	ldr	r3, [r6, #0x74]
     148: 7275         	strb	r5, [r6, #0x9]
     14a: 6563         	str	r3, [r4, #0x54]
     14c: 655f         	str	r7, [r3, #0x54]
     14e: 646e         	str	r6, [r5, #0x44]
     150: 5f00         	ldrsh	r0, [r0, r4]
     152: 645f         	str	r7, [r3, #0x44]
     154: 7461         	strb	r1, [r4, #0x11]
     156: 5f61         	ldrsh	r1, [r4, r5]
     158: 6f73         	ldr	r3, [r6, #0x74]
     15a: 7275         	strb	r5, [r6, #0x9]
     15c: 6563         	str	r3, [r4, #0x54]
     15e: 5f00         	ldrsh	r0, [r0, r4]
     160: 745f         	strb	r7, [r3, #0x11]
     162: 6164         	str	r4, [r4, #0x14]
     164: 6174         	str	r4, [r6, #0x14]
     166: 735f         	strb	r7, [r3, #0xd]
     168: 756f         	strb	r7, [r5, #0x15]
     16a: 6372         	str	r2, [r6, #0x34]
     16c: 5f65         	ldrsh	r5, [r4, r5]
     16e: 6e65         	ldr	r5, [r4, #0x64]
     170: 0064         	lsls	r4, r4, #0x1
     172: 5f5f         	ldrsh	r7, [r3, r5]
     174: 6164         	str	r4, [r4, #0x14]
     176: 6174         	str	r4, [r6, #0x14]
     178: 655f         	str	r7, [r3, #0x54]
     17a: 646e         	str	r6, [r5, #0x44]
     17c: 5f00         	ldrsh	r0, [r0, r4]
     17e: 645f         	str	r7, [r3, #0x44]
     180: 7461         	strb	r1, [r4, #0x11]
     182: 5f61         	ldrsh	r1, [r4, r5]
     184: 7473         	strb	r3, [r6, #0x11]
     186: 7261         	strb	r1, [r4, #0x9]
     188: 0074         	lsls	r4, r6, #0x1
     18a: 5f5f         	ldrsh	r7, [r3, r5]
     18c: 6574         	str	r4, [r6, #0x54]
     18e: 7478         	strb	r0, [r7, #0x11]
     190: 655f         	str	r7, [r3, #0x54]
     192: 646e         	str	r6, [r5, #0x44]
     194: 5f00         	ldrsh	r0, [r0, r4]
     196: 6e65         	ldr	r5, [r4, #0x64]
     198: 0064         	lsls	r4, r4, #0x1
