
benchmarks/makelist.out:	file format elf32-littlearm

Disassembly of section .text:

00000000 <sbrk>:
; extern void* sbrk(ptrdiff_t increment) {
       0: 4601         	mov	r1, r0
;     char* prev_heap_ptr = heap_ptr;
       2: 4a06         	ldr	r2, [pc, #0x18]         @ 0x1c <sbrk+0x1c>
       4: 6810         	ldr	r0, [r2]
;     if (increment > 0) {
       6: 2901         	cmp	r1, #0x1
       8: db07         	blt	0x1a <sbrk+0x1a>        @ imm = #0xe
;         if (heap_ptr + increment > &__heap_end) {
       a: 1841         	adds	r1, r0, r1
       c: 4b04         	ldr	r3, [pc, #0x10]         @ 0x20 <sbrk+0x20>
       e: 4299         	cmp	r1, r3
      10: d902         	bls	0x18 <sbrk+0x18>        @ imm = #0x4
      12: 2000         	movs	r0, #0x0
      14: 43c0         	mvns	r0, r0
; }
      16: 4770         	bx	lr
;         heap_ptr += increment;
      18: 6011         	str	r1, [r2]
; }
      1a: 4770         	bx	lr
      1c: 00 00 00 20  	.word	0x20000000
      20: 00 00 f8 21  	.word	0x21f80000

00000024 <main>:
; int main() {
      24: b5f0         	push	{r4, r5, r6, r7, lr}
      26: af03         	add	r7, sp, #0xc
      28: 4e59         	ldr	r6, [pc, #0x164]        @ 0x190 <main+0x16c>
      2a: 44b5         	add	sp, r6
      2c: 4855         	ldr	r0, [pc, #0x154]        @ 0x184 <main+0x160>
      2e: a904         	add	r1, sp, #0x10
;     volatile int arr[1000000];
      30: 1808         	adds	r0, r1, r0
      32: 9003         	str	r0, [sp, #0xc]
      34: 207d         	movs	r0, #0x7d
      36: 0142         	lsls	r2, r0, #0x5
      38: 188d         	adds	r5, r1, r2
      3a: 0182         	lsls	r2, r0, #0x6
      3c: 188a         	adds	r2, r1, r2
      3e: 9201         	str	r2, [sp, #0x4]
      40: 01c0         	lsls	r0, r0, #0x7
      42: 1808         	adds	r0, r1, r0
      44: 9002         	str	r0, [sp, #0x8]
      46: 2028         	movs	r0, #0x28
      48: 2100         	movs	r1, #0x0
      4a: 4e4f         	ldr	r6, [pc, #0x13c]        @ 0x188 <main+0x164>
;         arr[i] = (int) (i + 1);
      4c: 4602         	mov	r2, r0
      4e: 3a27         	subs	r2, #0x27
      50: ab04         	add	r3, sp, #0x10
      52: 505a         	str	r2, [r3, r1]
      54: 185a         	adds	r2, r3, r1
      56: 4603         	mov	r3, r0
      58: 3b26         	subs	r3, #0x26
      5a: 6053         	str	r3, [r2, #0x4]
      5c: 4603         	mov	r3, r0
      5e: 3b25         	subs	r3, #0x25
      60: 6093         	str	r3, [r2, #0x8]
      62: 4603         	mov	r3, r0
      64: 3b24         	subs	r3, #0x24
      66: 60d3         	str	r3, [r2, #0xc]
      68: 4603         	mov	r3, r0
      6a: 3b23         	subs	r3, #0x23
      6c: 6113         	str	r3, [r2, #0x10]
      6e: 4603         	mov	r3, r0
      70: 3b22         	subs	r3, #0x22
      72: 6153         	str	r3, [r2, #0x14]
      74: 4603         	mov	r3, r0
      76: 3b21         	subs	r3, #0x21
      78: 6193         	str	r3, [r2, #0x18]
      7a: 4603         	mov	r3, r0
      7c: 3b20         	subs	r3, #0x20
      7e: 61d3         	str	r3, [r2, #0x1c]
      80: 4603         	mov	r3, r0
      82: 3b1f         	subs	r3, #0x1f
      84: 6213         	str	r3, [r2, #0x20]
      86: 4603         	mov	r3, r0
      88: 3b1e         	subs	r3, #0x1e
      8a: 6253         	str	r3, [r2, #0x24]
      8c: 4603         	mov	r3, r0
      8e: 3b1d         	subs	r3, #0x1d
      90: 6293         	str	r3, [r2, #0x28]
      92: 4603         	mov	r3, r0
      94: 3b1c         	subs	r3, #0x1c
      96: 62d3         	str	r3, [r2, #0x2c]
      98: 4603         	mov	r3, r0
      9a: 3b1b         	subs	r3, #0x1b
      9c: 6313         	str	r3, [r2, #0x30]
      9e: 4603         	mov	r3, r0
      a0: 3b1a         	subs	r3, #0x1a
      a2: 6353         	str	r3, [r2, #0x34]
      a4: 4603         	mov	r3, r0
      a6: 3b19         	subs	r3, #0x19
      a8: 6393         	str	r3, [r2, #0x38]
      aa: 4603         	mov	r3, r0
      ac: 3b18         	subs	r3, #0x18
      ae: 63d3         	str	r3, [r2, #0x3c]
      b0: 4603         	mov	r3, r0
      b2: 3b17         	subs	r3, #0x17
      b4: 6413         	str	r3, [r2, #0x40]
      b6: 4603         	mov	r3, r0
      b8: 3b16         	subs	r3, #0x16
      ba: 6453         	str	r3, [r2, #0x44]
      bc: 4603         	mov	r3, r0
      be: 3b15         	subs	r3, #0x15
      c0: 6493         	str	r3, [r2, #0x48]
      c2: 4603         	mov	r3, r0
      c4: 3b14         	subs	r3, #0x14
      c6: 64d3         	str	r3, [r2, #0x4c]
      c8: 4603         	mov	r3, r0
      ca: 3b13         	subs	r3, #0x13
      cc: 6513         	str	r3, [r2, #0x50]
      ce: 4603         	mov	r3, r0
      d0: 3b12         	subs	r3, #0x12
      d2: 6553         	str	r3, [r2, #0x54]
      d4: 4603         	mov	r3, r0
      d6: 3b11         	subs	r3, #0x11
      d8: 6593         	str	r3, [r2, #0x58]
      da: 4603         	mov	r3, r0
      dc: 3b10         	subs	r3, #0x10
      de: 65d3         	str	r3, [r2, #0x5c]
      e0: 4603         	mov	r3, r0
      e2: 3b0f         	subs	r3, #0xf
      e4: 6613         	str	r3, [r2, #0x60]
      e6: 4603         	mov	r3, r0
      e8: 3b0e         	subs	r3, #0xe
      ea: 6653         	str	r3, [r2, #0x64]
      ec: 4603         	mov	r3, r0
      ee: 3b0d         	subs	r3, #0xd
      f0: 6693         	str	r3, [r2, #0x68]
      f2: 4603         	mov	r3, r0
      f4: 3b0c         	subs	r3, #0xc
      f6: 66d3         	str	r3, [r2, #0x6c]
      f8: 4603         	mov	r3, r0
      fa: 3b0b         	subs	r3, #0xb
      fc: 6713         	str	r3, [r2, #0x70]
      fe: 4603         	mov	r3, r0
     100: 3b0a         	subs	r3, #0xa
     102: 6753         	str	r3, [r2, #0x74]
     104: 4603         	mov	r3, r0
     106: 3b09         	subs	r3, #0x9
     108: 6793         	str	r3, [r2, #0x78]
     10a: 4603         	mov	r3, r0
     10c: 3b08         	subs	r3, #0x8
     10e: 67d3         	str	r3, [r2, #0x7c]
     110: 1fc3         	subs	r3, r0, #0x7
     112: 2480         	movs	r4, #0x80
     114: 5113         	str	r3, [r2, r4]
     116: 1f83         	subs	r3, r0, #0x6
     118: 2484         	movs	r4, #0x84
     11a: 5113         	str	r3, [r2, r4]
     11c: 1f43         	subs	r3, r0, #0x5
     11e: 2488         	movs	r4, #0x88
     120: 5113         	str	r3, [r2, r4]
     122: 1f03         	subs	r3, r0, #0x4
     124: 248c         	movs	r4, #0x8c
     126: 5113         	str	r3, [r2, r4]
     128: 1ec3         	subs	r3, r0, #0x3
     12a: 2490         	movs	r4, #0x90
     12c: 5113         	str	r3, [r2, r4]
     12e: 1e83         	subs	r3, r0, #0x2
     130: 2494         	movs	r4, #0x94
     132: 5113         	str	r3, [r2, r4]
     134: 1e43         	subs	r3, r0, #0x1
     136: 2498         	movs	r4, #0x98
     138: 5113         	str	r3, [r2, r4]
     13a: 239c         	movs	r3, #0x9c
     13c: 50d0         	str	r0, [r2, r3]
;     for (unsigned i = 0; i < len; i++) {
     13e: 31a0         	adds	r1, #0xa0
     140: 3028         	adds	r0, #0x28
     142: 42b0         	cmp	r0, r6
     144: d182         	bne	0x4c <main+0x28>        @ imm = #-0xfc
;         svc_putint(arr[i * 1000]);
     146: 9804         	ldr	r0, [sp, #0x10]
;      __asm volatile ("svc 3" :  : "r"(r0) : "memory");
     148: df03         	svc	#0x3
;      __asm volatile ("svc 1" :  : "r"(r0) : "memory");
     14a: 4910         	ldr	r1, [pc, #0x40]         @ 0x18c <main+0x168>
     14c: 4608         	mov	r0, r1
     14e: df01         	svc	#0x1
;         svc_putint(arr[i * 1000]);
     150: 6828         	ldr	r0, [r5]
;      __asm volatile ("svc 3" :  : "r"(r0) : "memory");
     152: df03         	svc	#0x3
;      __asm volatile ("svc 1" :  : "r"(r0) : "memory");
     154: 4608         	mov	r0, r1
     156: df01         	svc	#0x1
;         svc_putint(arr[i * 1000]);
     158: 9801         	ldr	r0, [sp, #0x4]
     15a: 6800         	ldr	r0, [r0]
;      __asm volatile ("svc 3" :  : "r"(r0) : "memory");
     15c: df03         	svc	#0x3
;      __asm volatile ("svc 1" :  : "r"(r0) : "memory");
     15e: 4608         	mov	r0, r1
     160: df01         	svc	#0x1
;         svc_putint(arr[i * 1000]);
     162: 9803         	ldr	r0, [sp, #0xc]
     164: 6800         	ldr	r0, [r0]
;      __asm volatile ("svc 3" :  : "r"(r0) : "memory");
     166: df03         	svc	#0x3
;      __asm volatile ("svc 1" :  : "r"(r0) : "memory");
     168: 4608         	mov	r0, r1
     16a: df01         	svc	#0x1
;         svc_putint(arr[i * 1000]);
     16c: 9802         	ldr	r0, [sp, #0x8]
     16e: 6800         	ldr	r0, [r0]
;      __asm volatile ("svc 3" :  : "r"(r0) : "memory");
     170: df03         	svc	#0x3
;      __asm volatile ("svc 1" :  : "r"(r0) : "memory");
     172: 4608         	mov	r0, r1
     174: df01         	svc	#0x1
     176: 2000         	movs	r0, #0x0
;     __asm volatile ("svc 0" :  : "r"(r0) : "memory");
     178: df00         	svc	#0x0
; }
     17a: 1ffe         	subs	r6, r7, #0x7
     17c: 3e05         	subs	r6, #0x5
     17e: 46b5         	mov	sp, r6
     180: bdf0         	pop	{r4, r5, r6, r7, pc}
     182: 46c0         	mov	r8, r8
     184: e0 2e 00 00  	.word	0x00002ee0
     188: 68 42 0f 00  	.word	0x000f4268
     18c: 98 01 00 00  	.word	0x00000198
     190: f0 f6 c2 ff  	.word	0xffc2f6f0

00000194 <__text_end>:
     194: d4 d4 d4 d4  	.word	0xd4d4d4d4

Disassembly of section .rodata:

00000198 <.rodata>:
     198: 000a         	movs	r2, r1

Disassembly of section .data:

20000000 <heap_ptr>:
20000000: 0008         	movs	r0, r1
20000002: 2000         	movs	r0, #0x0
20000004: 0000         	movs	r0, r0
20000006: 0000         	movs	r0, r0

Disassembly of section .heap:

20000008 <.heap>:
...

Disassembly of section .stack:

20080008 <.stack>:
...

Disassembly of section .comment:

00000000 <.comment>:
; extern void* sbrk(ptrdiff_t increment) {
       0: 6300         	str	r0, [r0, #0x30]
;     char* prev_heap_ptr = heap_ptr;
       2: 616c         	str	r4, [r5, #0x14]
       4: 676e         	str	r6, [r5, #0x74]
;     if (increment > 0) {
       6: 7620         	strb	r0, [r4, #0x18]
       8: 7265         	strb	r5, [r4, #0x9]
;         if (heap_ptr + increment > &__heap_end) {
       a: 6973         	ldr	r3, [r6, #0x14]
       c: 6e6f         	ldr	r7, [r5, #0x64]
       e: 3120         	adds	r1, #0x20
      10: 2e39         	cmp	r6, #0x39
      12: 2e31         	cmp	r6, #0x31
      14: 0035         	movs	r5, r6
; }
      16: 694c         	ldr	r4, [r1, #0x14]
;         heap_ptr += increment;
      18: 6b6e         	ldr	r6, [r5, #0x34]
; }
      1a: 7265         	strb	r5, [r4, #0x9]
      1c: 203a         	movs	r0, #0x3a
      1e: 4c4c         	ldr	r4, [pc, #0x130]        @ 0x150 <main+0x12c>
      20: 2044         	movs	r0, #0x44
      22: 3931         	subs	r1, #0x31
; int main() {
      24: 312e         	adds	r1, #0x2e
      26: 352e         	adds	r5, #0x2e
      28: 00           	<unknown>

Disassembly of section .debug_info:

00000000 <.debug_info>:
; extern void* sbrk(ptrdiff_t increment) {
       0: 0170         	lsls	r0, r6, #0x5
;     char* prev_heap_ptr = heap_ptr;
       2: 0000         	movs	r0, r0
       4: 0005         	movs	r5, r0
;     if (increment > 0) {
       6: 0401         	lsls	r1, r0, #0x10
       8: 0000         	movs	r0, r0
;         if (heap_ptr + increment > &__heap_end) {
       a: 0000         	movs	r0, r0
       c: 0001         	movs	r1, r0
       e: 001d         	movs	r5, r3
      10: 0801         	lsrs	r1, r0, #0x20
      12: 0000         	movs	r0, r0
      14: 0000         	movs	r0, r0
; }
      16: 0000         	movs	r0, r0
;         heap_ptr += increment;
      18: 0200         	lsls	r0, r0, #0x8
; }
      1a: 9402         	str	r4, [sp, #0x8]
      1c: 0001         	movs	r1, r0
      1e: 0800         	lsrs	r0, r0, #0x20
      20: 0000         	movs	r0, r0
      22: 0c00         	lsrs	r0, r0, #0x10
; int main() {
      24: 0000         	movs	r0, r0
      26: 0c00         	lsrs	r0, r0, #0x10
      28: 0000         	movs	r0, r0
      2a: 0200         	lsls	r0, r0, #0x8
      2c: 0035         	movs	r5, r6
      2e: 0000         	movs	r0, r0
;     volatile int arr[1000000];
      30: 0f00         	lsrs	r0, r0, #0x1c
      32: a102         	adr	r1, #8 <main+0x14>
      34: 0300         	lsls	r0, r0, #0xc
      36: 0041         	lsls	r1, r0, #0x1
      38: 0000         	movs	r0, r0
      3a: 4504         	cmp	r4, r0
      3c: 0000         	movs	r0, r0
      3e: 0200         	lsls	r0, r0, #0x8
      40: 0500         	lsls	r0, r0, #0x14
      42: 0803         	lsrs	r3, r0, #0x20
      44: 0601         	lsls	r1, r0, #0x18
      46: 0804         	lsrs	r4, r0, #0x20
      48: 0707         	lsls	r7, r0, #0x1c
      4a: 5405         	strb	r5, [r0, r0]
;         arr[i] = (int) (i + 1);
      4c: 0000         	movs	r0, r0
      4e: 0100         	lsls	r0, r0, #0x4
      50: 0209         	lsls	r1, r1, #0x8
      52: 01a1         	lsls	r1, r4, #0x6
      54: 4108         	asrs	r0, r1
      56: 0000         	movs	r0, r0
      58: 0900         	lsrs	r0, r0, #0x4
      5a: 0605         	lsls	r5, r0, #0x18
      5c: 0405         	lsls	r5, r0, #0x10
      5e: 020a         	lsls	r2, r1, #0x8
      60: 0024         	movs	r4, r4
      62: 0000         	movs	r0, r0
      64: 5701         	ldrsb	r1, [r0, r4]
      66: 010f         	lsls	r7, r1, #0x4
      68: 591a         	ldr	r2, [r3, r4]
      6a: 0000         	movs	r0, r0
      6c: 0b00         	lsrs	r0, r0, #0xc
      6e: 1100         	asrs	r0, r0, #0x4
      70: 1a01         	subs	r1, r0, r0
      72: 0157         	lsls	r7, r2, #0x5
      74: 0000         	movs	r0, r0
      76: 010c         	lsls	r4, r1, #0x4
      78: 0113         	lsls	r3, r2, #0x4
      7a: 541b         	strb	r3, [r3, r0]
      7c: 0000         	movs	r0, r0
      7e: 0000         	movs	r0, r0
      80: 070d         	lsls	r5, r1, #0x1c
      82: 1501         	asrs	r1, r0, #0x14
      84: 080e         	lsrs	r6, r1, #0x20
      86: 1501         	asrs	r1, r0, #0x14
      88: 005a         	lsls	r2, r3, #0x1
      8a: 0000         	movs	r0, r0
      8c: 090f         	lsrs	r7, r1, #0x4
      8e: 1601         	asrs	r1, r0, #0x18
      90: 005a         	lsls	r2, r3, #0x1
      92: 0000         	movs	r0, r0
      94: 0d00         	lsrs	r0, r0, #0x14
      96: 010a         	lsls	r2, r1, #0x4
      98: 0e10         	lsrs	r0, r2, #0x18
      9a: 010b         	lsls	r3, r1, #0x4
      9c: aa10         	add	r2, sp, #0x40
      9e: 0000         	movs	r0, r0
      a0: 0f00         	lsrs	r0, r0, #0x1c
      a2: 0109         	lsls	r1, r1, #0x4
      a4: aa11         	add	r2, sp, #0x44
      a6: 0000         	movs	r0, r0
      a8: 0000         	movs	r0, r0
      aa: af08         	add	r7, sp, #0x20
      ac: 0000         	movs	r0, r0
      ae: 1000         	asrs	r0, r0, #0x20
      b0: 0041         	lsls	r1, r0, #0x1
      b2: 0000         	movs	r0, r0
      b4: 0c0d         	lsrs	r5, r1, #0x10
      b6: 0b01         	lsrs	r1, r0, #0xc
      b8: 0d0e         	lsrs	r6, r1, #0x14
      ba: 0b01         	lsrs	r1, r0, #0xc
      bc: 00c9         	lsls	r1, r1, #0x3
      be: 0000         	movs	r0, r0
      c0: 090f         	lsrs	r7, r1, #0x4
      c2: 0c01         	lsrs	r1, r0, #0x10
      c4: 00c9         	lsls	r1, r1, #0x3
      c6: 0000         	movs	r0, r0
      c8: 0500         	lsls	r0, r0, #0x14
      ca: 070e         	lsls	r6, r1, #0x1c
      cc: 1104         	asrs	r4, r0, #0x4
      ce: 7003         	strb	r3, [r0]
      d0: 0001         	movs	r1, r0
      d2: 0100         	lsls	r0, r0, #0x4
      d4: 1057         	asrs	r7, r2, #0x1
      d6: 0500         	lsls	r0, r0, #0x14
      d8: 005a         	lsls	r2, r3, #0x1
      da: 0000         	movs	r0, r0
      dc: 0212         	lsls	r2, r2, #0x8
      de: 107d         	asrs	r5, r7, #0x1
      e0: 0014         	movs	r4, r2
      e2: 5f06         	ldrsh	r6, [r0, r4]
      e4: 0001         	movs	r1, r0
      e6: 0c00         	lsrs	r0, r0, #0x10
      e8: 1603         	asrs	r3, r0, #0x18
      ea: 0700         	lsls	r0, r0, #0x1c
      ec: 005a         	lsls	r2, r3, #0x1
      ee: 0000         	movs	r0, r0
      f0: 0413         	lsls	r3, r2, #0x10
      f2: 00fa         	lsls	r2, r7, #0x3
      f4: 0000         	movs	r0, r0
      f6: 020c         	lsls	r4, r1, #0x8
      f8: 0015         	movs	r5, r2
      fa: c908         	ldm	r1!, {r3}
      fc: 0000         	movs	r0, r0
      fe: 0000         	movs	r0, r0
     100: 0513         	lsls	r3, r2, #0x14
     102: 0032         	movs	r2, r6
     104: 0000         	movs	r0, r0
     106: 040c         	lsls	r4, r1, #0x10
     108: 0015         	movs	r5, r2
     10a: c90d         	ldm	r1!, {r0, r2, r3}
     10c: 0000         	movs	r0, r0
     10e: 1400         	asrs	r0, r0, #0x10
     110: 0080         	lsls	r0, r0, #0x2
     112: 0000         	movs	r0, r0
     114: 0000         	movs	r0, r0
     116: 090e         	lsrs	r6, r1, #0x4
     118: 0615         	lsls	r5, r2, #0x18
     11a: 0084         	lsls	r4, r0, #0x2
     11c: 0000         	movs	r0, r0
     11e: 0516         	lsls	r6, r2, #0x14
     120: 008c         	lsls	r4, r1, #0x2
     122: 0000         	movs	r0, r0
     124: 1400         	asrs	r0, r0, #0x10
     126: 0095         	lsls	r5, r2, #0x2
     128: 0000         	movs	r0, r0
     12a: 0001         	movs	r1, r0
     12c: 090f         	lsrs	r7, r1, #0x4
     12e: 0815         	lsrs	r5, r2, #0x20
     130: 0099         	lsls	r1, r3, #0x2
     132: 0000         	movs	r0, r0
     134: 0716         	lsls	r6, r2, #0x1c
     136: 00a1         	lsls	r1, r4, #0x2
     138: 0000         	movs	r0, r0
     13a: 0000         	movs	r0, r0
     13c: b417         	push	{r0, r1, r2, r4}
;     for (unsigned i = 0; i < len; i++) {
     13e: 0000         	movs	r0, r0
     140: 0600         	lsls	r0, r0, #0x18
     142: 0002         	movs	r2, r0
     144: 0000         	movs	r0, r0
;         svc_putint(arr[i * 1000]);
     146: 1200         	asrs	r0, r0, #0x8
;      __asm volatile ("svc 3" :  : "r"(r0) : "memory");
     148: 1805         	adds	r5, r0, r0
;      __asm volatile ("svc 1" :  : "r"(r0) : "memory");
     14a: b800         	<unknown>
     14c: 0000         	movs	r0, r0
     14e: 1900         	adds	r0, r0, r4
;         svc_putint(arr[i * 1000]);
     150: c000         	<unknown>
;      __asm volatile ("svc 3" :  : "r"(r0) : "memory");
     152: 0000         	movs	r0, r0
;      __asm volatile ("svc 1" :  : "r"(r0) : "memory");
     154: 0000         	movs	r0, r0
     156: 1a00         	subs	r0, r0, r0
;         svc_putint(arr[i * 1000]);
     158: 005a         	lsls	r2, r3, #0x1
     15a: 0000         	movs	r0, r0
;      __asm volatile ("svc 3" :  : "r"(r0) : "memory");
     15c: 0212         	lsls	r2, r2, #0x8
;      __asm volatile ("svc 1" :  : "r"(r0) : "memory");
     15e: 0312         	lsls	r2, r2, #0xc
     160: 016e         	lsls	r6, r5, #0x5
;         svc_putint(arr[i * 1000]);
     162: 0000         	movs	r0, r0
     164: 451b         	cmp	r3, r3
;      __asm volatile ("svc 3" :  : "r"(r0) : "memory");
     166: 0000         	movs	r0, r0
;      __asm volatile ("svc 1" :  : "r"(r0) : "memory");
     168: 4000         	ands	r0, r0
     16a: 0f42         	lsrs	r2, r0, #0x1d
;         svc_putint(arr[i * 1000]);
     16c: 0000         	movs	r0, r0
     16e: 5a1c         	ldrh	r4, [r3, r0]
;      __asm volatile ("svc 3" :  : "r"(r0) : "memory");
     170: 0000         	movs	r0, r0
;      __asm volatile ("svc 1" :  : "r"(r0) : "memory");
     172: 0000         	movs	r0, r0

Disassembly of section .debug_abbrev:

00000000 <.debug_abbrev>:
; extern void* sbrk(ptrdiff_t increment) {
       0: 1101         	asrs	r1, r0, #0x4
;     char* prev_heap_ptr = heap_ptr;
       2: 2501         	movs	r5, #0x1
       4: 1325         	asrs	r5, r4, #0xc
;     if (increment > 0) {
       6: 0305         	lsls	r5, r0, #0xc
       8: 7225         	strb	r5, [r4, #0x8]
;         if (heap_ptr + increment > &__heap_end) {
       a: 1017         	asrs	r7, r2, #0x20
       c: 1b17         	subs	r7, r2, r4
       e: 1125         	asrs	r5, r4, #0x4
      10: 121b         	asrs	r3, r3, #0x8
      12: 7306         	strb	r6, [r0, #0xc]
      14: 7417         	strb	r7, [r2, #0x10]
; }
      16: 8c17         	ldrh	r7, [r2, #0x20]
;         heap_ptr += increment;
      18: 1701         	asrs	r1, r0, #0x1c
; }
      1a: 0000         	movs	r0, r0
      1c: 3402         	adds	r4, #0x2
      1e: 4900         	ldr	r1, [pc, #0x0]          @ 0x20 <sbrk+0x20>
      20: 3a13         	subs	r2, #0x13
      22: 3b0b         	subs	r3, #0xb
; int main() {
      24: 020b         	lsls	r3, r1, #0x8
      26: 0018         	movs	r0, r3
      28: 0300         	lsls	r0, r0, #0xc
      2a: 0101         	lsls	r1, r0, #0x4
      2c: 1349         	asrs	r1, r1, #0xd
      2e: 0000         	movs	r0, r0
;     volatile int arr[1000000];
      30: 2104         	movs	r1, #0x4
      32: 4900         	ldr	r1, [pc, #0x0]          @ 0x34 <main+0x10>
      34: 3713         	adds	r7, #0x13
      36: 000b         	movs	r3, r1
      38: 0500         	lsls	r0, r0, #0x14
      3a: 0024         	movs	r4, r4
      3c: 2503         	movs	r5, #0x3
      3e: 0b3e         	lsrs	r6, r7, #0xc
      40: 0b0b         	lsrs	r3, r1, #0xc
      42: 0000         	movs	r0, r0
      44: 2406         	movs	r4, #0x6
      46: 0300         	lsls	r0, r0, #0xc
      48: 0b25         	lsrs	r5, r4, #0xc
      4a: 3e0b         	subs	r6, #0xb
;         arr[i] = (int) (i + 1);
      4c: 000b         	movs	r3, r1
      4e: 0700         	lsls	r0, r0, #0x1c
      50: 0034         	movs	r4, r6
      52: 2503         	movs	r5, #0x3
      54: 1349         	asrs	r1, r1, #0xd
      56: 0b3a         	lsrs	r2, r7, #0xc
      58: 0b3b         	lsrs	r3, r7, #0xc
      5a: 1802         	adds	r2, r0, r0
      5c: 0000         	movs	r0, r0
      5e: 0f08         	lsrs	r0, r1, #0x1c
      60: 4900         	ldr	r1, [pc, #0x0]          @ 0x64 <main+0x40>
      62: 0013         	movs	r3, r2
      64: 0900         	lsrs	r0, r0, #0x4
      66: 000f         	movs	r7, r1
      68: 0000         	movs	r0, r0
      6a: 2e0a         	cmp	r6, #0xa
      6c: 1101         	asrs	r1, r0, #0x4
      6e: 121b         	asrs	r3, r3, #0x8
      70: 4006         	ands	r6, r0
      72: 7a18         	ldrb	r0, [r3, #0x8]
      74: 0319         	lsls	r1, r3, #0xc
      76: 3a25         	subs	r2, #0x25
      78: 3b0b         	subs	r3, #0xb
      7a: 270b         	movs	r7, #0xb
      7c: 4919         	ldr	r1, [pc, #0x64]         @ 0xe4 <main+0xc0>
      7e: 3f13         	subs	r7, #0x13
      80: 0019         	movs	r1, r3
      82: 0b00         	lsrs	r0, r0, #0xc
      84: 0005         	movs	r5, r0
      86: 2202         	movs	r2, #0x2
      88: 2503         	movs	r5, #0x3
      8a: 0b3a         	lsrs	r2, r7, #0xc
      8c: 0b3b         	lsrs	r3, r7, #0xc
      8e: 1349         	asrs	r1, r1, #0xd
      90: 0000         	movs	r0, r0
      92: 340c         	adds	r4, #0xc
      94: 0200         	lsls	r0, r0, #0x8
      96: 0322         	lsls	r2, r4, #0xc
      98: 3a25         	subs	r2, #0x25
      9a: 3b0b         	subs	r3, #0xb
      9c: 490b         	ldr	r1, [pc, #0x2c]         @ 0xcc <main+0xa8>
      9e: 0013         	movs	r3, r2
      a0: 0d00         	lsrs	r0, r0, #0x14
      a2: 012e         	lsls	r6, r5, #0x4
      a4: 2503         	movs	r5, #0x3
      a6: 0b3a         	lsrs	r2, r7, #0xc
      a8: 0b3b         	lsrs	r3, r7, #0xc
      aa: 1927         	adds	r7, r4, r4
      ac: 2120         	movs	r1, #0x20
      ae: 0001         	movs	r1, r0
      b0: 0e00         	lsrs	r0, r0, #0x18
      b2: 0005         	movs	r5, r0
      b4: 2503         	movs	r5, #0x3
      b6: 0b3a         	lsrs	r2, r7, #0xc
      b8: 0b3b         	lsrs	r3, r7, #0xc
      ba: 1349         	asrs	r1, r1, #0xd
      bc: 0000         	movs	r0, r0
      be: 340f         	adds	r4, #0xf
      c0: 0300         	lsls	r0, r0, #0xc
      c2: 3a25         	subs	r2, #0x25
      c4: 3b0b         	subs	r3, #0xb
      c6: 490b         	ldr	r1, [pc, #0x2c]         @ 0xf4 <main+0xd0>
      c8: 0013         	movs	r3, r2
      ca: 1000         	asrs	r0, r0, #0x20
      cc: 0026         	movs	r6, r4
      ce: 1349         	asrs	r1, r1, #0xd
      d0: 0000         	movs	r0, r0
      d2: 2e11         	cmp	r6, #0x11
      d4: 1101         	asrs	r1, r0, #0x4
      d6: 121b         	asrs	r3, r3, #0x8
      d8: 4006         	ands	r6, r0
      da: 7a18         	ldrb	r0, [r3, #0x8]
      dc: 0319         	lsls	r1, r3, #0xc
      de: 3a25         	subs	r2, #0x25
      e0: 3b0b         	subs	r3, #0xb
      e2: 490b         	ldr	r1, [pc, #0x2c]         @ 0x110 <main+0xec>
      e4: 3f13         	subs	r7, #0x13
      e6: 0019         	movs	r1, r3
      e8: 1200         	asrs	r0, r0, #0x8
      ea: 0034         	movs	r4, r6
      ec: 1802         	adds	r2, r0, r0
      ee: 2503         	movs	r5, #0x3
      f0: 0b3a         	lsrs	r2, r7, #0xc
      f2: 0b3b         	lsrs	r3, r7, #0xc
      f4: 1349         	asrs	r1, r1, #0xd
      f6: 0000         	movs	r0, r0
      f8: 0b13         	lsrs	r3, r2, #0xc
      fa: 1101         	asrs	r1, r0, #0x4
      fc: 121b         	asrs	r3, r3, #0x8
      fe: 0006         	movs	r6, r0
     100: 1400         	asrs	r0, r0, #0x10
     102: 011d         	lsls	r5, r3, #0x4
     104: 1331         	asrs	r1, r6, #0xc
     106: 2355         	movs	r3, #0x55
     108: 0b58         	lsrs	r0, r3, #0xd
     10a: 0b59         	lsrs	r1, r3, #0xd
     10c: 0b57         	lsrs	r7, r2, #0xd
     10e: 0000         	movs	r0, r0
     110: 0515         	lsls	r5, r2, #0x14
     112: 0200         	lsls	r0, r0, #0x8
     114: 3122         	adds	r1, #0x22
     116: 0013         	movs	r3, r2
     118: 1600         	asrs	r0, r0, #0x18
     11a: 0034         	movs	r4, r6
     11c: 2202         	movs	r2, #0x2
     11e: 1331         	asrs	r1, r6, #0xc
     120: 0000         	movs	r0, r0
     122: 1d17         	adds	r7, r2, #0x4
     124: 3101         	adds	r1, #0x1
     126: 1113         	asrs	r3, r2, #0x4
     128: 121b         	asrs	r3, r3, #0x8
     12a: 5806         	ldr	r6, [r0, r0]
     12c: 590b         	ldr	r3, [r1, r4]
     12e: 570b         	ldrsb	r3, [r1, r4]
     130: 000b         	movs	r3, r1
     132: 1800         	adds	r0, r0, r0
     134: 0005         	movs	r5, r0
     136: 0f1c         	lsrs	r4, r3, #0x1c
     138: 1331         	asrs	r1, r6, #0xc
     13a: 0000         	movs	r0, r0
     13c: 3419         	adds	r4, #0x19
;     for (unsigned i = 0; i < len; i++) {
     13e: 1c00         	adds	r0, r0, #0x0
     140: 310f         	adds	r1, #0xf
     142: 0013         	movs	r3, r2
     144: 1a00         	subs	r0, r0, r0
;         svc_putint(arr[i * 1000]);
     146: 0016         	movs	r6, r2
;      __asm volatile ("svc 3" :  : "r"(r0) : "memory");
     148: 1349         	asrs	r1, r1, #0xd
;      __asm volatile ("svc 1" :  : "r"(r0) : "memory");
     14a: 2503         	movs	r5, #0x3
     14c: 0b3a         	lsrs	r2, r7, #0xc
     14e: 0b3b         	lsrs	r3, r7, #0xc
;         svc_putint(arr[i * 1000]);
     150: 0000         	movs	r0, r0
;      __asm volatile ("svc 3" :  : "r"(r0) : "memory");
     152: 211b         	movs	r1, #0x1b
;      __asm volatile ("svc 1" :  : "r"(r0) : "memory");
     154: 4900         	ldr	r1, [pc, #0x0]          @ 0x158 <main+0x134>
     156: 3713         	adds	r7, #0x13
;         svc_putint(arr[i * 1000]);
     158: 0006         	movs	r6, r0
     15a: 1c00         	adds	r0, r0, #0x0
;      __asm volatile ("svc 3" :  : "r"(r0) : "memory");
     15c: 0035         	movs	r5, r6
;      __asm volatile ("svc 1" :  : "r"(r0) : "memory");
     15e: 1349         	asrs	r1, r1, #0xd
     160: 0000         	movs	r0, r0
;         svc_putint(arr[i * 1000]);
     162: 00           	<unknown>

Disassembly of section .debug_line:

00000000 <.debug_line>:
; extern void* sbrk(ptrdiff_t increment) {
       0: 01f6         	lsls	r6, r6, #0x7
;     char* prev_heap_ptr = heap_ptr;
       2: 0000         	movs	r0, r0
       4: 0005         	movs	r5, r0
;     if (increment > 0) {
       6: 0004         	movs	r4, r0
       8: 0069         	lsls	r1, r5, #0x1
;         if (heap_ptr + increment > &__heap_end) {
       a: 0000         	movs	r0, r0
       c: 0101         	lsls	r1, r0, #0x4
       e: fb01 0d0e    	<unknown>
      12: 0100         	lsls	r0, r0, #0x4
      14: 0101         	lsls	r1, r0, #0x4
; }
      16: 0001         	movs	r1, r0
;         heap_ptr += increment;
      18: 0000         	movs	r0, r0
; }
      1a: 0001         	movs	r1, r0
      1c: 0100         	lsls	r0, r0, #0x4
      1e: 0101         	lsls	r1, r0, #0x4
      20: 031f         	lsls	r7, r3, #0xc
      22: 0022         	movs	r2, r4
; int main() {
      24: 0000         	movs	r0, r0
      26: 003b         	movs	r3, r7
      28: 0000         	movs	r0, r0
      2a: 0016         	movs	r6, r2
      2c: 0000         	movs	r0, r0
      2e: 0103         	lsls	r3, r0, #0x4
;     volatile int arr[1000000];
      30: 021f         	lsls	r7, r3, #0x8
      32: 050f         	lsls	r7, r1, #0x14
      34: 031e         	lsls	r6, r3, #0xc
      36: 0000         	movs	r0, r0
      38: 0000         	movs	r0, r0
      3a: d600         	bvs	0x3e <.debug_line+0x3e> @ imm = #0x0
      3c: 19e1         	adds	r1, r4, r7
      3e: 643c         	str	r4, [r7, #0x40]
      40: 5a58         	ldrh	r0, [r3, r1]
      42: 86f3         	strh	r3, [r6, #0x36]
      44: 04c8         	lsls	r0, r1, #0x13
      46: 4542         	cmp	r2, r8
      48: 3403         	adds	r4, #0x3
      4a: 9c99         	ldr	r4, [sp, #0x264]
;         arr[i] = (int) (i + 1);
      4c: 0000         	movs	r0, r0
      4e: 0100         	lsls	r0, r0, #0x4
      50: 9c5b         	ldr	r4, [sp, #0x16c]
      52: 2155         	movs	r1, #0x55
      54: e3d5         	b	0x802 <.rodata+0x66a>   @ imm = #0x7aa
      56: a127         	adr	r1, #156 <.debug_line+0x81>
      58: a52a         	adr	r5, #168 <.debug_line+0x86>
      5a: 8fab         	ldrh	r3, [r5, #0x3c]
      5c: b551         	push	{r0, r4, r6, lr}
      5e: 7e63         	ldrb	r3, [r4, #0x19]
      60: 0052         	lsls	r2, r2, #0x1
      62: 0000         	movs	r0, r0
      64: 2102         	movs	r1, #0x2
      66: c4e0         	stm	r4!, {r5, r6, r7}
      68: 330f         	adds	r3, #0xf
      6a: 7915         	ldrb	r5, [r2, #0x4]
      6c: 917d         	str	r1, [sp, #0x1f4]
      6e: c75c         	stm	r7!, {r2, r3, r4, r6}
      70: 60ea         	str	r2, [r5, #0xc]
      72: 0a04         	lsrs	r4, r0, #0x8
      74: 0098         	lsls	r0, r3, #0x2
      76: 0205         	lsls	r5, r0, #0x8
      78: 0000         	movs	r0, r0
      7a: 0000         	movs	r0, r0
      7c: 1903         	adds	r3, r0, r4
      7e: 0501         	lsls	r1, r0, #0x14
      80: 0a1b         	lsrs	r3, r3, #0x8
      82: 052f         	lsls	r7, r5, #0x14
      84: 4d09         	ldr	r5, [pc, #0x24]         @ 0xac <.debug_line+0xac>
      86: 1605         	asrs	r5, r0, #0x18
      88: 054c         	lsls	r4, r1, #0x15
      8a: 0622         	lsls	r2, r4, #0x18
      8c: 052e         	lsls	r6, r5, #0x14
      8e: 2e0d         	cmp	r6, #0xd
      90: 6003         	str	r3, [r0]
      92: 054a         	lsls	r2, r1, #0x15
      94: 0601         	lsls	r1, r0, #0x18
      96: 2a03         	cmp	r2, #0x3
      98: 054a         	lsls	r2, r1, #0x15
      9a: 2912         	cmp	r1, #0x12
      9c: 0105         	lsls	r5, r0, #0x4
      9e: 0633         	lsls	r3, r6, #0x18
      a0: 5603         	ldrsb	r3, [r0, r0]
      a2: 042e         	lsls	r6, r5, #0x10
      a4: 0500         	lsls	r0, r0, #0x14
      a6: 0600         	lsls	r0, r0, #0x18
      a8: 0587         	lsls	r7, r0, #0x16
      aa: 0a05         	lsrs	r5, r0, #0x8
      ac: 06bb         	lsls	r3, r7, #0x1a
      ae: 7a03         	ldrb	r3, [r0, #0x8]
      b0: 9008         	str	r0, [sp, #0x20]
      b2: 0905         	lsrs	r5, r0, #0x4
      b4: 0306         	lsls	r6, r0, #0xc
      b6: 2e09         	cmp	r6, #0x9
      b8: 1005         	asrs	r5, r0, #0x20
      ba: 6606         	str	r6, [r0, #0x60]
      bc: 0905         	lsrs	r5, r0, #0x4
      be: 054a         	lsls	r2, r1, #0x15
      c0: 4a10         	ldr	r2, [pc, #0x40]         @ 0x104 <.debug_line+0x104>
      c2: 0905         	lsrs	r5, r0, #0x4
      c4: 052e         	lsls	r6, r5, #0x14
      c6: 4a10         	ldr	r2, [pc, #0x40]         @ 0x108 <.debug_line+0x108>
      c8: 0905         	lsrs	r5, r0, #0x4
      ca: 052e         	lsls	r6, r5, #0x14
      cc: 4a10         	ldr	r2, [pc, #0x40]         @ 0x110 <.debug_line+0x110>
      ce: 0905         	lsrs	r5, r0, #0x4
      d0: 052e         	lsls	r6, r5, #0x14
      d2: 4a10         	ldr	r2, [pc, #0x40]         @ 0x114 <.debug_line+0x114>
      d4: 0905         	lsrs	r5, r0, #0x4
      d6: 052e         	lsls	r6, r5, #0x14
      d8: 4a10         	ldr	r2, [pc, #0x40]         @ 0x11c <.debug_line+0x11c>
      da: 0905         	lsrs	r5, r0, #0x4
      dc: 052e         	lsls	r6, r5, #0x14
      de: 4a10         	ldr	r2, [pc, #0x40]         @ 0x120 <.debug_line+0x120>
      e0: 0905         	lsrs	r5, r0, #0x4
      e2: 052e         	lsls	r6, r5, #0x14
      e4: 4a10         	ldr	r2, [pc, #0x40]         @ 0x128 <.debug_line+0x128>
      e6: 0905         	lsrs	r5, r0, #0x4
      e8: 052e         	lsls	r6, r5, #0x14
      ea: 4a10         	ldr	r2, [pc, #0x40]         @ 0x12c <.debug_line+0x12c>
      ec: 0905         	lsrs	r5, r0, #0x4
      ee: 052e         	lsls	r6, r5, #0x14
      f0: 4a10         	ldr	r2, [pc, #0x40]         @ 0x134 <.debug_line+0x134>
      f2: 0905         	lsrs	r5, r0, #0x4
      f4: 052e         	lsls	r6, r5, #0x14
      f6: 4a10         	ldr	r2, [pc, #0x40]         @ 0x138 <.debug_line+0x138>
      f8: 0905         	lsrs	r5, r0, #0x4
      fa: 052e         	lsls	r6, r5, #0x14
      fc: 4a10         	ldr	r2, [pc, #0x40]         @ 0x140 <.debug_line+0x140>
      fe: 0905         	lsrs	r5, r0, #0x4
     100: 052e         	lsls	r6, r5, #0x14
     102: 4a10         	ldr	r2, [pc, #0x40]         @ 0x144 <.debug_line+0x144>
     104: 0905         	lsrs	r5, r0, #0x4
     106: 052e         	lsls	r6, r5, #0x14
     108: 4a10         	ldr	r2, [pc, #0x40]         @ 0x14c <.debug_line+0x14c>
     10a: 0905         	lsrs	r5, r0, #0x4
     10c: 052e         	lsls	r6, r5, #0x14
     10e: 4a10         	ldr	r2, [pc, #0x40]         @ 0x150 <.debug_line+0x150>
     110: 0905         	lsrs	r5, r0, #0x4
     112: 052e         	lsls	r6, r5, #0x14
     114: 4a10         	ldr	r2, [pc, #0x40]         @ 0x158 <.debug_line+0x158>
     116: 0905         	lsrs	r5, r0, #0x4
     118: 052e         	lsls	r6, r5, #0x14
     11a: 4a10         	ldr	r2, [pc, #0x40]         @ 0x15c <.debug_line+0x15c>
     11c: 0905         	lsrs	r5, r0, #0x4
     11e: 052e         	lsls	r6, r5, #0x14
     120: 4a10         	ldr	r2, [pc, #0x40]         @ 0x164 <.debug_line+0x164>
     122: 0905         	lsrs	r5, r0, #0x4
     124: 052e         	lsls	r6, r5, #0x14
     126: 4a10         	ldr	r2, [pc, #0x40]         @ 0x168 <.debug_line+0x168>
     128: 0905         	lsrs	r5, r0, #0x4
     12a: 052e         	lsls	r6, r5, #0x14
     12c: 4a10         	ldr	r2, [pc, #0x40]         @ 0x170 <.debug_line+0x170>
     12e: 0905         	lsrs	r5, r0, #0x4
     130: 052e         	lsls	r6, r5, #0x14
     132: 4a10         	ldr	r2, [pc, #0x40]         @ 0x174 <.debug_line+0x174>
     134: 0905         	lsrs	r5, r0, #0x4
     136: 052e         	lsls	r6, r5, #0x14
     138: 4a10         	ldr	r2, [pc, #0x40]         @ 0x17c <.debug_line+0x17c>
     13a: 0905         	lsrs	r5, r0, #0x4
     13c: 052e         	lsls	r6, r5, #0x14
;     for (unsigned i = 0; i < len; i++) {
     13e: 4a10         	ldr	r2, [pc, #0x40]         @ 0x180 <.debug_line+0x180>
     140: 0905         	lsrs	r5, r0, #0x4
     142: 052e         	lsls	r6, r5, #0x14
     144: 4a10         	ldr	r2, [pc, #0x40]         @ 0x188 <.debug_line+0x188>
;         svc_putint(arr[i * 1000]);
     146: 0905         	lsrs	r5, r0, #0x4
;      __asm volatile ("svc 3" :  : "r"(r0) : "memory");
     148: 052e         	lsls	r6, r5, #0x14
;      __asm volatile ("svc 1" :  : "r"(r0) : "memory");
     14a: 4a10         	ldr	r2, [pc, #0x40]         @ 0x18c <.debug_line+0x18c>
     14c: 0905         	lsrs	r5, r0, #0x4
     14e: 052e         	lsls	r6, r5, #0x14
;         svc_putint(arr[i * 1000]);
     150: 4a10         	ldr	r2, [pc, #0x40]         @ 0x194 <.debug_line+0x194>
;      __asm volatile ("svc 3" :  : "r"(r0) : "memory");
     152: 0905         	lsrs	r5, r0, #0x4
;      __asm volatile ("svc 1" :  : "r"(r0) : "memory");
     154: 052e         	lsls	r6, r5, #0x14
     156: 4a10         	ldr	r2, [pc, #0x40]         @ 0x198 <.rodata>
;         svc_putint(arr[i * 1000]);
     158: 0905         	lsrs	r5, r0, #0x4
     15a: 052e         	lsls	r6, r5, #0x14
;      __asm volatile ("svc 3" :  : "r"(r0) : "memory");
     15c: 4a10         	ldr	r2, [pc, #0x40]         @ 0x1a0 <.rodata+0x8>
;      __asm volatile ("svc 1" :  : "r"(r0) : "memory");
     15e: 0905         	lsrs	r5, r0, #0x4
     160: 052e         	lsls	r6, r5, #0x14
;         svc_putint(arr[i * 1000]);
     162: 4a10         	ldr	r2, [pc, #0x40]         @ 0x1a4 <.rodata+0xc>
     164: 0905         	lsrs	r5, r0, #0x4
;      __asm volatile ("svc 3" :  : "r"(r0) : "memory");
     166: 052e         	lsls	r6, r5, #0x14
;      __asm volatile ("svc 1" :  : "r"(r0) : "memory");
     168: 4a10         	ldr	r2, [pc, #0x40]         @ 0x1ac <.rodata+0x14>
     16a: 0905         	lsrs	r5, r0, #0x4
;         svc_putint(arr[i * 1000]);
     16c: 052e         	lsls	r6, r5, #0x14
     16e: 4a10         	ldr	r2, [pc, #0x40]         @ 0x1b0 <.rodata+0x18>
;      __asm volatile ("svc 3" :  : "r"(r0) : "memory");
     170: 0905         	lsrs	r5, r0, #0x4
;      __asm volatile ("svc 1" :  : "r"(r0) : "memory");
     172: 052e         	lsls	r6, r5, #0x14
     174: 4a10         	ldr	r2, [pc, #0x40]         @ 0x1b8 <.rodata+0x20>
     176: 0905         	lsrs	r5, r0, #0x4
;     __asm volatile ("svc 0" :  : "r"(r0) : "memory");
     178: 052e         	lsls	r6, r5, #0x14
; }
     17a: 4a10         	ldr	r2, [pc, #0x40]         @ 0x1bc <.rodata+0x24>
     17c: 0905         	lsrs	r5, r0, #0x4
     17e: 052e         	lsls	r6, r5, #0x14
     180: 4a10         	ldr	r2, [pc, #0x40]         @ 0x1c4 <.rodata+0x2c>
     182: 0905         	lsrs	r5, r0, #0x4
     184: 052e         	lsls	r6, r5, #0x14
     186: 4a10         	ldr	r2, [pc, #0x40]         @ 0x1c8 <.rodata+0x30>
     188: 0905         	lsrs	r5, r0, #0x4
     18a: 052e         	lsls	r6, r5, #0x14
     18c: 4a10         	ldr	r2, [pc, #0x40]         @ 0x1d0 <.rodata+0x38>
     18e: 0905         	lsrs	r5, r0, #0x4
     190: 052e         	lsls	r6, r5, #0x14
     192: 4a10         	ldr	r2, [pc, #0x40]         @ 0x1d4 <.rodata+0x3c>
     194: 0905         	lsrs	r5, r0, #0x4
     196: 052e         	lsls	r6, r5, #0x14
     198: 4a10         	ldr	r2, [pc, #0x40]         @ 0x1dc <.rodata+0x44>
     19a: 0905         	lsrs	r5, r0, #0x4
     19c: 052e         	lsls	r6, r5, #0x14
     19e: 4a10         	ldr	r2, [pc, #0x40]         @ 0x1e0 <.rodata+0x48>
     1a0: 1c05         	adds	r5, r0, #0x0
     1a2: 6506         	str	r6, [r0, #0x50]
     1a4: 0505         	lsls	r5, r0, #0x14
     1a6: 4a06         	ldr	r2, [pc, #0x18]         @ 0x1c0 <.rodata+0x28>
     1a8: 1405         	asrs	r5, r0, #0x10
     1aa: 5006         	str	r6, [r0, r0]
     1ac: 0104         	lsls	r4, r0, #0x4
     1ae: 0605         	lsls	r5, r0, #0x18
     1b0: 0903         	lsrs	r3, r0, #0x4
     1b2: 292e         	cmp	r1, #0x2e
     1b4: 0004         	movs	r4, r0
     1b6: 1405         	asrs	r5, r0, #0x10
     1b8: 0462         	lsls	r2, r4, #0x11
     1ba: 0501         	lsls	r1, r0, #0x14
     1bc: 0306         	lsls	r6, r0, #0xc
     1be: 2e09         	cmp	r6, #0x9
     1c0: 0429         	lsls	r1, r5, #0x10
     1c2: 0500         	lsls	r0, r0, #0x14
     1c4: 4614         	mov	r4, r2
     1c6: 0104         	lsls	r4, r0, #0x4
     1c8: 0605         	lsls	r5, r0, #0x18
     1ca: 0903         	lsrs	r3, r0, #0x4
     1cc: 294a         	cmp	r1, #0x4a
     1ce: 0004         	movs	r4, r0
     1d0: 1405         	asrs	r5, r0, #0x10
     1d2: 0446         	lsls	r6, r0, #0x11
     1d4: 0501         	lsls	r1, r0, #0x14
     1d6: 0306         	lsls	r6, r0, #0xc
     1d8: 4a09         	ldr	r2, [pc, #0x24]         @ 0x200 <.rodata+0x68>
     1da: 0429         	lsls	r1, r5, #0x10
     1dc: 0500         	lsls	r0, r0, #0x14
     1de: 4614         	mov	r4, r2
     1e0: 0104         	lsls	r4, r0, #0x4
     1e2: 0605         	lsls	r5, r0, #0x18
     1e4: 0903         	lsrs	r3, r0, #0x4
     1e6: 294a         	cmp	r1, #0x4a
     1e8: 0505         	lsls	r5, r0, #0x14
     1ea: 0461         	lsls	r1, r4, #0x11
     1ec: 0500         	lsls	r0, r0, #0x14
     1ee: 0b01         	lsrs	r1, r0, #0xc
     1f0: 0634         	lsls	r4, r6, #0x18
     1f2: 6d03         	ldr	r3, [r0, #0x50]
     1f4: 029e         	lsls	r6, r3, #0xa
     1f6: 0010         	movs	r0, r2
     1f8: 0101         	lsls	r1, r0, #0x4

Disassembly of section .debug_frame:

00000000 <.debug_frame>:
; extern void* sbrk(ptrdiff_t increment) {
       0: 0010         	movs	r0, r2
;     char* prev_heap_ptr = heap_ptr;
       2: 0000         	movs	r0, r0
       4: ffff ffff    	<unknown>
;     if (increment > 0) {
       8: 0004         	movs	r4, r0
;         if (heap_ptr + increment > &__heap_end) {
       a: 0004         	movs	r4, r0
       c: 7c01         	ldrb	r1, [r0, #0x10]
       e: 0c0e         	lsrs	r6, r1, #0x10
      10: 000d         	movs	r5, r1
      12: 0000         	movs	r0, r0
      14: 000c         	movs	r4, r1
		...
      1e: 0000         	movs	r0, r0
      20: 0024         	movs	r4, r4
      22: 0000         	movs	r0, r0
; int main() {
      24: 0020         	movs	r0, r4
      26: 0000         	movs	r0, r0
      28: 0000         	movs	r0, r0
      2a: 0000         	movs	r0, r0
      2c: 0024         	movs	r4, r4
      2e: 0000         	movs	r0, r0
;     volatile int arr[1000000];
      30: 0170         	lsls	r0, r6, #0x5
      32: 0000         	movs	r0, r0
      34: 0e42         	lsrs	r2, r0, #0x19
      36: 8e14         	ldrh	r4, [r2, #0x30]
      38: 8701         	strh	r1, [r0, #0x38]
      3a: 8602         	strh	r2, [r0, #0x30]
      3c: 8503         	strh	r3, [r0, #0x28]
      3e: 8404         	strh	r4, [r0, #0x20]
      40: 4205         	tst	r5, r0
      42: 070c         	lsls	r4, r1, #0x1c
      44: 0008         	movs	r0, r1
      46: 0000         	movs	r0, r0

Disassembly of section .debug_str:

00000000 <.debug_str>:
; extern void* sbrk(ptrdiff_t increment) {
       0: 6e69         	ldr	r1, [r5, #0x64]
;     char* prev_heap_ptr = heap_ptr;
       2: 7263         	strb	r3, [r4, #0x9]
       4: 6d65         	ldr	r5, [r4, #0x54]
;     if (increment > 0) {
       6: 6e65         	ldr	r5, [r4, #0x64]
       8: 0074         	lsls	r4, r6, #0x1
;         if (heap_ptr + increment > &__heap_end) {
       a: 6562         	str	r2, [r4, #0x54]
       c: 636e         	str	r6, [r5, #0x34]
       e: 6d68         	ldr	r0, [r5, #0x54]
      10: 7261         	strb	r1, [r4, #0x9]
      12: 736b         	strb	r3, [r5, #0xd]
      14: 6d2f         	ldr	r7, [r5, #0x50]
; }
      16: 6b61         	ldr	r1, [r4, #0x34]
;         heap_ptr += increment;
      18: 6c65         	ldr	r5, [r4, #0x44]
; }
      1a: 7369         	strb	r1, [r5, #0xd]
      1c: 2e74         	cmp	r6, #0x74
      1e: 0063         	lsls	r3, r4, #0x1
      20: 0069         	lsls	r1, r5, #0x1
      22: 656c         	str	r4, [r5, #0x54]
; int main() {
      24: 006e         	lsls	r6, r5, #0x1
      26: 6f63         	ldr	r3, [r4, #0x74]
      28: 6564         	str	r4, [r4, #0x54]
      2a: 6e00         	ldr	r0, [r0, #0x60]
      2c: 7000         	strb	r0, [r0]
      2e: 7274         	strb	r4, [r6, #0x9]
;     volatile int arr[1000000];
      30: 6964         	ldr	r4, [r4, #0x14]
      32: 6666         	str	r6, [r4, #0x64]
      34: 745f         	strb	r7, [r3, #0x11]
      36: 6300         	str	r0, [r0, #0x30]
      38: 616c         	str	r4, [r5, #0x14]
      3a: 676e         	str	r6, [r5, #0x74]
      3c: 7620         	strb	r0, [r4, #0x18]
      3e: 7265         	strb	r5, [r4, #0x9]
      40: 6973         	ldr	r3, [r6, #0x14]
      42: 6e6f         	ldr	r7, [r5, #0x64]
      44: 3120         	adds	r1, #0x20
      46: 2e39         	cmp	r6, #0x39
      48: 2e31         	cmp	r6, #0x31
      4a: 0035         	movs	r5, r6
;         arr[i] = (int) (i + 1);
      4c: 7270         	strb	r0, [r6, #0x9]
      4e: 7665         	strb	r5, [r4, #0x19]
      50: 685f         	ldr	r7, [r3, #0x4]
      52: 6165         	str	r5, [r4, #0x14]
      54: 5f70         	ldrsh	r0, [r6, r5]
      56: 7470         	strb	r0, [r6, #0x11]
      58: 0072         	lsls	r2, r6, #0x1
      5a: 682f         	ldr	r7, [r5]
      5c: 6d6f         	ldr	r7, [r5, #0x54]
      5e: 2f65         	cmp	r7, #0x65
      60: 696b         	ldr	r3, [r5, #0x14]
      62: 6172         	str	r2, [r6, #0x14]
      64: 2f6e         	cmp	r7, #0x6e
      66: 4341         	muls	r1, r0, r1
      68: 2f41         	cmp	r7, #0x41
      6a: 7270         	strb	r0, [r6, #0x9]
      6c: 676f         	str	r7, [r5, #0x74]
      6e: 6172         	str	r2, [r6, #0x14]
      70: 736d         	strb	r5, [r5, #0xd]
      72: 7300         	strb	r0, [r0, #0xc]
      74: 7200         	strb	r0, [r0, #0x8]
      76: 0030         	movs	r0, r6
      78: 6568         	str	r0, [r5, #0x54]
      7a: 7061         	strb	r1, [r4, #0x1]
      7c: 705f         	strb	r7, [r3, #0x1]
      7e: 7274         	strb	r4, [r6, #0x9]
      80: 7300         	strb	r0, [r0, #0xc]
      82: 6376         	str	r6, [r6, #0x34]
      84: 705f         	strb	r7, [r3, #0x1]
      86: 7475         	strb	r5, [r6, #0x11]
      88: 6e69         	ldr	r1, [r5, #0x64]
      8a: 0074         	lsls	r4, r6, #0x1
      8c: 7673         	strb	r3, [r6, #0x19]
      8e: 5f63         	ldrsh	r3, [r4, r5]
      90: 7570         	strb	r0, [r6, #0x15]
      92: 7374         	strb	r4, [r6, #0xd]
      94: 7300         	strb	r0, [r0, #0xc]
      96: 6376         	str	r6, [r6, #0x34]
      98: 655f         	str	r7, [r3, #0x54]
      9a: 6978         	ldr	r0, [r7, #0x14]
      9c: 0074         	lsls	r4, r6, #0x1
      9e: 616d         	str	r5, [r5, #0x14]
      a0: 6e69         	ldr	r1, [r5, #0x64]
      a2: 6300         	str	r0, [r0, #0x30]
      a4: 6168         	str	r0, [r5, #0x14]
      a6: 0072         	lsls	r2, r6, #0x1
      a8: 6e69         	ldr	r1, [r5, #0x64]
      aa: 0074         	lsls	r4, r6, #0x1
      ac: 6e75         	ldr	r5, [r6, #0x64]
      ae: 6973         	ldr	r3, [r6, #0x14]
      b0: 6e67         	ldr	r7, [r4, #0x64]
      b2: 6465         	str	r5, [r4, #0x44]
      b4: 6920         	ldr	r0, [r4, #0x10]
      b6: 746e         	strb	r6, [r5, #0x11]
      b8: 5f00         	ldrsh	r0, [r0, r4]
      ba: 415f         	adcs	r7, r3
      bc: 5252         	strh	r2, [r2, r1]
      be: 5941         	ldr	r1, [r0, r5]
      c0: 535f         	strh	r7, [r3, r5]
      c2: 5a49         	ldrh	r1, [r1, r1]
      c4: 5f45         	ldrsh	r5, [r0, r5]
      c6: 5954         	ldr	r4, [r2, r5]
      c8: 4550         	cmp	r0, r10
      ca: 5f5f         	ldrsh	r7, [r3, r5]
      cc: 7300         	strb	r0, [r0, #0xc]
      ce: 7262         	strb	r2, [r4, #0x9]
      d0: 006b         	lsls	r3, r5, #0x1
      d2: 7261         	strb	r1, [r4, #0x9]
      d4: 0072         	lsls	r2, r6, #0x1

Disassembly of section .debug_addr:

00000000 <.debug_addr>:
; extern void* sbrk(ptrdiff_t increment) {
       0: 0020         	movs	r0, r4
;     char* prev_heap_ptr = heap_ptr;
       2: 0000         	movs	r0, r0
       4: 0005         	movs	r5, r0
;     if (increment > 0) {
       6: 0004         	movs	r4, r0
       8: 0198         	lsls	r0, r3, #0x6
;         if (heap_ptr + increment > &__heap_end) {
       a: 0000         	movs	r0, r0
       c: 0000         	movs	r0, r0
       e: 2000         	movs	r0, #0x0
      10: 0000         	movs	r0, r0
      12: 0000         	movs	r0, r0
      14: 0024         	movs	r4, r4
; }
      16: 0000         	movs	r0, r0
;         heap_ptr += increment;
      18: 004c         	lsls	r4, r1, #0x1
; }
      1a: 0000         	movs	r0, r0
      1c: 0146         	lsls	r6, r0, #0x5
      1e: 0000         	movs	r0, r0
      20: 0178         	lsls	r0, r7, #0x5
      22: 0000         	movs	r0, r0

Disassembly of section .debug_line_str:

00000000 <.debug_line_str>:
; extern void* sbrk(ptrdiff_t increment) {
       0: 6562         	str	r2, [r4, #0x54]
;     char* prev_heap_ptr = heap_ptr;
       2: 636e         	str	r6, [r5, #0x34]
       4: 6d68         	ldr	r0, [r5, #0x54]
;     if (increment > 0) {
       6: 7261         	strb	r1, [r4, #0x9]
       8: 736b         	strb	r3, [r5, #0xd]
;         if (heap_ptr + increment > &__heap_end) {
       a: 6d2f         	ldr	r7, [r5, #0x50]
       c: 6b61         	ldr	r1, [r4, #0x34]
       e: 6c65         	ldr	r5, [r4, #0x44]
      10: 7369         	strb	r1, [r5, #0xd]
      12: 2e74         	cmp	r6, #0x74
      14: 0063         	lsls	r3, r4, #0x1
; }
      16: 682f         	ldr	r7, [r5]
;         heap_ptr += increment;
      18: 6d6f         	ldr	r7, [r5, #0x54]
; }
      1a: 2f65         	cmp	r7, #0x65
      1c: 696b         	ldr	r3, [r5, #0x14]
      1e: 6172         	str	r2, [r6, #0x14]
      20: 006e         	lsls	r6, r5, #0x1
      22: 682f         	ldr	r7, [r5]
; int main() {
      24: 6d6f         	ldr	r7, [r5, #0x54]
      26: 2f65         	cmp	r7, #0x65
      28: 696b         	ldr	r3, [r5, #0x14]
      2a: 6172         	str	r2, [r6, #0x14]
      2c: 2f6e         	cmp	r7, #0x6e
      2e: 4341         	muls	r1, r0, r1
;     volatile int arr[1000000];
      30: 2f41         	cmp	r7, #0x41
      32: 7270         	strb	r0, [r6, #0x9]
      34: 676f         	str	r7, [r5, #0x74]
      36: 6172         	str	r2, [r6, #0x14]
      38: 736d         	strb	r5, [r5, #0xd]
      3a: 6200         	str	r0, [r0, #0x20]
      3c: 6e65         	ldr	r5, [r4, #0x64]
      3e: 6863         	ldr	r3, [r4, #0x4]
      40: 616d         	str	r5, [r5, #0x14]
      42: 6b72         	ldr	r2, [r6, #0x34]
      44: 2f73         	cmp	r7, #0x73
      46: 2e2e         	cmp	r6, #0x2e
      48: 732f         	strb	r7, [r5, #0xc]
      4a: 7379         	strb	r1, [r7, #0xd]
;         arr[i] = (int) (i + 1);
      4c: 6163         	str	r3, [r4, #0x14]
      4e: 6c6c         	ldr	r4, [r5, #0x44]
      50: 0073         	lsls	r3, r6, #0x1
      52: 4c4c         	ldr	r4, [pc, #0x130]        @ 0x184 <.debug_line+0x184>
      54: 4d56         	ldr	r5, [pc, #0x158]        @ 0x1b0 <.rodata+0x18>
      56: 452d         	cmp	r5, r5
      58: 2d54         	cmp	r5, #0x54
      5a: 7241         	strb	r1, [r0, #0x9]
      5c: 2d6d         	cmp	r5, #0x6d
      5e: 3931         	subs	r1, #0x31
      60: 312e         	adds	r1, #0x2e
      62: 352e         	adds	r5, #0x2e
      64: 4c2d         	ldr	r4, [pc, #0xb4]         @ 0x11c <.debug_line+0x11c>
      66: 6e69         	ldr	r1, [r5, #0x64]
      68: 7875         	ldrb	r5, [r6, #0x1]
      6a: 782d         	ldrb	r5, [r5]
      6c: 3638         	adds	r6, #0x38
      6e: 365f         	adds	r6, #0x5f
      70: 2f34         	cmp	r7, #0x34
      72: 696c         	ldr	r4, [r5, #0x14]
      74: 2f62         	cmp	r7, #0x62
      76: 6c63         	ldr	r3, [r4, #0x44]
      78: 6e61         	ldr	r1, [r4, #0x64]
      7a: 2f67         	cmp	r7, #0x67
      7c: 3931         	subs	r1, #0x31
      7e: 692f         	ldr	r7, [r5, #0x10]
      80: 636e         	str	r6, [r5, #0x34]
      82: 756c         	strb	r4, [r5, #0x15]
      84: 6564         	str	r4, [r4, #0x54]
      86: 5f2f         	ldrsh	r7, [r5, r4]
      88: 735f         	strb	r7, [r3, #0xd]
      8a: 6474         	str	r4, [r6, #0x44]
      8c: 6564         	str	r4, [r4, #0x54]
      8e: 5f66         	ldrsh	r6, [r4, r5]
      90: 7470         	strb	r0, [r6, #0x11]
      92: 6472         	str	r2, [r6, #0x44]
      94: 6669         	str	r1, [r5, #0x64]
      96: 5f66         	ldrsh	r6, [r4, r5]
      98: 2e74         	cmp	r6, #0x74
      9a: 0068         	lsls	r0, r5, #0x1
      9c: 7973         	ldrb	r3, [r6, #0x5]
      9e: 6373         	str	r3, [r6, #0x34]
      a0: 6c61         	ldr	r1, [r4, #0x44]
      a2: 736c         	strb	r4, [r5, #0xd]
      a4: 682e         	ldr	r6, [r5]
      a6: 00           	<unknown>

Disassembly of section .debug_loclists:

00000000 <.debug_loclists>:
; extern void* sbrk(ptrdiff_t increment) {
       0: 0237         	lsls	r7, r6, #0x8
;     char* prev_heap_ptr = heap_ptr;
       2: 0000         	movs	r0, r0
       4: 0005         	movs	r5, r0
;     if (increment > 0) {
       6: 0004         	movs	r4, r0
       8: 0009         	movs	r1, r1
;         if (heap_ptr + increment > &__heap_end) {
       a: 0000         	movs	r0, r0
       c: 0024         	movs	r4, r4
       e: 0000         	movs	r0, r0
      10: 002f         	movs	r7, r5
      12: 0000         	movs	r0, r0
      14: 003a         	movs	r2, r7
; }
      16: 0000         	movs	r0, r0
;         heap_ptr += increment;
      18: 019b         	lsls	r3, r3, #0x6
; }
      1a: 0000         	movs	r0, r0
      1c: 01a6         	lsls	r6, r4, #0x6
      1e: 0000         	movs	r0, r0
      20: 01d7         	lsls	r7, r2, #0x7
      22: 0000         	movs	r0, r0
; int main() {
      24: 01fb         	lsls	r3, r7, #0x7
      26: 0000         	movs	r0, r0
      28: 021f         	lsls	r7, r3, #0x8
      2a: 0000         	movs	r0, r0
      2c: 0227         	lsls	r7, r4, #0x8
      2e: 0000         	movs	r0, r0
;     volatile int arr[1000000];
      30: 0004         	movs	r4, r0
      32: 0102         	lsls	r2, r0, #0x4
      34: 0450         	lsls	r0, r2, #0x11
      36: 0c02         	lsrs	r2, r0, #0x10
      38: 5101         	str	r1, [r0, r4]
      3a: 0400         	lsls	r0, r0, #0x10
      3c: 1406         	asrs	r6, r0, #0x10
      3e: 5001         	str	r1, [r0, r0]
      40: 1804         	adds	r4, r0, r0
      42: 011c         	lsls	r4, r3, #0x4
      44: 0050         	lsls	r0, r2, #0x1
      46: 4c04         	ldr	r4, [pc, #0x10]         @ 0x58 <.debug_loclists+0x58>
      48: 0356         	lsls	r6, r2, #0xd
      4a: 5870         	ldr	r0, [r6, r1]
;         arr[i] = (int) (i + 1);
      4c: 049f         	lsls	r7, r3, #0x12
      4e: 5c56         	ldrb	r6, [r2, r1]
      50: 7003         	strb	r3, [r0]
      52: 9f59         	ldr	r7, [sp, #0x164]
      54: 5c04         	ldrb	r4, [r0, r0]
      56: 0362         	lsls	r2, r4, #0xd
      58: 5a70         	ldrh	r0, [r6, r1]
      5a: 049f         	lsls	r7, r3, #0x12
      5c: 6862         	ldr	r2, [r4, #0x4]
      5e: 7003         	strb	r3, [r0]
      60: 9f5b         	ldr	r7, [sp, #0x16c]
      62: 6804         	ldr	r4, [r0]
      64: 036e         	lsls	r6, r5, #0xd
      66: 5c70         	ldrb	r0, [r6, r1]
      68: 049f         	lsls	r7, r3, #0x12
      6a: 746e         	strb	r6, [r5, #0x11]
      6c: 7003         	strb	r3, [r0]
      6e: 9f5d         	ldr	r7, [sp, #0x174]
      70: 7404         	strb	r4, [r0, #0x10]
      72: 037a         	lsls	r2, r7, #0xd
      74: 5e70         	ldrsh	r0, [r6, r1]
      76: 049f         	lsls	r7, r3, #0x12
      78: 807a         	strh	r2, [r7, #0x2]
      7a: 0301         	lsls	r1, r0, #0xc
      7c: 5f70         	ldrsh	r0, [r6, r5]
      7e: 049f         	lsls	r7, r3, #0x12
      80: 0180         	lsls	r0, r0, #0x6
      82: 0186         	lsls	r6, r0, #0x6
      84: 7003         	strb	r3, [r0]
      86: 9f60         	ldr	r7, [sp, #0x180]
      88: 8604         	strh	r4, [r0, #0x30]
      8a: 8c01         	ldrh	r1, [r0, #0x20]
      8c: 0301         	lsls	r1, r0, #0xc
      8e: 6170         	str	r0, [r6, #0x14]
      90: 049f         	lsls	r7, r3, #0x12
      92: 018c         	lsls	r4, r1, #0x6
      94: 0192         	lsls	r2, r2, #0x6
      96: 7003         	strb	r3, [r0]
      98: 9f62         	ldr	r7, [sp, #0x188]
      9a: 9204         	str	r2, [sp, #0x10]
      9c: 9801         	ldr	r0, [sp, #0x4]
      9e: 0301         	lsls	r1, r0, #0xc
      a0: 6370         	str	r0, [r6, #0x34]
      a2: 049f         	lsls	r7, r3, #0x12
      a4: 0198         	lsls	r0, r3, #0x6
      a6: 019e         	lsls	r6, r3, #0x6
      a8: 7003         	strb	r3, [r0]
      aa: 9f64         	ldr	r7, [sp, #0x190]
      ac: 9e04         	ldr	r6, [sp, #0x10]
      ae: a401         	adr	r4, #4 <.debug_loclists+0xb3>
      b0: 0301         	lsls	r1, r0, #0xc
      b2: 6570         	str	r0, [r6, #0x54]
      b4: 049f         	lsls	r7, r3, #0x12
      b6: 01a4         	lsls	r4, r4, #0x6
      b8: 01aa         	lsls	r2, r5, #0x6
      ba: 7003         	strb	r3, [r0]
      bc: 9f66         	ldr	r7, [sp, #0x198]
      be: aa04         	add	r2, sp, #0x10
      c0: b001         	add	sp, #0x4
      c2: 0301         	lsls	r1, r0, #0xc
      c4: 6770         	str	r0, [r6, #0x74]
      c6: 049f         	lsls	r7, r3, #0x12
      c8: 01b0         	lsls	r0, r6, #0x6
      ca: 01b6         	lsls	r6, r6, #0x6
      cc: 7003         	strb	r3, [r0]
      ce: 9f68         	ldr	r7, [sp, #0x1a0]
      d0: b604         	<unknown>
      d2: bc01         	pop	{r0}
      d4: 0301         	lsls	r1, r0, #0xc
      d6: 6970         	ldr	r0, [r6, #0x14]
      d8: 049f         	lsls	r7, r3, #0x12
      da: 01bc         	lsls	r4, r7, #0x6
      dc: 01c2         	lsls	r2, r0, #0x7
      de: 7003         	strb	r3, [r0]
      e0: 9f6a         	ldr	r7, [sp, #0x1a8]
      e2: c204         	stm	r2!, {r2}
      e4: c801         	ldm	r0, {r0}
      e6: 0301         	lsls	r1, r0, #0xc
      e8: 6b70         	ldr	r0, [r6, #0x34]
      ea: 049f         	lsls	r7, r3, #0x12
      ec: 01c8         	lsls	r0, r1, #0x7
      ee: 01ce         	lsls	r6, r1, #0x7
      f0: 7003         	strb	r3, [r0]
      f2: 9f6c         	ldr	r7, [sp, #0x1b0]
      f4: ce04         	ldm	r6!, {r2}
      f6: d401         	bmi	0xfc <.debug_loclists+0xfc> @ imm = #0x2
      f8: 0301         	lsls	r1, r0, #0xc
      fa: 6d70         	ldr	r0, [r6, #0x54]
      fc: 049f         	lsls	r7, r3, #0x12
      fe: 01d4         	lsls	r4, r2, #0x7
     100: 01da         	lsls	r2, r3, #0x7
     102: 7003         	strb	r3, [r0]
     104: 9f6e         	ldr	r7, [sp, #0x1b8]
     106: da04         	bge	0x112 <.debug_loclists+0x112> @ imm = #0x8
     108: e001         	b	0x10e <.debug_loclists+0x10e> @ imm = #0x2
     10a: 0301         	lsls	r1, r0, #0xc
     10c: 6f70         	ldr	r0, [r6, #0x74]
     10e: 049f         	lsls	r7, r3, #0x12
     110: 01e0         	lsls	r0, r4, #0x7
     112: 01e6         	lsls	r6, r4, #0x7
     114: 7003         	strb	r3, [r0]
     116: 9f70         	ldr	r7, [sp, #0x1c0]
     118: e604         	b	0xfffffd24 <.stack+0xffffffffdff7fd1c> @ imm = #-0x3f8
     11a: ec01 0301    	<unknown>
     11e: 7170         	strb	r0, [r6, #0x5]
     120: 049f         	lsls	r7, r3, #0x12
     122: 01ec         	lsls	r4, r5, #0x7
     124: 01f2         	lsls	r2, r6, #0x7
     126: 7003         	strb	r3, [r0]
     128: 9f72         	ldr	r7, [sp, #0x1c8]
     12a: f204 f801    	bl	0x204130 <.rodata+0x203f98> @ imm = #0x204002
     12e: 0301         	lsls	r1, r0, #0xc
     130: 7370         	strb	r0, [r6, #0xd]
     132: 049f         	lsls	r7, r3, #0x12
     134: 01f8         	lsls	r0, r7, #0x7
     136: 01fe         	lsls	r6, r7, #0x7
     138: 7003         	strb	r3, [r0]
     13a: 9f74         	ldr	r7, [sp, #0x1d0]
     13c: fe04 8401    	<unknown>
;     for (unsigned i = 0; i < len; i++) {
     140: 0302         	lsls	r2, r0, #0xc
     142: 7570         	strb	r0, [r6, #0x15]
     144: 049f         	lsls	r7, r3, #0x12
;         svc_putint(arr[i * 1000]);
     146: 0284         	lsls	r4, r0, #0xa
;      __asm volatile ("svc 3" :  : "r"(r0) : "memory");
     148: 028a         	lsls	r2, r1, #0xa
;      __asm volatile ("svc 1" :  : "r"(r0) : "memory");
     14a: 7003         	strb	r3, [r0]
     14c: 9f76         	ldr	r7, [sp, #0x1d8]
     14e: 8a04         	ldrh	r4, [r0, #0x10]
;         svc_putint(arr[i * 1000]);
     150: 9002         	str	r0, [sp, #0x8]
;      __asm volatile ("svc 3" :  : "r"(r0) : "memory");
     152: 0302         	lsls	r2, r0, #0xc
;      __asm volatile ("svc 1" :  : "r"(r0) : "memory");
     154: 7770         	strb	r0, [r6, #0x1d]
     156: 049f         	lsls	r7, r3, #0x12
;         svc_putint(arr[i * 1000]);
     158: 0290         	lsls	r0, r2, #0xa
     15a: 0296         	lsls	r6, r2, #0xa
;      __asm volatile ("svc 3" :  : "r"(r0) : "memory");
     15c: 7003         	strb	r3, [r0]
;      __asm volatile ("svc 1" :  : "r"(r0) : "memory");
     15e: 9f78         	ldr	r7, [sp, #0x1e0]
     160: 9604         	str	r6, [sp, #0x10]
;         svc_putint(arr[i * 1000]);
     162: 9c02         	ldr	r4, [sp, #0x8]
     164: 0302         	lsls	r2, r0, #0xc
;      __asm volatile ("svc 3" :  : "r"(r0) : "memory");
     166: 7970         	ldrb	r0, [r6, #0x5]
;      __asm volatile ("svc 1" :  : "r"(r0) : "memory");
     168: 049f         	lsls	r7, r3, #0x12
     16a: 029c         	lsls	r4, r3, #0xa
;         svc_putint(arr[i * 1000]);
     16c: 02a2         	lsls	r2, r4, #0xa
     16e: 7003         	strb	r3, [r0]
;      __asm volatile ("svc 3" :  : "r"(r0) : "memory");
     170: 9f7a         	ldr	r7, [sp, #0x1e8]
;      __asm volatile ("svc 1" :  : "r"(r0) : "memory");
     172: a204         	adr	r2, #16 <.debug_loclists+0x17a>
     174: a802         	add	r0, sp, #0x8
     176: 0302         	lsls	r2, r0, #0xc
;     __asm volatile ("svc 0" :  : "r"(r0) : "memory");
     178: 7b70         	ldrb	r0, [r6, #0xd]
; }
     17a: 049f         	lsls	r7, r3, #0x12
     17c: 02a8         	lsls	r0, r5, #0xa
     17e: 02ae         	lsls	r6, r5, #0xa
     180: 7003         	strb	r3, [r0]
     182: 9f7c         	ldr	r7, [sp, #0x1f0]
     184: ae04         	add	r6, sp, #0x10
     186: b402         	push	{r1}
     188: 0302         	lsls	r2, r0, #0xc
     18a: 7d70         	ldrb	r0, [r6, #0x15]
     18c: 049f         	lsls	r7, r3, #0x12
     18e: 02b4         	lsls	r4, r6, #0xa
     190: 02bc         	lsls	r4, r7, #0xa
     192: 7003         	strb	r3, [r0]
     194: 9f7e         	ldr	r7, [sp, #0x1f8]
     196: bc04         	pop	{r2}
     198: c002         	stm	r0!, {r1}
     19a: 0302         	lsls	r2, r0, #0xc
     19c: 7f70         	ldrb	r0, [r6, #0x1d]
     19e: 049f         	lsls	r7, r3, #0x12
     1a0: 02c0         	lsls	r0, r0, #0xb
     1a2: 02c2         	lsls	r2, r0, #0xb
     1a4: 5001         	str	r1, [r0, r0]
     1a6: 0400         	lsls	r0, r0, #0x10
     1a8: 824a         	strh	r2, [r1, #0x12]
     1aa: 0503         	lsls	r3, r0, #0x14
     1ac: c011         	stm	r0!, {r0, r4}
     1ae: 3d84         	subs	r5, #0x84
     1b0: 009f         	lsls	r7, r3, #0x2
     1b2: c604         	stm	r6!, {r2}
     1b4: d002         	beq	0x1bc <.rodata+0x24>    @ imm = #0x4
     1b6: 0202         	lsls	r2, r0, #0x8
     1b8: 9f30         	ldr	r7, [sp, #0xc0]
     1ba: d004         	beq	0x1c6 <.rodata+0x2e>    @ imm = #0x8
     1bc: d802         	bhi	0x1c4 <.rodata+0x2c>    @ imm = #0x4
     1be: 0202         	lsls	r2, r0, #0x8
     1c0: 9f31         	ldr	r7, [sp, #0xc4]
     1c2: d804         	bhi	0x1ce <.rodata+0x36>    @ imm = #0x8
     1c4: e202         	b	0x5cc <.rodata+0x434>   @ imm = #0x404
     1c6: 0202         	lsls	r2, r0, #0x8
     1c8: 9f32         	ldr	r7, [sp, #0xc8]
     1ca: e204         	b	0x5d6 <.rodata+0x43e>   @ imm = #0x408
     1cc: ec02 0202    	<unknown>
     1d0: 9f33         	ldr	r7, [sp, #0xcc]
     1d2: ec04 f802    	<unknown>
     1d6: 0202         	lsls	r2, r0, #0x8
     1d8: 9f34         	ldr	r7, [sp, #0xd0]
     1da: f804 8202    	<unknown>
     1de: 0203         	lsls	r3, r0, #0x8
     1e0: 9f35         	ldr	r7, [sp, #0xd4]
     1e2: 0400         	lsls	r0, r0, #0x10
     1e4: 02c8         	lsls	r0, r1, #0xb
     1e6: 02ce         	lsls	r6, r1, #0xb
     1e8: 5001         	str	r1, [r0, r0]
     1ea: d204         	bhs	0x1f6 <.rodata+0x5e>    @ imm = #0x8
     1ec: d602         	bvs	0x1f4 <.rodata+0x5c>    @ imm = #0x4
     1ee: 0102         	lsls	r2, r0, #0x4
     1f0: 0450         	lsls	r0, r2, #0x11
     1f2: 02dc         	lsls	r4, r3, #0xb
     1f4: 02e0         	lsls	r0, r4, #0xb
     1f6: 5001         	str	r1, [r0, r0]
     1f8: e604         	b	0xfffffe04 <.stack+0xffffffffdff7fdfc> @ imm = #-0x3f8
     1fa: ea02 0102    	<unknown>
     1fe: 0450         	lsls	r0, r2, #0x11
     200: 02f0         	lsls	r0, r6, #0xb
     202: 02f4         	lsls	r4, r6, #0xb
     204: 5001         	str	r1, [r0, r0]
     206: 0400         	lsls	r0, r0, #0x10
     208: 02c8         	lsls	r0, r1, #0xb
     20a: 02ce         	lsls	r6, r1, #0xb
     20c: 5001         	str	r1, [r0, r0]
     20e: d204         	bhs	0x21a <.rodata+0x82>    @ imm = #0x8
     210: d602         	bvs	0x218 <.rodata+0x80>    @ imm = #0x4
     212: 0102         	lsls	r2, r0, #0x4
     214: 0450         	lsls	r0, r2, #0x11
     216: 02dc         	lsls	r4, r3, #0xb
     218: 02e0         	lsls	r0, r4, #0xb
     21a: 5001         	str	r1, [r0, r0]
     21c: e604         	b	0xfffffe28 <.stack+0xffffffffdff7fe20> @ imm = #-0x3f8
     21e: ea02 0102    	<unknown>
     222: 0450         	lsls	r0, r2, #0x11
     224: 02f0         	lsls	r0, r6, #0xb
     226: 02f4         	lsls	r4, r6, #0xb
     228: 5001         	str	r1, [r0, r0]
     22a: 0400         	lsls	r0, r0, #0x10
     22c: 02cc         	lsls	r4, r1, #0xb
     22e: 0382         	lsls	r2, r0, #0xe
     230: 5101         	str	r1, [r0, r4]
     232: 0400         	lsls	r0, r0, #0x10
     234: 02cc         	lsls	r4, r1, #0xb
     236: 0382         	lsls	r2, r0, #0xe
     238: 5101         	str	r1, [r0, r4]
     23a: 00           	<unknown>

Disassembly of section .debug_rnglists:

00000000 <.debug_rnglists>:
; extern void* sbrk(ptrdiff_t increment) {
       0: 0044         	lsls	r4, r0, #0x1
;     char* prev_heap_ptr = heap_ptr;
       2: 0000         	movs	r0, r0
       4: 0005         	movs	r5, r0
;     if (increment > 0) {
       6: 0004         	movs	r4, r0
       8: 0002         	movs	r2, r0
;         if (heap_ptr + increment > &__heap_end) {
       a: 0000         	movs	r0, r0
       c: 0008         	movs	r0, r1
       e: 0000         	movs	r0, r0
      10: 0022         	movs	r2, r4
      12: 0000         	movs	r0, r0
      14: c804         	ldm	r0!, {r2}
; }
      16: ca02         	ldm	r2!, {r1}
;         heap_ptr += increment;
      18: 0402         	lsls	r2, r0, #0x10
; }
      1a: 02d2         	lsls	r2, r2, #0xb
      1c: 02d4         	lsls	r4, r2, #0xb
      1e: dc04         	bgt	0x2a <.debug_loclists+0x2a> @ imm = #0x8
      20: de02         	udf	#0x2
      22: 0402         	lsls	r2, r0, #0x10
; int main() {
      24: 02e6         	lsls	r6, r4, #0xb
      26: 02e8         	lsls	r0, r5, #0xb
      28: f004 f202    	bl	0x404430 <.rodata+0x404298> @ imm = #0x404404
      2c: 0002         	movs	r2, r0
      2e: ca04         	ldm	r2, {r2}
;     volatile int arr[1000000];
      30: d002         	beq	0x38 <.debug_loclists+0x38> @ imm = #0x4
      32: 0402         	lsls	r2, r0, #0x10
      34: 02d4         	lsls	r4, r2, #0xb
      36: 02d8         	lsls	r0, r3, #0xb
      38: de04         	udf	#0x4
      3a: e202         	b	0x442 <.rodata+0x2aa>   @ imm = #0x404
      3c: 0402         	lsls	r2, r0, #0x10
      3e: 02e8         	lsls	r0, r5, #0xb
      40: 02ec         	lsls	r4, r5, #0xb
      42: f204 f802    	bl	0x20404a <.rodata+0x203eb2> @ imm = #0x204004
      46: 0002         	movs	r2, r0

Disassembly of section .debug_str_offsets:

00000000 <.debug_str_offsets>:
; extern void* sbrk(ptrdiff_t increment) {
       0: 0060         	lsls	r0, r4, #0x1
;     char* prev_heap_ptr = heap_ptr;
       2: 0000         	movs	r0, r0
       4: 0005         	movs	r5, r0
;     if (increment > 0) {
       6: 0000         	movs	r0, r0
       8: 0037         	movs	r7, r6
;         if (heap_ptr + increment > &__heap_end) {
       a: 0000         	movs	r0, r0
       c: 000a         	movs	r2, r1
       e: 0000         	movs	r0, r0
      10: 005a         	lsls	r2, r3, #0x1
      12: 0000         	movs	r0, r0
      14: 00a3         	lsls	r3, r4, #0x2
; }
      16: 0000         	movs	r0, r0
;         heap_ptr += increment;
      18: 00b9         	lsls	r1, r7, #0x2
; }
      1a: 0000         	movs	r0, r0
      1c: 0078         	lsls	r0, r7, #0x1
      1e: 0000         	movs	r0, r0
      20: 00a8         	lsls	r0, r5, #0x2
      22: 0000         	movs	r0, r0
; int main() {
      24: 0081         	lsls	r1, r0, #0x2
      26: 0000         	movs	r0, r0
      28: 002b         	movs	r3, r5
      2a: 0000         	movs	r0, r0
      2c: 0075         	lsls	r5, r6, #0x1
      2e: 0000         	movs	r0, r0
;     volatile int arr[1000000];
      30: 008c         	lsls	r4, r1, #0x2
      32: 0000         	movs	r0, r0
      34: 0073         	lsls	r3, r6, #0x1
      36: 0000         	movs	r0, r0
      38: 0095         	lsls	r5, r2, #0x2
      3a: 0000         	movs	r0, r0
      3c: 0026         	movs	r6, r4
      3e: 0000         	movs	r0, r0
      40: 00ac         	lsls	r4, r5, #0x2
      42: 0000         	movs	r0, r0
      44: 00cd         	lsls	r5, r1, #0x3
      46: 0000         	movs	r0, r0
      48: 009e         	lsls	r6, r3, #0x2
      4a: 0000         	movs	r0, r0
;         arr[i] = (int) (i + 1);
      4c: 0000         	movs	r0, r0
      4e: 0000         	movs	r0, r0
      50: 002d         	movs	r5, r5
      52: 0000         	movs	r0, r0
      54: 004c         	lsls	r4, r1, #0x1
      56: 0000         	movs	r0, r0
      58: 00d2         	lsls	r2, r2, #0x3
      5a: 0000         	movs	r0, r0
      5c: 0020         	movs	r0, r4
      5e: 0000         	movs	r0, r0
      60: 0022         	movs	r2, r4
      62: 0000         	movs	r0, r0

Disassembly of section .ARM.attributes:

00000000 <.ARM.attributes>:
; extern void* sbrk(ptrdiff_t increment) {
       0: 4041         	eors	r1, r0
;     char* prev_heap_ptr = heap_ptr;
       2: 0000         	movs	r0, r0
       4: 6100         	str	r0, [r0, #0x10]
;     if (increment > 0) {
       6: 6165         	str	r5, [r4, #0x14]
       8: 6962         	ldr	r2, [r4, #0x14]
;         if (heap_ptr + increment > &__heap_end) {
       a: 0100         	lsls	r0, r0, #0x4
       c: 0036         	movs	r6, r6
       e: 0000         	movs	r0, r0
      10: 3243         	adds	r2, #0x43
      12: 302e         	adds	r0, #0x2e
      14: 0039         	movs	r1, r7
; }
      16: 6305         	str	r5, [r0, #0x30]
;         heap_ptr += increment;
      18: 726f         	strb	r7, [r5, #0x9]
; }
      1a: 6574         	str	r4, [r6, #0x54]
      1c: 2d78         	cmp	r5, #0x78
      1e: 306d         	adds	r0, #0x6d
      20: 0600         	lsls	r0, r0, #0x18
      22: 070c         	lsls	r4, r1, #0x1c
; int main() {
      24: 084d         	lsrs	r5, r1, #0x1
      26: 0900         	lsrs	r0, r0, #0x4
      28: 0e01         	lsrs	r1, r0, #0x18
      2a: 1100         	asrs	r0, r0, #0x4
      2c: 1201         	asrs	r1, r0, #0x8
      2e: 1404         	asrs	r4, r0, #0x10
;     volatile int arr[1000000];
      30: 1501         	asrs	r1, r0, #0x14
      32: 1700         	asrs	r0, r0, #0x1c
      34: 1803         	adds	r3, r0, r0
      36: 1901         	adds	r1, r0, r4
      38: 1a01         	subs	r1, r0, r0
      3a: 1e02         	subs	r2, r0, #0x0
      3c: 2202         	movs	r2, #0x2
      3e: 2600         	movs	r6, #0x0
      40: 01           	<unknown>

Disassembly of section .symtab:

00000000 <.symtab>:
		...
;         if (heap_ptr + increment > &__heap_end) {
      10: 0001         	movs	r1, r0
		...
; }
      1a: 0000         	movs	r0, r0
      1c: 0004         	movs	r4, r0
      1e: fff1 000c    	<unknown>
		...
; int main() {
      2e: 0001         	movs	r1, r0
;     volatile int arr[1000000];
      30: 000f         	movs	r7, r1
      32: 0000         	movs	r0, r0
      34: 001c         	movs	r4, r3
		...
      3e: 0001         	movs	r1, r0
      40: 0012         	movs	r2, r2
      42: 0000         	movs	r0, r0
      44: 0000         	movs	r0, r0
      46: 2000         	movs	r0, #0x0
      48: 0004         	movs	r4, r0
      4a: 0000         	movs	r0, r0
;         arr[i] = (int) (i + 1);
      4c: 0001         	movs	r1, r0
      4e: 0003         	movs	r3, r0
      50: 001b         	movs	r3, r3
      52: 0000         	movs	r0, r0
      54: 0024         	movs	r4, r4
		...
      5e: 0001         	movs	r1, r0
      60: 001e         	movs	r6, r3
      62: 0000         	movs	r0, r0
      64: 0184         	lsls	r4, r0, #0x6
		...
      6e: 0001         	movs	r1, r0
      70: 0043         	lsls	r3, r0, #0x1
		...
      7a: 0000         	movs	r0, r0
      7c: 0200         	lsls	r0, r0, #0x8
      7e: 0001         	movs	r1, r0
      80: 0021         	movs	r1, r4
      82: 0000         	movs	r0, r0
      84: 0001         	movs	r1, r0
      86: 0000         	movs	r0, r0
      88: 0024         	movs	r4, r4
      8a: 0000         	movs	r0, r0
      8c: 0012         	movs	r2, r2
      8e: 0001         	movs	r1, r0
      90: 0026         	movs	r6, r4
      92: 0000         	movs	r0, r0
      94: 0000         	movs	r0, r0
      96: 21f8         	movs	r1, #0xf8
      98: 0000         	movs	r0, r0
      9a: 0000         	movs	r0, r0
      9c: 0010         	movs	r0, r2
      9e: fff1 0031    	<unknown>
      a2: 0000         	movs	r0, r0
      a4: 0025         	movs	r5, r4
      a6: 0000         	movs	r0, r0
      a8: 0170         	lsls	r0, r6, #0x5
      aa: 0000         	movs	r0, r0
      ac: 0012         	movs	r2, r2
      ae: 0001         	movs	r1, r0
      b0: 0036         	movs	r6, r6
      b2: 0000         	movs	r0, r0
      b4: 0008         	movs	r0, r1
      b6: 2000         	movs	r0, #0x0
      b8: 0000         	movs	r0, r0
      ba: 0000         	movs	r0, r0
      bc: 0010         	movs	r0, r2
      be: 0006         	movs	r6, r0
      c0: 0050         	lsls	r0, r2, #0x1
		...
      ca: 0000         	movs	r0, r0
      cc: 0010         	movs	r0, r2
      ce: fff1 0058    	<unknown>
      d2: 0000         	movs	r0, r0
      d4: 0000         	movs	r0, r0
      d6: 0010         	movs	r0, r2
      d8: 0000         	movs	r0, r0
      da: 0000         	movs	r0, r0
      dc: 0010         	movs	r0, r2
      de: fff1 0065    	<unknown>
      e2: 0000         	movs	r0, r0
      e4: 0000         	movs	r0, r0
      e6: 2000         	movs	r0, #0x0
      e8: 0000         	movs	r0, r0
      ea: 0000         	movs	r0, r0
      ec: 0010         	movs	r0, r2
      ee: fff1 006b    	<unknown>
      f2: 0000         	movs	r0, r0
      f4: 0000         	movs	r0, r0
      f6: 0200         	lsls	r0, r0, #0x8
      f8: 0000         	movs	r0, r0
      fa: 0000         	movs	r0, r0
      fc: 0010         	movs	r0, r2
      fe: fff1 0076    	<unknown>
     102: 0000         	movs	r0, r0
     104: 0001         	movs	r1, r0
     106: 0000         	movs	r0, r0
     108: 0000         	movs	r0, r0
     10a: 0000         	movs	r0, r0
     10c: 0010         	movs	r0, r2
     10e: fff1 0082    	<unknown>
     112: 0000         	movs	r0, r0
     114: 0008         	movs	r0, r1
     116: 2000         	movs	r0, #0x0
     118: 0000         	movs	r0, r0
     11a: 0000         	movs	r0, r0
     11c: 0010         	movs	r0, r2
     11e: 0006         	movs	r6, r0
     120: 008c         	lsls	r4, r1, #0x2
     122: 0000         	movs	r0, r0
     124: 0000         	movs	r0, r0
     126: 0008         	movs	r0, r1
     128: 0000         	movs	r0, r0
     12a: 0000         	movs	r0, r0
     12c: 0010         	movs	r0, r2
     12e: fff1 009c    	<unknown>
     132: 0000         	movs	r0, r0
     134: 0000         	movs	r0, r0
     136: 0008         	movs	r0, r1
     138: 0000         	movs	r0, r0
     13a: 0000         	movs	r0, r0
     13c: 0010         	movs	r0, r2
;     for (unsigned i = 0; i < len; i++) {
     13e: fff1 00a9    	<unknown>
     142: 0000         	movs	r0, r0
     144: 0008         	movs	r0, r1
;         svc_putint(arr[i * 1000]);
     146: 0000         	movs	r0, r0
;      __asm volatile ("svc 3" :  : "r"(r0) : "memory");
     148: 0000         	movs	r0, r0
;      __asm volatile ("svc 1" :  : "r"(r0) : "memory");
     14a: 0000         	movs	r0, r0
     14c: 0010         	movs	r0, r2
     14e: fff1 00b5    	<unknown>
;      __asm volatile ("svc 3" :  : "r"(r0) : "memory");
     152: 0000         	movs	r0, r0
;      __asm volatile ("svc 1" :  : "r"(r0) : "memory");
     154: 0008         	movs	r0, r1
     156: 0000         	movs	r0, r0
;         svc_putint(arr[i * 1000]);
     158: 0000         	movs	r0, r0
     15a: 0000         	movs	r0, r0
;      __asm volatile ("svc 3" :  : "r"(r0) : "memory");
     15c: 0010         	movs	r0, r2
;      __asm volatile ("svc 1" :  : "r"(r0) : "memory");
     15e: fff1 00c8    	<unknown>
;         svc_putint(arr[i * 1000]);
     162: 0000         	movs	r0, r0
     164: 0000         	movs	r0, r0
;      __asm volatile ("svc 3" :  : "r"(r0) : "memory");
     166: 2200         	movs	r2, #0x0
;      __asm volatile ("svc 1" :  : "r"(r0) : "memory");
     168: 0000         	movs	r0, r0
     16a: 0000         	movs	r0, r0
;         svc_putint(arr[i * 1000]);
     16c: 0010         	movs	r0, r2
     16e: fff1 00d0    	<unknown>
;      __asm volatile ("svc 1" :  : "r"(r0) : "memory");
     172: 0000         	movs	r0, r0
     174: 0008         	movs	r0, r1
     176: 2000         	movs	r0, #0x0
;     __asm volatile ("svc 0" :  : "r"(r0) : "memory");
     178: 0000         	movs	r0, r0
; }
     17a: 0000         	movs	r0, r0
     17c: 0010         	movs	r0, r2
     17e: 0006         	movs	r6, r0
     180: 00d6         	lsls	r6, r2, #0x3
     182: 0000         	movs	r0, r0
     184: 01a4         	lsls	r4, r4, #0x6
     186: 0000         	movs	r0, r0
     188: 0000         	movs	r0, r0
     18a: 0000         	movs	r0, r0
     18c: 0010         	movs	r0, r2
     18e: fff1 00e8    	<unknown>
     192: 0000         	movs	r0, r0
     194: 019c         	lsls	r4, r3, #0x6
     196: 0000         	movs	r0, r0
     198: 0000         	movs	r0, r0
     19a: 0000         	movs	r0, r0
     19c: 0010         	movs	r0, r2
     19e: fff1 00f6    	<unknown>
     1a2: 0000         	movs	r0, r0
     1a4: 01a4         	lsls	r4, r4, #0x6
     1a6: 0000         	movs	r0, r0
     1a8: 0000         	movs	r0, r0
     1aa: 0000         	movs	r0, r0
     1ac: 0010         	movs	r0, r2
     1ae: fff1 0109    	<unknown>
     1b2: 0000         	movs	r0, r0
     1b4: 0008         	movs	r0, r1
     1b6: 2000         	movs	r0, #0x0
     1b8: 0000         	movs	r0, r0
     1ba: 0000         	movs	r0, r0
     1bc: 0010         	movs	r0, r2
     1be: 0004         	movs	r4, r0
     1c0: 0114         	lsls	r4, r2, #0x4
     1c2: 0000         	movs	r0, r0
     1c4: 0000         	movs	r0, r0
     1c6: 2000         	movs	r0, #0x0
     1c8: 0000         	movs	r0, r0
     1ca: 0000         	movs	r0, r0
     1cc: 0010         	movs	r0, r2
     1ce: 0003         	movs	r3, r0
     1d0: 0121         	lsls	r1, r4, #0x4
     1d2: 0000         	movs	r0, r0
     1d4: 0194         	lsls	r4, r2, #0x6
     1d6: 0000         	movs	r0, r0
     1d8: 0000         	movs	r0, r0
     1da: 0000         	movs	r0, r0
     1dc: 0010         	movs	r0, r2
     1de: 0001         	movs	r1, r0
     1e0: 012c         	lsls	r4, r5, #0x4
     1e2: 0000         	movs	r0, r0
     1e4: 0008         	movs	r0, r1
     1e6: 2000         	movs	r0, #0x0
     1e8: 0000         	movs	r0, r0
     1ea: 0000         	movs	r0, r0
     1ec: 0010         	movs	r0, r2
     1ee: 0006         	movs	r6, r0

Disassembly of section .shstrtab:

00000000 <.shstrtab>:
; extern void* sbrk(ptrdiff_t increment) {
       0: 2e00         	cmp	r6, #0x0
;     char* prev_heap_ptr = heap_ptr;
       2: 6574         	str	r4, [r6, #0x54]
       4: 7478         	strb	r0, [r7, #0x11]
;     if (increment > 0) {
       6: 2e00         	cmp	r6, #0x0
       8: 6f72         	ldr	r2, [r6, #0x74]
;         if (heap_ptr + increment > &__heap_end) {
       a: 6164         	str	r4, [r4, #0x14]
       c: 6174         	str	r4, [r6, #0x14]
       e: 2e00         	cmp	r6, #0x0
      10: 6164         	str	r4, [r4, #0x14]
      12: 6174         	str	r4, [r6, #0x14]
      14: 2e00         	cmp	r6, #0x0
; }
      16: 6474         	str	r4, [r6, #0x44]
;         heap_ptr += increment;
      18: 7461         	strb	r1, [r4, #0x11]
; }
      1a: 0061         	lsls	r1, r4, #0x1
      1c: 742e         	strb	r6, [r5, #0x10]
      1e: 7362         	strb	r2, [r4, #0xd]
      20: 0073         	lsls	r3, r6, #0x1
      22: 622e         	str	r6, [r5, #0x20]
; int main() {
      24: 7373         	strb	r3, [r6, #0xd]
      26: 2e00         	cmp	r6, #0x0
      28: 6568         	str	r0, [r5, #0x54]
      2a: 7061         	strb	r1, [r4, #0x1]
      2c: 2e00         	cmp	r6, #0x0
      2e: 7473         	strb	r3, [r6, #0x11]
;     volatile int arr[1000000];
      30: 6361         	str	r1, [r4, #0x34]
      32: 006b         	lsls	r3, r5, #0x1
      34: 632e         	str	r6, [r5, #0x30]
      36: 6d6f         	ldr	r7, [r5, #0x54]
      38: 656d         	str	r5, [r5, #0x54]
      3a: 746e         	strb	r6, [r5, #0x11]
      3c: 2e00         	cmp	r6, #0x0
      3e: 6564         	str	r4, [r4, #0x54]
      40: 7562         	strb	r2, [r4, #0x15]
      42: 5f67         	ldrsh	r7, [r4, r5]
      44: 6e69         	ldr	r1, [r5, #0x64]
      46: 6f66         	ldr	r6, [r4, #0x74]
      48: 2e00         	cmp	r6, #0x0
      4a: 6564         	str	r4, [r4, #0x54]
;         arr[i] = (int) (i + 1);
      4c: 7562         	strb	r2, [r4, #0x15]
      4e: 5f67         	ldrsh	r7, [r4, r5]
      50: 6261         	str	r1, [r4, #0x24]
      52: 7262         	strb	r2, [r4, #0x9]
      54: 7665         	strb	r5, [r4, #0x19]
      56: 2e00         	cmp	r6, #0x0
      58: 6564         	str	r4, [r4, #0x54]
      5a: 7562         	strb	r2, [r4, #0x15]
      5c: 5f67         	ldrsh	r7, [r4, r5]
      5e: 696c         	ldr	r4, [r5, #0x14]
      60: 656e         	str	r6, [r5, #0x54]
      62: 2e00         	cmp	r6, #0x0
      64: 6564         	str	r4, [r4, #0x54]
      66: 7562         	strb	r2, [r4, #0x15]
      68: 5f67         	ldrsh	r7, [r4, r5]
      6a: 7266         	strb	r6, [r4, #0x9]
      6c: 6d61         	ldr	r1, [r4, #0x54]
      6e: 0065         	lsls	r5, r4, #0x1
      70: 642e         	str	r6, [r5, #0x40]
      72: 6265         	str	r5, [r4, #0x24]
      74: 6775         	str	r5, [r6, #0x74]
      76: 735f         	strb	r7, [r3, #0xd]
      78: 7274         	strb	r4, [r6, #0x9]
      7a: 2e00         	cmp	r6, #0x0
      7c: 6564         	str	r4, [r4, #0x54]
      7e: 7562         	strb	r2, [r4, #0x15]
      80: 5f67         	ldrsh	r7, [r4, r5]
      82: 6461         	str	r1, [r4, #0x44]
      84: 7264         	strb	r4, [r4, #0x9]
      86: 2e00         	cmp	r6, #0x0
      88: 6564         	str	r4, [r4, #0x54]
      8a: 7562         	strb	r2, [r4, #0x15]
      8c: 5f67         	ldrsh	r7, [r4, r5]
      8e: 696c         	ldr	r4, [r5, #0x14]
      90: 656e         	str	r6, [r5, #0x54]
      92: 735f         	strb	r7, [r3, #0xd]
      94: 7274         	strb	r4, [r6, #0x9]
      96: 2e00         	cmp	r6, #0x0
      98: 6564         	str	r4, [r4, #0x54]
      9a: 7562         	strb	r2, [r4, #0x15]
      9c: 5f67         	ldrsh	r7, [r4, r5]
      9e: 6f6c         	ldr	r4, [r5, #0x74]
      a0: 6c63         	ldr	r3, [r4, #0x44]
      a2: 7369         	strb	r1, [r5, #0xd]
      a4: 7374         	strb	r4, [r6, #0xd]
      a6: 2e00         	cmp	r6, #0x0
      a8: 6564         	str	r4, [r4, #0x54]
      aa: 7562         	strb	r2, [r4, #0x15]
      ac: 5f67         	ldrsh	r7, [r4, r5]
      ae: 6e72         	ldr	r2, [r6, #0x64]
      b0: 6c67         	ldr	r7, [r4, #0x44]
      b2: 7369         	strb	r1, [r5, #0xd]
      b4: 7374         	strb	r4, [r6, #0xd]
      b6: 2e00         	cmp	r6, #0x0
      b8: 6564         	str	r4, [r4, #0x54]
      ba: 7562         	strb	r2, [r4, #0x15]
      bc: 5f67         	ldrsh	r7, [r4, r5]
      be: 7473         	strb	r3, [r6, #0x11]
      c0: 5f72         	ldrsh	r2, [r6, r5]
      c2: 666f         	str	r7, [r5, #0x64]
      c4: 7366         	strb	r6, [r4, #0xd]
      c6: 7465         	strb	r5, [r4, #0x11]
      c8: 0073         	lsls	r3, r6, #0x1
      ca: 412e         	asrs	r6, r5
      cc: 4d52         	ldr	r5, [pc, #0x148]        @ 0x218 <.rodata+0x80>
      ce: 612e         	str	r6, [r5, #0x10]
      d0: 7474         	strb	r4, [r6, #0x11]
      d2: 6972         	ldr	r2, [r6, #0x14]
      d4: 7562         	strb	r2, [r4, #0x15]
      d6: 6574         	str	r4, [r6, #0x54]
      d8: 0073         	lsls	r3, r6, #0x1
      da: 732e         	strb	r6, [r5, #0xc]
      dc: 6d79         	ldr	r1, [r7, #0x54]
      de: 6174         	str	r4, [r6, #0x14]
      e0: 0062         	lsls	r2, r4, #0x1
      e2: 732e         	strb	r6, [r5, #0xc]
      e4: 7368         	strb	r0, [r5, #0xd]
      e6: 7274         	strb	r4, [r6, #0x9]
      e8: 6174         	str	r4, [r6, #0x14]
      ea: 0062         	lsls	r2, r4, #0x1
      ec: 732e         	strb	r6, [r5, #0xc]
      ee: 7274         	strb	r4, [r6, #0x9]
      f0: 6174         	str	r4, [r6, #0x14]
      f2: 0062         	lsls	r2, r4, #0x1

Disassembly of section .strtab:

00000000 <.strtab>:
; extern void* sbrk(ptrdiff_t increment) {
       0: 6d00         	ldr	r0, [r0, #0x50]
;     char* prev_heap_ptr = heap_ptr;
       2: 6b61         	ldr	r1, [r4, #0x34]
       4: 6c65         	ldr	r5, [r4, #0x44]
;     if (increment > 0) {
       6: 7369         	strb	r1, [r5, #0xd]
       8: 2e74         	cmp	r6, #0x74
;         if (heap_ptr + increment > &__heap_end) {
       a: 0063         	lsls	r3, r4, #0x1
       c: 7424         	strb	r4, [r4, #0x10]
       e: 2400         	movs	r4, #0x0
      10: 0064         	lsls	r4, r4, #0x1
      12: 6568         	str	r0, [r5, #0x54]
      14: 7061         	strb	r1, [r4, #0x1]
; }
      16: 705f         	strb	r7, [r3, #0x1]
;         heap_ptr += increment;
      18: 7274         	strb	r4, [r6, #0x9]
; }
      1a: 2400         	movs	r4, #0x0
      1c: 0074         	lsls	r4, r6, #0x1
      1e: 6424         	str	r4, [r4, #0x40]
      20: 7300         	strb	r0, [r0, #0xc]
      22: 7262         	strb	r2, [r4, #0x9]
; int main() {
      24: 006b         	lsls	r3, r5, #0x1
      26: 5f5f         	ldrsh	r7, [r3, r5]
      28: 6568         	str	r0, [r5, #0x54]
      2a: 7061         	strb	r1, [r4, #0x1]
      2c: 655f         	str	r7, [r3, #0x54]
      2e: 646e         	str	r6, [r5, #0x44]
;     volatile int arr[1000000];
      30: 6d00         	ldr	r0, [r0, #0x50]
      32: 6961         	ldr	r1, [r4, #0x14]
      34: 006e         	lsls	r6, r5, #0x1
      36: 5f5f         	ldrsh	r7, [r3, r5]
      38: 6568         	str	r0, [r5, #0x54]
      3a: 7061         	strb	r1, [r4, #0x1]
      3c: 735f         	strb	r7, [r3, #0xd]
      3e: 6174         	str	r4, [r6, #0x14]
      40: 7472         	strb	r2, [r6, #0x11]
      42: 5f00         	ldrsh	r0, [r0, r4]
      44: 645f         	str	r7, [r3, #0x44]
      46: 6f73         	ldr	r3, [r6, #0x74]
      48: 685f         	ldr	r7, [r3, #0x4]
      4a: 6e61         	ldr	r1, [r4, #0x64]
;         arr[i] = (int) (i + 1);
      4c: 6c64         	ldr	r4, [r4, #0x44]
      4e: 0065         	lsls	r5, r4, #0x1
      50: 5f5f         	ldrsh	r7, [r3, r5]
      52: 6c66         	ldr	r6, [r4, #0x44]
      54: 7361         	strb	r1, [r4, #0xd]
      56: 0068         	lsls	r0, r5, #0x1
      58: 5f5f         	ldrsh	r7, [r3, r5]
      5a: 6c66         	ldr	r6, [r4, #0x44]
      5c: 7361         	strb	r1, [r4, #0xd]
      5e: 5f68         	ldrsh	r0, [r5, r5]
      60: 6973         	ldr	r3, [r6, #0x14]
      62: 657a         	str	r2, [r7, #0x54]
      64: 5f00         	ldrsh	r0, [r0, r4]
      66: 725f         	strb	r7, [r3, #0x9]
      68: 6d61         	ldr	r1, [r4, #0x54]
      6a: 5f00         	ldrsh	r0, [r0, r4]
      6c: 725f         	strb	r7, [r3, #0x9]
      6e: 6d61         	ldr	r1, [r4, #0x54]
      70: 735f         	strb	r7, [r3, #0xd]
      72: 7a69         	ldrb	r1, [r5, #0x9]
      74: 0065         	lsls	r5, r4, #0x1
      76: 5f5f         	ldrsh	r7, [r3, r5]
      78: 6c74         	ldr	r4, [r6, #0x44]
      7a: 5f73         	ldrsh	r3, [r6, r5]
      7c: 6c61         	ldr	r1, [r4, #0x44]
      7e: 6769         	str	r1, [r5, #0x74]
      80: 006e         	lsls	r6, r5, #0x1
      82: 5f5f         	ldrsh	r7, [r3, r5]
      84: 7362         	strb	r2, [r4, #0xd]
      86: 5f73         	ldrsh	r3, [r6, r5]
      88: 6e65         	ldr	r5, [r4, #0x64]
      8a: 0064         	lsls	r4, r4, #0x1
      8c: 5f5f         	ldrsh	r7, [r3, r5]
      8e: 6568         	str	r0, [r5, #0x54]
      90: 7061         	strb	r1, [r4, #0x1]
      92: 735f         	strb	r7, [r3, #0xd]
      94: 7a69         	ldrb	r1, [r5, #0x9]
      96: 5f65         	ldrsh	r5, [r4, r5]
      98: 696d         	ldr	r5, [r5, #0x14]
      9a: 006e         	lsls	r6, r5, #0x1
      9c: 5f5f         	ldrsh	r7, [r3, r5]
      9e: 7473         	strb	r3, [r6, #0x11]
      a0: 6361         	str	r1, [r4, #0x34]
      a2: 5f6b         	ldrsh	r3, [r5, r5]
      a4: 6973         	ldr	r3, [r6, #0x14]
      a6: 657a         	str	r2, [r7, #0x54]
      a8: 5f00         	ldrsh	r0, [r0, r4]
      aa: 645f         	str	r7, [r3, #0x44]
      ac: 7461         	strb	r1, [r4, #0x11]
      ae: 5f61         	ldrsh	r1, [r4, r5]
      b0: 6973         	ldr	r3, [r6, #0x14]
      b2: 657a         	str	r2, [r7, #0x54]
      b4: 5f00         	ldrsh	r0, [r0, r4]
      b6: 645f         	str	r7, [r3, #0x44]
      b8: 7461         	strb	r1, [r4, #0x11]
      ba: 5f61         	ldrsh	r1, [r4, r5]
      bc: 6f73         	ldr	r3, [r6, #0x74]
      be: 7275         	strb	r5, [r6, #0x9]
      c0: 6563         	str	r3, [r4, #0x54]
      c2: 735f         	strb	r7, [r3, #0xd]
      c4: 7a69         	ldrb	r1, [r5, #0x9]
      c6: 0065         	lsls	r5, r4, #0x1
      c8: 5f5f         	ldrsh	r7, [r3, r5]
      ca: 7473         	strb	r3, [r6, #0x11]
      cc: 6361         	str	r1, [r4, #0x34]
      ce: 006b         	lsls	r3, r5, #0x1
      d0: 5f5f         	ldrsh	r7, [r3, r5]
      d2: 6e65         	ldr	r5, [r4, #0x64]
      d4: 0064         	lsls	r4, r4, #0x1
      d6: 5f5f         	ldrsh	r7, [r3, r5]
      d8: 6164         	str	r4, [r4, #0x14]
      da: 6174         	str	r4, [r6, #0x14]
      dc: 735f         	strb	r7, [r3, #0xd]
      de: 756f         	strb	r7, [r5, #0x15]
      e0: 6372         	str	r2, [r6, #0x34]
      e2: 5f65         	ldrsh	r5, [r4, r5]
      e4: 6e65         	ldr	r5, [r4, #0x64]
      e6: 0064         	lsls	r4, r4, #0x1
      e8: 5f5f         	ldrsh	r7, [r3, r5]
      ea: 6164         	str	r4, [r4, #0x14]
      ec: 6174         	str	r4, [r6, #0x14]
      ee: 735f         	strb	r7, [r3, #0xd]
      f0: 756f         	strb	r7, [r5, #0x15]
      f2: 6372         	str	r2, [r6, #0x34]
      f4: 0065         	lsls	r5, r4, #0x1
      f6: 5f5f         	ldrsh	r7, [r3, r5]
      f8: 6474         	str	r4, [r6, #0x44]
      fa: 7461         	strb	r1, [r4, #0x11]
      fc: 5f61         	ldrsh	r1, [r4, r5]
      fe: 6f73         	ldr	r3, [r6, #0x74]
     100: 7275         	strb	r5, [r6, #0x9]
     102: 6563         	str	r3, [r4, #0x54]
     104: 655f         	str	r7, [r3, #0x54]
     106: 646e         	str	r6, [r5, #0x44]
     108: 5f00         	ldrsh	r0, [r0, r4]
     10a: 645f         	str	r7, [r3, #0x44]
     10c: 7461         	strb	r1, [r4, #0x11]
     10e: 5f61         	ldrsh	r1, [r4, r5]
     110: 6e65         	ldr	r5, [r4, #0x64]
     112: 0064         	lsls	r4, r4, #0x1
     114: 5f5f         	ldrsh	r7, [r3, r5]
     116: 6164         	str	r4, [r4, #0x14]
     118: 6174         	str	r4, [r6, #0x14]
     11a: 735f         	strb	r7, [r3, #0xd]
     11c: 6174         	str	r4, [r6, #0x14]
     11e: 7472         	strb	r2, [r6, #0x11]
     120: 5f00         	ldrsh	r0, [r0, r4]
     122: 745f         	strb	r7, [r3, #0x11]
     124: 7865         	ldrb	r5, [r4, #0x1]
     126: 5f74         	ldrsh	r4, [r6, r5]
     128: 6e65         	ldr	r5, [r4, #0x64]
     12a: 0064         	lsls	r4, r4, #0x1
     12c: 655f         	str	r7, [r3, #0x54]
     12e: 646e         	str	r6, [r5, #0x44]
     130: 00           	<unknown>
