
benchmarks/matmul.out:	file format elf32-littlearm

Disassembly of section .text:

00000000 <sbrk>:
; extern void* sbrk(ptrdiff_t increment) {
       0: 4601         	mov	r1, r0
;     char* prev_heap_ptr = heap_ptr;
       2: 4a06         	ldr	r2, [pc, #0x18]         @ 0x1c <sbrk+0x1c>
       4: 6810         	ldr	r0, [r2]
;     if (increment > 0) {
       6: 2901         	cmp	r1, #0x1
       8: db07         	blt	0x1a <sbrk+0x1a>        @ imm = #0xe
;         if (heap_ptr + increment > &__heap_end) {
       a: 1841         	adds	r1, r0, r1
       c: 4b04         	ldr	r3, [pc, #0x10]         @ 0x20 <sbrk+0x20>
       e: 4299         	cmp	r1, r3
      10: d902         	bls	0x18 <sbrk+0x18>        @ imm = #0x4
      12: 2000         	movs	r0, #0x0
      14: 43c0         	mvns	r0, r0
; }
      16: 4770         	bx	lr
;         heap_ptr += increment;
      18: 6011         	str	r1, [r2]
; }
      1a: 4770         	bx	lr
      1c: 00 00 00 20  	.word	0x20000000
      20: 00 00 f8 21  	.word	0x21f80000

00000024 <main>:
; int main() {
      24: b5f0         	push	{r4, r5, r6, r7, lr}
      26: af03         	add	r7, sp, #0xc
      28: 4e1a         	ldr	r6, [pc, #0x68]         @ 0x94 <main+0x70>
      2a: 44b5         	add	sp, r6
      2c: 2019         	movs	r0, #0x19
      2e: 0181         	lsls	r1, r0, #0x6
      30: a805         	add	r0, sp, #0x14
;     volatile int result[SIZE][SIZE] = {0};
      32: f000 f831    	bl	0x98 <bzero>            @ imm = #0x62
      36: 2000         	movs	r0, #0x0
      38: 4914         	ldr	r1, [pc, #0x50]         @ 0x8c <main+0x68>
      3a: 9002         	str	r0, [sp, #0x8]
      3c: 9003         	str	r0, [sp, #0xc]
      3e: 4b14         	ldr	r3, [pc, #0x50]         @ 0x90 <main+0x6c>
      40: 9d02         	ldr	r5, [sp, #0x8]
      42: 2050         	movs	r0, #0x50
      44: 9a03         	ldr	r2, [sp, #0xc]
      46: 4350         	muls	r0, r2, r0
      48: ac05         	add	r4, sp, #0x14
      4a: 1820         	adds	r0, r4, r0
      4c: 00ac         	lsls	r4, r5, #0x2
      4e: 1906         	adds	r6, r0, r4
      50: 9304         	str	r3, [sp, #0x10]
      52: 461c         	mov	r4, r3
      54: 9802         	ldr	r0, [sp, #0x8]
;                 result[i][j] += matrix1[i][k] * matrix2[k][j];
      56: 580b         	ldr	r3, [r1, r0]
      58: 6822         	ldr	r2, [r4]
      5a: 435a         	muls	r2, r3, r2
      5c: 6833         	ldr	r3, [r6]
      5e: 189a         	adds	r2, r3, r2
      60: 6032         	str	r2, [r6]
;             for (int k = 0; k < SIZE; k++) {
      62: 3450         	adds	r4, #0x50
      64: 1d00         	adds	r0, r0, #0x4
      66: 2850         	cmp	r0, #0x50
      68: d1f5         	bne	0x56 <main+0x32>        @ imm = #-0x16
      6a: 9b04         	ldr	r3, [sp, #0x10]
;         for (int j = 0; j < SIZE; j++) {
      6c: 1d1b         	adds	r3, r3, #0x4
      6e: 1c6d         	adds	r5, r5, #0x1
      70: 2d14         	cmp	r5, #0x14
      72: d1e6         	bne	0x42 <main+0x1e>        @ imm = #-0x34
;     for (int i = 0; i < SIZE; i++) {
      74: 3150         	adds	r1, #0x50
      76: 9803         	ldr	r0, [sp, #0xc]
      78: 1c40         	adds	r0, r0, #0x1
      7a: 9003         	str	r0, [sp, #0xc]
;     for (int i = 0; i < SIZE; i++) {
      7c: 2814         	cmp	r0, #0x14
      7e: d1de         	bne	0x3e <main+0x1a>        @ imm = #-0x44
      80: 2000         	movs	r0, #0x0
;     __asm volatile ("svc 0" :  : "r"(r0) : "memory");
      82: df00         	svc	#0x0
; }
      84: 1ffe         	subs	r6, r7, #0x7
      86: 3e05         	subs	r6, #0x5
      88: 46b5         	mov	sp, r6
      8a: bdf0         	pop	{r4, r5, r6, r7, pc}
      8c: b8 00 00 00  	.word	0x000000b8
      90: f8 06 00 00  	.word	0x000006f8
      94: ac f9 ff ff  	.word	0xfffff9ac

00000098 <bzero>:
      98: b580         	push	{r7, lr}
      9a: af00         	add	r7, sp, #0x0
      9c: 460a         	mov	r2, r1
      9e: 2100         	movs	r1, #0x0
      a0: f000 f802    	bl	0xa8 <memset>           @ imm = #0x4
      a4: bd80         	pop	{r7, pc}
      a6: d4d4         	bmi	0x52 <main+0x2e>        @ imm = #-0x58

000000a8 <memset>:
      a8: 2300         	movs	r3, #0x0
      aa: 429a         	cmp	r2, r3
      ac: d002         	beq	0xb4 <memset+0xc>       @ imm = #0x4
      ae: 54c1         	strb	r1, [r0, r3]
      b0: 1c5b         	adds	r3, r3, #0x1
      b2: e7fa         	b	0xaa <memset+0x2>       @ imm = #-0xc
      b4: 4770         	bx	lr

000000b6 <__text_end>:
      b6: d4d4         	bmi	0x62 <main+0x3e>        @ imm = #-0x58

Disassembly of section .rodata:

000000b8 <.rodata>:
      b8: 000c         	movs	r4, r1
      ba: 0000         	movs	r0, r0
      bc: 0005         	movs	r5, r0
      be: 0000         	movs	r0, r0
      c0: 0007         	movs	r7, r0
      c2: 0000         	movs	r0, r0
      c4: 0013         	movs	r3, r2
      c6: 0000         	movs	r0, r0
      c8: 0002         	movs	r2, r0
      ca: 0000         	movs	r0, r0
      cc: 0008         	movs	r0, r1
      ce: 0000         	movs	r0, r0
      d0: 0003         	movs	r3, r0
      d2: 0000         	movs	r0, r0
      d4: 000b         	movs	r3, r1
      d6: 0000         	movs	r0, r0
      d8: 0006         	movs	r6, r0
      da: 0000         	movs	r0, r0
      dc: 0004         	movs	r4, r0
      de: 0000         	movs	r0, r0
      e0: 000d         	movs	r5, r1
      e2: 0000         	movs	r0, r0
      e4: 0011         	movs	r1, r2
      e6: 0000         	movs	r0, r0
      e8: 0009         	movs	r1, r1
      ea: 0000         	movs	r0, r0
      ec: 0005         	movs	r5, r0
      ee: 0000         	movs	r0, r0
      f0: 0002         	movs	r2, r0
      f2: 0000         	movs	r0, r0
      f4: 0008         	movs	r0, r1
      f6: 0000         	movs	r0, r0
      f8: 000f         	movs	r7, r1
      fa: 0000         	movs	r0, r0
      fc: 000a         	movs	r2, r1
      fe: 0000         	movs	r0, r0
     100: 0007         	movs	r7, r0
     102: 0000         	movs	r0, r0
     104: 0003         	movs	r3, r0
     106: 0000         	movs	r0, r0
     108: 0009         	movs	r1, r1
     10a: 0000         	movs	r0, r0
     10c: 000e         	movs	r6, r1
     10e: 0000         	movs	r0, r0
     110: 0001         	movs	r1, r0
     112: 0000         	movs	r0, r0
     114: 000d         	movs	r5, r1
     116: 0000         	movs	r0, r0
     118: 0005         	movs	r5, r0
     11a: 0000         	movs	r0, r0
     11c: 0007         	movs	r7, r0
     11e: 0000         	movs	r0, r0
     120: 0008         	movs	r0, r1
     122: 0000         	movs	r0, r0
     124: 000a         	movs	r2, r1
     126: 0000         	movs	r0, r0
     128: 000c         	movs	r4, r1
     12a: 0000         	movs	r0, r0
     12c: 0002         	movs	r2, r0
     12e: 0000         	movs	r0, r0
     130: 0006         	movs	r6, r0
     132: 0000         	movs	r0, r0
     134: 000b         	movs	r3, r1
     136: 0000         	movs	r0, r0
     138: 000f         	movs	r7, r1
     13a: 0000         	movs	r0, r0
     13c: 0004         	movs	r4, r0
     13e: 0000         	movs	r0, r0
     140: 0007         	movs	r7, r0
     142: 0000         	movs	r0, r0
     144: 0001         	movs	r1, r0
     146: 0000         	movs	r0, r0
     148: 000d         	movs	r5, r1
     14a: 0000         	movs	r0, r0
     14c: 0010         	movs	r0, r2
     14e: 0000         	movs	r0, r0
     150: 0002         	movs	r2, r0
     152: 0000         	movs	r0, r0
     154: 0005         	movs	r5, r0
     156: 0000         	movs	r0, r0
     158: 0006         	movs	r6, r0
     15a: 0000         	movs	r0, r0
     15c: 0003         	movs	r3, r0
     15e: 0000         	movs	r0, r0
     160: 0011         	movs	r1, r2
     162: 0000         	movs	r0, r0
     164: 0004         	movs	r4, r0
     166: 0000         	movs	r0, r0
     168: 0009         	movs	r1, r1
     16a: 0000         	movs	r0, r0
     16c: 0001         	movs	r1, r0
     16e: 0000         	movs	r0, r0
     170: 0005         	movs	r5, r0
     172: 0000         	movs	r0, r0
     174: 000e         	movs	r6, r1
     176: 0000         	movs	r0, r0
     178: 000b         	movs	r3, r1
     17a: 0000         	movs	r0, r0
     17c: 0007         	movs	r7, r0
     17e: 0000         	movs	r0, r0
     180: 0002         	movs	r2, r0
     182: 0000         	movs	r0, r0
     184: 0008         	movs	r0, r1
     186: 0000         	movs	r0, r0
     188: 000d         	movs	r5, r1
     18a: 0000         	movs	r0, r0
     18c: 0006         	movs	r6, r0
     18e: 0000         	movs	r0, r0
     190: 0003         	movs	r3, r0
     192: 0000         	movs	r0, r0
     194: 000c         	movs	r4, r1
     196: 0000         	movs	r0, r0
     198: 0009         	movs	r1, r1
     19a: 0000         	movs	r0, r0
     19c: 0005         	movs	r5, r0
     19e: 0000         	movs	r0, r0
     1a0: 000e         	movs	r6, r1
     1a2: 0000         	movs	r0, r0
     1a4: 0008         	movs	r0, r1
     1a6: 0000         	movs	r0, r0
     1a8: 0008         	movs	r0, r1
     1aa: 0000         	movs	r0, r0
     1ac: 0002         	movs	r2, r0
     1ae: 0000         	movs	r0, r0
     1b0: 000d         	movs	r5, r1
     1b2: 0000         	movs	r0, r0
     1b4: 0006         	movs	r6, r0
     1b6: 0000         	movs	r0, r0
     1b8: 000a         	movs	r2, r1
     1ba: 0000         	movs	r0, r0
     1bc: 0003         	movs	r3, r0
     1be: 0000         	movs	r0, r0
     1c0: 0007         	movs	r7, r0
     1c2: 0000         	movs	r0, r0
     1c4: 000c         	movs	r4, r1
     1c6: 0000         	movs	r0, r0
     1c8: 0001         	movs	r1, r0
     1ca: 0000         	movs	r0, r0
     1cc: 0009         	movs	r1, r1
     1ce: 0000         	movs	r0, r0
     1d0: 000e         	movs	r6, r1
     1d2: 0000         	movs	r0, r0
     1d4: 000b         	movs	r3, r1
     1d6: 0000         	movs	r0, r0
     1d8: 0002         	movs	r2, r0
     1da: 0000         	movs	r0, r0
     1dc: 0007         	movs	r7, r0
     1de: 0000         	movs	r0, r0
     1e0: 0005         	movs	r5, r0
     1e2: 0000         	movs	r0, r0
     1e4: 0004         	movs	r4, r0
     1e6: 0000         	movs	r0, r0
     1e8: 0006         	movs	r6, r0
     1ea: 0000         	movs	r0, r0
     1ec: 0008         	movs	r0, r1
     1ee: 0000         	movs	r0, r0
     1f0: 0009         	movs	r1, r1
     1f2: 0000         	movs	r0, r0
     1f4: 0005         	movs	r5, r0
     1f6: 0000         	movs	r0, r0
     1f8: 000b         	movs	r3, r1
     1fa: 0000         	movs	r0, r0
     1fc: 0007         	movs	r7, r0
     1fe: 0000         	movs	r0, r0
     200: 0005         	movs	r5, r0
     202: 0000         	movs	r0, r0
     204: 0002         	movs	r2, r0
     206: 0000         	movs	r0, r0
     208: 000e         	movs	r6, r1
     20a: 0000         	movs	r0, r0
     20c: 0009         	movs	r1, r1
     20e: 0000         	movs	r0, r0
     210: 0006         	movs	r6, r0
     212: 0000         	movs	r0, r0
     214: 0004         	movs	r4, r0
     216: 0000         	movs	r0, r0
     218: 0003         	movs	r3, r0
     21a: 0000         	movs	r0, r0
     21c: 0008         	movs	r0, r1
     21e: 0000         	movs	r0, r0
     220: 000d         	movs	r5, r1
     222: 0000         	movs	r0, r0
     224: 000c         	movs	r4, r1
     226: 0000         	movs	r0, r0
     228: 0005         	movs	r5, r0
     22a: 0000         	movs	r0, r0
     22c: 000a         	movs	r2, r1
     22e: 0000         	movs	r0, r0
     230: 0007         	movs	r7, r0
     232: 0000         	movs	r0, r0
     234: 0009         	movs	r1, r1
     236: 0000         	movs	r0, r0
     238: 000b         	movs	r3, r1
     23a: 0000         	movs	r0, r0
     23c: 0006         	movs	r6, r0
     23e: 0000         	movs	r0, r0
     240: 0003         	movs	r3, r0
     242: 0000         	movs	r0, r0
     244: 0002         	movs	r2, r0
     246: 0000         	movs	r0, r0
     248: 0004         	movs	r4, r0
     24a: 0000         	movs	r0, r0
     24c: 000a         	movs	r2, r1
     24e: 0000         	movs	r0, r0
     250: 0002         	movs	r2, r0
     252: 0000         	movs	r0, r0
     254: 0007         	movs	r7, r0
     256: 0000         	movs	r0, r0
     258: 000c         	movs	r4, r1
     25a: 0000         	movs	r0, r0
     25c: 0005         	movs	r5, r0
     25e: 0000         	movs	r0, r0
     260: 0009         	movs	r1, r1
     262: 0000         	movs	r0, r0
     264: 0001         	movs	r1, r0
     266: 0000         	movs	r0, r0
     268: 0008         	movs	r0, r1
     26a: 0000         	movs	r0, r0
     26c: 000b         	movs	r3, r1
     26e: 0000         	movs	r0, r0
     270: 0006         	movs	r6, r0
     272: 0000         	movs	r0, r0
     274: 0007         	movs	r7, r0
     276: 0000         	movs	r0, r0
     278: 000e         	movs	r6, r1
     27a: 0000         	movs	r0, r0
     27c: 0002         	movs	r2, r0
     27e: 0000         	movs	r0, r0
     280: 0005         	movs	r5, r0
     282: 0000         	movs	r0, r0
     284: 0003         	movs	r3, r0
     286: 0000         	movs	r0, r0
     288: 0008         	movs	r0, r1
     28a: 0000         	movs	r0, r0
     28c: 000c         	movs	r4, r1
     28e: 0000         	movs	r0, r0
     290: 0004         	movs	r4, r0
     292: 0000         	movs	r0, r0
     294: 0009         	movs	r1, r1
     296: 0000         	movs	r0, r0
     298: 0007         	movs	r7, r0
     29a: 0000         	movs	r0, r0
     29c: 0008         	movs	r0, r1
     29e: 0000         	movs	r0, r0
     2a0: 0006         	movs	r6, r0
     2a2: 0000         	movs	r0, r0
     2a4: 0005         	movs	r5, r0
     2a6: 0000         	movs	r0, r0
     2a8: 0003         	movs	r3, r0
     2aa: 0000         	movs	r0, r0
     2ac: 000b         	movs	r3, r1
     2ae: 0000         	movs	r0, r0
     2b0: 0002         	movs	r2, r0
     2b2: 0000         	movs	r0, r0
     2b4: 0009         	movs	r1, r1
     2b6: 0000         	movs	r0, r0
     2b8: 000a         	movs	r2, r1
     2ba: 0000         	movs	r0, r0
     2bc: 0001         	movs	r1, r0
     2be: 0000         	movs	r0, r0
     2c0: 000d         	movs	r5, r1
     2c2: 0000         	movs	r0, r0
     2c4: 0004         	movs	r4, r0
     2c6: 0000         	movs	r0, r0
     2c8: 0008         	movs	r0, r1
     2ca: 0000         	movs	r0, r0
     2cc: 0007         	movs	r7, r0
     2ce: 0000         	movs	r0, r0
     2d0: 000c         	movs	r4, r1
     2d2: 0000         	movs	r0, r0
     2d4: 0005         	movs	r5, r0
     2d6: 0000         	movs	r0, r0
     2d8: 0006         	movs	r6, r0
     2da: 0000         	movs	r0, r0
     2dc: 000b         	movs	r3, r1
     2de: 0000         	movs	r0, r0
     2e0: 0002         	movs	r2, r0
     2e2: 0000         	movs	r0, r0
     2e4: 000a         	movs	r2, r1
     2e6: 0000         	movs	r0, r0
     2e8: 0005         	movs	r5, r0
     2ea: 0000         	movs	r0, r0
     2ec: 0001         	movs	r1, r0
     2ee: 0000         	movs	r0, r0
     2f0: 0009         	movs	r1, r1
     2f2: 0000         	movs	r0, r0
     2f4: 0008         	movs	r0, r1
     2f6: 0000         	movs	r0, r0
     2f8: 0007         	movs	r7, r0
     2fa: 0000         	movs	r0, r0
     2fc: 0002         	movs	r2, r0
     2fe: 0000         	movs	r0, r0
     300: 0004         	movs	r4, r0
     302: 0000         	movs	r0, r0
     304: 0006         	movs	r6, r0
     306: 0000         	movs	r0, r0
     308: 000b         	movs	r3, r1
     30a: 0000         	movs	r0, r0
     30c: 0003         	movs	r3, r0
     30e: 0000         	movs	r0, r0
     310: 0005         	movs	r5, r0
     312: 0000         	movs	r0, r0
     314: 000a         	movs	r2, r1
     316: 0000         	movs	r0, r0
     318: 0009         	movs	r1, r1
     31a: 0000         	movs	r0, r0
     31c: 0008         	movs	r0, r1
     31e: 0000         	movs	r0, r0
     320: 0006         	movs	r6, r0
     322: 0000         	movs	r0, r0
     324: 0002         	movs	r2, r0
     326: 0000         	movs	r0, r0
     328: 0001         	movs	r1, r0
     32a: 0000         	movs	r0, r0
     32c: 0007         	movs	r7, r0
     32e: 0000         	movs	r0, r0
     330: 000c         	movs	r4, r1
     332: 0000         	movs	r0, r0
     334: 0005         	movs	r5, r0
     336: 0000         	movs	r0, r0
     338: 0003         	movs	r3, r0
     33a: 0000         	movs	r0, r0
     33c: 000b         	movs	r3, r1
     33e: 0000         	movs	r0, r0
     340: 0004         	movs	r4, r0
     342: 0000         	movs	r0, r0
     344: 000a         	movs	r2, r1
     346: 0000         	movs	r0, r0
     348: 0001         	movs	r1, r0
     34a: 0000         	movs	r0, r0
     34c: 0006         	movs	r6, r0
     34e: 0000         	movs	r0, r0
     350: 0008         	movs	r0, r1
     352: 0000         	movs	r0, r0
     354: 0005         	movs	r5, r0
     356: 0000         	movs	r0, r0
     358: 0002         	movs	r2, r0
     35a: 0000         	movs	r0, r0
     35c: 0007         	movs	r7, r0
     35e: 0000         	movs	r0, r0
     360: 0009         	movs	r1, r1
     362: 0000         	movs	r0, r0
     364: 000d         	movs	r5, r1
     366: 0000         	movs	r0, r0
     368: 0004         	movs	r4, r0
     36a: 0000         	movs	r0, r0
     36c: 0006         	movs	r6, r0
     36e: 0000         	movs	r0, r0
     370: 000b         	movs	r3, r1
     372: 0000         	movs	r0, r0
     374: 0008         	movs	r0, r1
     376: 0000         	movs	r0, r0
     378: 000a         	movs	r2, r1
     37a: 0000         	movs	r0, r0
     37c: 0003         	movs	r3, r0
     37e: 0000         	movs	r0, r0
     380: 0005         	movs	r5, r0
     382: 0000         	movs	r0, r0
     384: 0007         	movs	r7, r0
     386: 0000         	movs	r0, r0
     388: 0002         	movs	r2, r0
     38a: 0000         	movs	r0, r0
     38c: 0006         	movs	r6, r0
     38e: 0000         	movs	r0, r0
     390: 0008         	movs	r0, r1
     392: 0000         	movs	r0, r0
     394: 0001         	movs	r1, r0
     396: 0000         	movs	r0, r0
     398: 0005         	movs	r5, r0
     39a: 0000         	movs	r0, r0
     39c: 000a         	movs	r2, r1
     39e: 0000         	movs	r0, r0
     3a0: 000b         	movs	r3, r1
     3a2: 0000         	movs	r0, r0
     3a4: 0003         	movs	r3, r0
     3a6: 0000         	movs	r0, r0
     3a8: 0009         	movs	r1, r1
     3aa: 0000         	movs	r0, r0
     3ac: 0004         	movs	r4, r0
     3ae: 0000         	movs	r0, r0
     3b0: 0007         	movs	r7, r0
     3b2: 0000         	movs	r0, r0
     3b4: 000c         	movs	r4, r1
     3b6: 0000         	movs	r0, r0
     3b8: 0006         	movs	r6, r0
     3ba: 0000         	movs	r0, r0
     3bc: 0005         	movs	r5, r0
     3be: 0000         	movs	r0, r0
     3c0: 0003         	movs	r3, r0
     3c2: 0000         	movs	r0, r0
     3c4: 0009         	movs	r1, r1
     3c6: 0000         	movs	r0, r0
     3c8: 000b         	movs	r3, r1
     3ca: 0000         	movs	r0, r0
     3cc: 0008         	movs	r0, r1
     3ce: 0000         	movs	r0, r0
     3d0: 0002         	movs	r2, r0
     3d2: 0000         	movs	r0, r0
     3d4: 0006         	movs	r6, r0
     3d6: 0000         	movs	r0, r0
     3d8: 000d         	movs	r5, r1
     3da: 0000         	movs	r0, r0
     3dc: 0004         	movs	r4, r0
     3de: 0000         	movs	r0, r0
     3e0: 0005         	movs	r5, r0
     3e2: 0000         	movs	r0, r0
     3e4: 0009         	movs	r1, r1
     3e6: 0000         	movs	r0, r0
     3e8: 0007         	movs	r7, r0
     3ea: 0000         	movs	r0, r0
     3ec: 000c         	movs	r4, r1
     3ee: 0000         	movs	r0, r0
     3f0: 0003         	movs	r3, r0
     3f2: 0000         	movs	r0, r0
     3f4: 0008         	movs	r0, r1
     3f6: 0000         	movs	r0, r0
     3f8: 000a         	movs	r2, r1
     3fa: 0000         	movs	r0, r0
     3fc: 0001         	movs	r1, r0
     3fe: 0000         	movs	r0, r0
     400: 0005         	movs	r5, r0
     402: 0000         	movs	r0, r0
     404: 0006         	movs	r6, r0
     406: 0000         	movs	r0, r0
     408: 000b         	movs	r3, r1
     40a: 0000         	movs	r0, r0
     40c: 0002         	movs	r2, r0
     40e: 0000         	movs	r0, r0
     410: 0009         	movs	r1, r1
     412: 0000         	movs	r0, r0
     414: 0007         	movs	r7, r0
     416: 0000         	movs	r0, r0
     418: 0004         	movs	r4, r0
     41a: 0000         	movs	r0, r0
     41c: 000d         	movs	r5, r1
     41e: 0000         	movs	r0, r0
     420: 0008         	movs	r0, r1
     422: 0000         	movs	r0, r0
     424: 0005         	movs	r5, r0
     426: 0000         	movs	r0, r0
     428: 0007         	movs	r7, r0
     42a: 0000         	movs	r0, r0
     42c: 0009         	movs	r1, r1
     42e: 0000         	movs	r0, r0
     430: 0002         	movs	r2, r0
     432: 0000         	movs	r0, r0
     434: 000b         	movs	r3, r1
     436: 0000         	movs	r0, r0
     438: 0008         	movs	r0, r1
     43a: 0000         	movs	r0, r0
     43c: 0005         	movs	r5, r0
     43e: 0000         	movs	r0, r0
     440: 0006         	movs	r6, r0
     442: 0000         	movs	r0, r0
     444: 000d         	movs	r5, r1
     446: 0000         	movs	r0, r0
     448: 0001         	movs	r1, r0
     44a: 0000         	movs	r0, r0
     44c: 000a         	movs	r2, r1
     44e: 0000         	movs	r0, r0
     450: 0003         	movs	r3, r0
     452: 0000         	movs	r0, r0
     454: 0007         	movs	r7, r0
     456: 0000         	movs	r0, r0
     458: 0005         	movs	r5, r0
     45a: 0000         	movs	r0, r0
     45c: 0009         	movs	r1, r1
     45e: 0000         	movs	r0, r0
     460: 0008         	movs	r0, r1
     462: 0000         	movs	r0, r0
     464: 0004         	movs	r4, r0
     466: 0000         	movs	r0, r0
     468: 0006         	movs	r6, r0
     46a: 0000         	movs	r0, r0
     46c: 000c         	movs	r4, r1
     46e: 0000         	movs	r0, r0
     470: 000b         	movs	r3, r1
     472: 0000         	movs	r0, r0
     474: 0003         	movs	r3, r0
     476: 0000         	movs	r0, r0
     478: 000a         	movs	r2, r1
     47a: 0000         	movs	r0, r0
     47c: 0001         	movs	r1, r0
     47e: 0000         	movs	r0, r0
     480: 0006         	movs	r6, r0
     482: 0000         	movs	r0, r0
     484: 0007         	movs	r7, r0
     486: 0000         	movs	r0, r0
     488: 0003         	movs	r3, r0
     48a: 0000         	movs	r0, r0
     48c: 000b         	movs	r3, r1
     48e: 0000         	movs	r0, r0
     490: 0005         	movs	r5, r0
     492: 0000         	movs	r0, r0
     494: 0009         	movs	r1, r1
     496: 0000         	movs	r0, r0
     498: 0002         	movs	r2, r0
     49a: 0000         	movs	r0, r0
     49c: 0008         	movs	r0, r1
     49e: 0000         	movs	r0, r0
     4a0: 0004         	movs	r4, r0
     4a2: 0000         	movs	r0, r0
     4a4: 0005         	movs	r5, r0
     4a6: 0000         	movs	r0, r0
     4a8: 000c         	movs	r4, r1
     4aa: 0000         	movs	r0, r0
     4ac: 0006         	movs	r6, r0
     4ae: 0000         	movs	r0, r0
     4b0: 0007         	movs	r7, r0
     4b2: 0000         	movs	r0, r0
     4b4: 0002         	movs	r2, r0
     4b6: 0000         	movs	r0, r0
     4b8: 000a         	movs	r2, r1
     4ba: 0000         	movs	r0, r0
     4bc: 0005         	movs	r5, r0
     4be: 0000         	movs	r0, r0
     4c0: 0009         	movs	r1, r1
     4c2: 0000         	movs	r0, r0
     4c4: 0004         	movs	r4, r0
     4c6: 0000         	movs	r0, r0
     4c8: 0009         	movs	r1, r1
     4ca: 0000         	movs	r0, r0
     4cc: 0008         	movs	r0, r1
     4ce: 0000         	movs	r0, r0
     4d0: 0003         	movs	r3, r0
     4d2: 0000         	movs	r0, r0
     4d4: 000c         	movs	r4, r1
     4d6: 0000         	movs	r0, r0
     4d8: 0004         	movs	r4, r0
     4da: 0000         	movs	r0, r0
     4dc: 0007         	movs	r7, r0
     4de: 0000         	movs	r0, r0
     4e0: 000a         	movs	r2, r1
     4e2: 0000         	movs	r0, r0
     4e4: 0002         	movs	r2, r0
     4e6: 0000         	movs	r0, r0
     4e8: 0005         	movs	r5, r0
     4ea: 0000         	movs	r0, r0
     4ec: 0006         	movs	r6, r0
     4ee: 0000         	movs	r0, r0
     4f0: 000b         	movs	r3, r1
     4f2: 0000         	movs	r0, r0
     4f4: 0001         	movs	r1, r0
     4f6: 0000         	movs	r0, r0
     4f8: 0008         	movs	r0, r1
     4fa: 0000         	movs	r0, r0
     4fc: 0003         	movs	r3, r0
     4fe: 0000         	movs	r0, r0
     500: 0009         	movs	r1, r1
     502: 0000         	movs	r0, r0
     504: 0005         	movs	r5, r0
     506: 0000         	movs	r0, r0
     508: 0007         	movs	r7, r0
     50a: 0000         	movs	r0, r0
     50c: 000a         	movs	r2, r1
     50e: 0000         	movs	r0, r0
     510: 0006         	movs	r6, r0
     512: 0000         	movs	r0, r0
     514: 0002         	movs	r2, r0
     516: 0000         	movs	r0, r0
     518: 0006         	movs	r6, r0
     51a: 0000         	movs	r0, r0
     51c: 0002         	movs	r2, r0
     51e: 0000         	movs	r0, r0
     520: 000a         	movs	r2, r1
     522: 0000         	movs	r0, r0
     524: 0005         	movs	r5, r0
     526: 0000         	movs	r0, r0
     528: 0009         	movs	r1, r1
     52a: 0000         	movs	r0, r0
     52c: 0004         	movs	r4, r0
     52e: 0000         	movs	r0, r0
     530: 000b         	movs	r3, r1
     532: 0000         	movs	r0, r0
     534: 0007         	movs	r7, r0
     536: 0000         	movs	r0, r0
     538: 0003         	movs	r3, r0
     53a: 0000         	movs	r0, r0
     53c: 0008         	movs	r0, r1
     53e: 0000         	movs	r0, r0
     540: 0001         	movs	r1, r0
     542: 0000         	movs	r0, r0
     544: 0009         	movs	r1, r1
     546: 0000         	movs	r0, r0
     548: 0006         	movs	r6, r0
     54a: 0000         	movs	r0, r0
     54c: 0007         	movs	r7, r0
     54e: 0000         	movs	r0, r0
     550: 0005         	movs	r5, r0
     552: 0000         	movs	r0, r0
     554: 0003         	movs	r3, r0
     556: 0000         	movs	r0, r0
     558: 0002         	movs	r2, r0
     55a: 0000         	movs	r0, r0
     55c: 000b         	movs	r3, r1
     55e: 0000         	movs	r0, r0
     560: 0004         	movs	r4, r0
     562: 0000         	movs	r0, r0
     564: 000a         	movs	r2, r1
     566: 0000         	movs	r0, r0
     568: 0004         	movs	r4, r0
     56a: 0000         	movs	r0, r0
     56c: 0005         	movs	r5, r0
     56e: 0000         	movs	r0, r0
     570: 000c         	movs	r4, r1
     572: 0000         	movs	r0, r0
     574: 0008         	movs	r0, r1
     576: 0000         	movs	r0, r0
     578: 0002         	movs	r2, r0
     57a: 0000         	movs	r0, r0
     57c: 0006         	movs	r6, r0
     57e: 0000         	movs	r0, r0
     580: 0007         	movs	r7, r0
     582: 0000         	movs	r0, r0
     584: 0001         	movs	r1, r0
     586: 0000         	movs	r0, r0
     588: 000a         	movs	r2, r1
     58a: 0000         	movs	r0, r0
     58c: 0003         	movs	r3, r0
     58e: 0000         	movs	r0, r0
     590: 0009         	movs	r1, r1
     592: 0000         	movs	r0, r0
     594: 0005         	movs	r5, r0
     596: 0000         	movs	r0, r0
     598: 0004         	movs	r4, r0
     59a: 0000         	movs	r0, r0
     59c: 0008         	movs	r0, r1
     59e: 0000         	movs	r0, r0
     5a0: 000b         	movs	r3, r1
     5a2: 0000         	movs	r0, r0
     5a4: 0007         	movs	r7, r0
     5a6: 0000         	movs	r0, r0
     5a8: 0006         	movs	r6, r0
     5aa: 0000         	movs	r0, r0
     5ac: 0002         	movs	r2, r0
     5ae: 0000         	movs	r0, r0
     5b0: 0009         	movs	r1, r1
     5b2: 0000         	movs	r0, r0
     5b4: 0001         	movs	r1, r0
     5b6: 0000         	movs	r0, r0
     5b8: 000b         	movs	r3, r1
     5ba: 0000         	movs	r0, r0
     5bc: 0003         	movs	r3, r0
     5be: 0000         	movs	r0, r0
     5c0: 0007         	movs	r7, r0
     5c2: 0000         	movs	r0, r0
     5c4: 0006         	movs	r6, r0
     5c6: 0000         	movs	r0, r0
     5c8: 0001         	movs	r1, r0
     5ca: 0000         	movs	r0, r0
     5cc: 0009         	movs	r1, r1
     5ce: 0000         	movs	r0, r0
     5d0: 0005         	movs	r5, r0
     5d2: 0000         	movs	r0, r0
     5d4: 0008         	movs	r0, r1
     5d6: 0000         	movs	r0, r0
     5d8: 0004         	movs	r4, r0
     5da: 0000         	movs	r0, r0
     5dc: 0002         	movs	r2, r0
     5de: 0000         	movs	r0, r0
     5e0: 000a         	movs	r2, r1
     5e2: 0000         	movs	r0, r0
     5e4: 0007         	movs	r7, r0
     5e6: 0000         	movs	r0, r0
     5e8: 000b         	movs	r3, r1
     5ea: 0000         	movs	r0, r0
     5ec: 0005         	movs	r5, r0
     5ee: 0000         	movs	r0, r0
     5f0: 0006         	movs	r6, r0
     5f2: 0000         	movs	r0, r0
     5f4: 0009         	movs	r1, r1
     5f6: 0000         	movs	r0, r0
     5f8: 0003         	movs	r3, r0
     5fa: 0000         	movs	r0, r0
     5fc: 0004         	movs	r4, r0
     5fe: 0000         	movs	r0, r0
     600: 0007         	movs	r7, r0
     602: 0000         	movs	r0, r0
     604: 0008         	movs	r0, r1
     606: 0000         	movs	r0, r0
     608: 0008         	movs	r0, r1
     60a: 0000         	movs	r0, r0
     60c: 0007         	movs	r7, r0
     60e: 0000         	movs	r0, r0
     610: 0005         	movs	r5, r0
     612: 0000         	movs	r0, r0
     614: 0002         	movs	r2, r0
     616: 0000         	movs	r0, r0
     618: 000b         	movs	r3, r1
     61a: 0000         	movs	r0, r0
     61c: 0003         	movs	r3, r0
     61e: 0000         	movs	r0, r0
     620: 0006         	movs	r6, r0
     622: 0000         	movs	r0, r0
     624: 0009         	movs	r1, r1
     626: 0000         	movs	r0, r0
     628: 0007         	movs	r7, r0
     62a: 0000         	movs	r0, r0
     62c: 0001         	movs	r1, r0
     62e: 0000         	movs	r0, r0
     630: 0004         	movs	r4, r0
     632: 0000         	movs	r0, r0
     634: 0002         	movs	r2, r0
     636: 0000         	movs	r0, r0
     638: 0008         	movs	r0, r1
     63a: 0000         	movs	r0, r0
     63c: 000a         	movs	r2, r1
     63e: 0000         	movs	r0, r0
     640: 0005         	movs	r5, r0
     642: 0000         	movs	r0, r0
     644: 0007         	movs	r7, r0
     646: 0000         	movs	r0, r0
     648: 000c         	movs	r4, r1
     64a: 0000         	movs	r0, r0
     64c: 0003         	movs	r3, r0
     64e: 0000         	movs	r0, r0
     650: 0006         	movs	r6, r0
     652: 0000         	movs	r0, r0
     654: 000b         	movs	r3, r1
     656: 0000         	movs	r0, r0
     658: 0005         	movs	r5, r0
     65a: 0000         	movs	r0, r0
     65c: 0006         	movs	r6, r0
     65e: 0000         	movs	r0, r0
     660: 000b         	movs	r3, r1
     662: 0000         	movs	r0, r0
     664: 0003         	movs	r3, r0
     666: 0000         	movs	r0, r0
     668: 0007         	movs	r7, r0
     66a: 0000         	movs	r0, r0
     66c: 0008         	movs	r0, r1
     66e: 0000         	movs	r0, r0
     670: 000a         	movs	r2, r1
     672: 0000         	movs	r0, r0
     674: 0004         	movs	r4, r0
     676: 0000         	movs	r0, r0
     678: 0001         	movs	r1, r0
     67a: 0000         	movs	r0, r0
     67c: 0009         	movs	r1, r1
     67e: 0000         	movs	r0, r0
     680: 0002         	movs	r2, r0
     682: 0000         	movs	r0, r0
     684: 0006         	movs	r6, r0
     686: 0000         	movs	r0, r0
     688: 0005         	movs	r5, r0
     68a: 0000         	movs	r0, r0
     68c: 0003         	movs	r3, r0
     68e: 0000         	movs	r0, r0
     690: 0008         	movs	r0, r1
     692: 0000         	movs	r0, r0
     694: 000b         	movs	r3, r1
     696: 0000         	movs	r0, r0
     698: 0009         	movs	r1, r1
     69a: 0000         	movs	r0, r0
     69c: 0007         	movs	r7, r0
     69e: 0000         	movs	r0, r0
     6a0: 000a         	movs	r2, r1
     6a2: 0000         	movs	r0, r0
     6a4: 0002         	movs	r2, r0
     6a6: 0000         	movs	r0, r0
     6a8: 0002         	movs	r2, r0
     6aa: 0000         	movs	r0, r0
     6ac: 0009         	movs	r1, r1
     6ae: 0000         	movs	r0, r0
     6b0: 0008         	movs	r0, r1
     6b2: 0000         	movs	r0, r0
     6b4: 0007         	movs	r7, r0
     6b6: 0000         	movs	r0, r0
     6b8: 0004         	movs	r4, r0
     6ba: 0000         	movs	r0, r0
     6bc: 000a         	movs	r2, r1
     6be: 0000         	movs	r0, r0
     6c0: 0001         	movs	r1, r0
     6c2: 0000         	movs	r0, r0
     6c4: 0005         	movs	r5, r0
     6c6: 0000         	movs	r0, r0
     6c8: 0006         	movs	r6, r0
     6ca: 0000         	movs	r0, r0
     6cc: 0003         	movs	r3, r0
     6ce: 0000         	movs	r0, r0
     6d0: 000b         	movs	r3, r1
     6d2: 0000         	movs	r0, r0
     6d4: 0009         	movs	r1, r1
     6d6: 0000         	movs	r0, r0
     6d8: 0007         	movs	r7, r0
     6da: 0000         	movs	r0, r0
     6dc: 0004         	movs	r4, r0
     6de: 0000         	movs	r0, r0
     6e0: 0002         	movs	r2, r0
     6e2: 0000         	movs	r0, r0
     6e4: 000a         	movs	r2, r1
     6e6: 0000         	movs	r0, r0
     6e8: 0005         	movs	r5, r0
     6ea: 0000         	movs	r0, r0
     6ec: 0008         	movs	r0, r1
     6ee: 0000         	movs	r0, r0
     6f0: 0003         	movs	r3, r0
     6f2: 0000         	movs	r0, r0
     6f4: 0006         	movs	r6, r0
     6f6: 0000         	movs	r0, r0
     6f8: 0004         	movs	r4, r0
     6fa: 0000         	movs	r0, r0
     6fc: 0007         	movs	r7, r0
     6fe: 0000         	movs	r0, r0
     700: 000d         	movs	r5, r1
     702: 0000         	movs	r0, r0
     704: 0006         	movs	r6, r0
     706: 0000         	movs	r0, r0
     708: 000b         	movs	r3, r1
     70a: 0000         	movs	r0, r0
     70c: 0002         	movs	r2, r0
     70e: 0000         	movs	r0, r0
     710: 0009         	movs	r1, r1
     712: 0000         	movs	r0, r0
     714: 0001         	movs	r1, r0
     716: 0000         	movs	r0, r0
     718: 0005         	movs	r5, r0
     71a: 0000         	movs	r0, r0
     71c: 000c         	movs	r4, r1
     71e: 0000         	movs	r0, r0
     720: 0008         	movs	r0, r1
     722: 0000         	movs	r0, r0
     724: 000a         	movs	r2, r1
     726: 0000         	movs	r0, r0
     728: 0003         	movs	r3, r0
     72a: 0000         	movs	r0, r0
     72c: 0007         	movs	r7, r0
     72e: 0000         	movs	r0, r0
     730: 0006         	movs	r6, r0
     732: 0000         	movs	r0, r0
     734: 0009         	movs	r1, r1
     736: 0000         	movs	r0, r0
     738: 0005         	movs	r5, r0
     73a: 0000         	movs	r0, r0
     73c: 0008         	movs	r0, r1
     73e: 0000         	movs	r0, r0
     740: 000b         	movs	r3, r1
     742: 0000         	movs	r0, r0
     744: 0002         	movs	r2, r0
     746: 0000         	movs	r0, r0
     748: 0006         	movs	r6, r0
     74a: 0000         	movs	r0, r0
     74c: 000c         	movs	r4, r1
     74e: 0000         	movs	r0, r0
     750: 0003         	movs	r3, r0
     752: 0000         	movs	r0, r0
     754: 0008         	movs	r0, r1
     756: 0000         	movs	r0, r0
     758: 0002         	movs	r2, r0
     75a: 0000         	movs	r0, r0
     75c: 000a         	movs	r2, r1
     75e: 0000         	movs	r0, r0
     760: 0005         	movs	r5, r0
     762: 0000         	movs	r0, r0
     764: 0007         	movs	r7, r0
     766: 0000         	movs	r0, r0
     768: 0009         	movs	r1, r1
     76a: 0000         	movs	r0, r0
     76c: 0004         	movs	r4, r0
     76e: 0000         	movs	r0, r0
     770: 000b         	movs	r3, r1
     772: 0000         	movs	r0, r0
     774: 0006         	movs	r6, r0
     776: 0000         	movs	r0, r0
     778: 0001         	movs	r1, r0
     77a: 0000         	movs	r0, r0
     77c: 0008         	movs	r0, r1
     77e: 0000         	movs	r0, r0
     780: 0007         	movs	r7, r0
     782: 0000         	movs	r0, r0
     784: 0003         	movs	r3, r0
     786: 0000         	movs	r0, r0
     788: 000a         	movs	r2, r1
     78a: 0000         	movs	r0, r0
     78c: 0009         	movs	r1, r1
     78e: 0000         	movs	r0, r0
     790: 0005         	movs	r5, r0
     792: 0000         	movs	r0, r0
     794: 000c         	movs	r4, r1
     796: 0000         	movs	r0, r0
     798: 0008         	movs	r0, r1
     79a: 0000         	movs	r0, r0
     79c: 0005         	movs	r5, r0
     79e: 0000         	movs	r0, r0
     7a0: 0007         	movs	r7, r0
     7a2: 0000         	movs	r0, r0
     7a4: 000a         	movs	r2, r1
     7a6: 0000         	movs	r0, r0
     7a8: 0006         	movs	r6, r0
     7aa: 0000         	movs	r0, r0
     7ac: 0004         	movs	r4, r0
     7ae: 0000         	movs	r0, r0
     7b0: 0002         	movs	r2, r0
     7b2: 0000         	movs	r0, r0
     7b4: 000b         	movs	r3, r1
     7b6: 0000         	movs	r0, r0
     7b8: 0003         	movs	r3, r0
     7ba: 0000         	movs	r0, r0
     7bc: 0009         	movs	r1, r1
     7be: 0000         	movs	r0, r0
     7c0: 000c         	movs	r4, r1
     7c2: 0000         	movs	r0, r0
     7c4: 0001         	movs	r1, r0
     7c6: 0000         	movs	r0, r0
     7c8: 0005         	movs	r5, r0
     7ca: 0000         	movs	r0, r0
     7cc: 0007         	movs	r7, r0
     7ce: 0000         	movs	r0, r0
     7d0: 0006         	movs	r6, r0
     7d2: 0000         	movs	r0, r0
     7d4: 0004         	movs	r4, r0
     7d6: 0000         	movs	r0, r0
     7d8: 0008         	movs	r0, r1
     7da: 0000         	movs	r0, r0
     7dc: 0002         	movs	r2, r0
     7de: 0000         	movs	r0, r0
     7e0: 0009         	movs	r1, r1
     7e2: 0000         	movs	r0, r0
     7e4: 0003         	movs	r3, r0
     7e6: 0000         	movs	r0, r0
     7e8: 000b         	movs	r3, r1
     7ea: 0000         	movs	r0, r0
     7ec: 0009         	movs	r1, r1
     7ee: 0000         	movs	r0, r0
     7f0: 0002         	movs	r2, r0
     7f2: 0000         	movs	r0, r0
     7f4: 0007         	movs	r7, r0
     7f6: 0000         	movs	r0, r0
     7f8: 0005         	movs	r5, r0
     7fa: 0000         	movs	r0, r0
     7fc: 0008         	movs	r0, r1
     7fe: 0000         	movs	r0, r0
     800: 000a         	movs	r2, r1
     802: 0000         	movs	r0, r0
     804: 0003         	movs	r3, r0
     806: 0000         	movs	r0, r0
     808: 0006         	movs	r6, r0
     80a: 0000         	movs	r0, r0
     80c: 0001         	movs	r1, r0
     80e: 0000         	movs	r0, r0
     810: 0007         	movs	r7, r0
     812: 0000         	movs	r0, r0
     814: 0005         	movs	r5, r0
     816: 0000         	movs	r0, r0
     818: 000c         	movs	r4, r1
     81a: 0000         	movs	r0, r0
     81c: 0004         	movs	r4, r0
     81e: 0000         	movs	r0, r0
     820: 000b         	movs	r3, r1
     822: 0000         	movs	r0, r0
     824: 0008         	movs	r0, r1
     826: 0000         	movs	r0, r0
     828: 0009         	movs	r1, r1
     82a: 0000         	movs	r0, r0
     82c: 0006         	movs	r6, r0
     82e: 0000         	movs	r0, r0
     830: 0002         	movs	r2, r0
     832: 0000         	movs	r0, r0
     834: 000a         	movs	r2, r1
     836: 0000         	movs	r0, r0
     838: 0009         	movs	r1, r1
     83a: 0000         	movs	r0, r0
     83c: 0003         	movs	r3, r0
     83e: 0000         	movs	r0, r0
     840: 0006         	movs	r6, r0
     842: 0000         	movs	r0, r0
     844: 0001         	movs	r1, r0
     846: 0000         	movs	r0, r0
     848: 0007         	movs	r7, r0
     84a: 0000         	movs	r0, r0
     84c: 000b         	movs	r3, r1
     84e: 0000         	movs	r0, r0
     850: 0008         	movs	r0, r1
     852: 0000         	movs	r0, r0
     854: 0004         	movs	r4, r0
     856: 0000         	movs	r0, r0
     858: 0002         	movs	r2, r0
     85a: 0000         	movs	r0, r0
     85c: 000a         	movs	r2, r1
     85e: 0000         	movs	r0, r0
     860: 0005         	movs	r5, r0
     862: 0000         	movs	r0, r0
     864: 0009         	movs	r1, r1
     866: 0000         	movs	r0, r0
     868: 0006         	movs	r6, r0
     86a: 0000         	movs	r0, r0
     86c: 000c         	movs	r4, r1
     86e: 0000         	movs	r0, r0
     870: 0003         	movs	r3, r0
     872: 0000         	movs	r0, r0
     874: 0005         	movs	r5, r0
     876: 0000         	movs	r0, r0
     878: 0007         	movs	r7, r0
     87a: 0000         	movs	r0, r0
     87c: 0008         	movs	r0, r1
     87e: 0000         	movs	r0, r0
     880: 0004         	movs	r4, r0
     882: 0000         	movs	r0, r0
     884: 000b         	movs	r3, r1
     886: 0000         	movs	r0, r0
     888: 0007         	movs	r7, r0
     88a: 0000         	movs	r0, r0
     88c: 0001         	movs	r1, r0
     88e: 0000         	movs	r0, r0
     890: 000b         	movs	r3, r1
     892: 0000         	movs	r0, r0
     894: 0005         	movs	r5, r0
     896: 0000         	movs	r0, r0
     898: 0004         	movs	r4, r0
     89a: 0000         	movs	r0, r0
     89c: 0006         	movs	r6, r0
     89e: 0000         	movs	r0, r0
     8a0: 0003         	movs	r3, r0
     8a2: 0000         	movs	r0, r0
     8a4: 000c         	movs	r4, r1
     8a6: 0000         	movs	r0, r0
     8a8: 0008         	movs	r0, r1
     8aa: 0000         	movs	r0, r0
     8ac: 0002         	movs	r2, r0
     8ae: 0000         	movs	r0, r0
     8b0: 0009         	movs	r1, r1
     8b2: 0000         	movs	r0, r0
     8b4: 0007         	movs	r7, r0
     8b6: 0000         	movs	r0, r0
     8b8: 000a         	movs	r2, r1
     8ba: 0000         	movs	r0, r0
     8bc: 0005         	movs	r5, r0
     8be: 0000         	movs	r0, r0
     8c0: 0002         	movs	r2, r0
     8c2: 0000         	movs	r0, r0
     8c4: 000b         	movs	r3, r1
     8c6: 0000         	movs	r0, r0
     8c8: 0006         	movs	r6, r0
     8ca: 0000         	movs	r0, r0
     8cc: 0004         	movs	r4, r0
     8ce: 0000         	movs	r0, r0
     8d0: 0007         	movs	r7, r0
     8d2: 0000         	movs	r0, r0
     8d4: 0009         	movs	r1, r1
     8d6: 0000         	movs	r0, r0
     8d8: 0005         	movs	r5, r0
     8da: 0000         	movs	r0, r0
     8dc: 0008         	movs	r0, r1
     8de: 0000         	movs	r0, r0
     8e0: 0004         	movs	r4, r0
     8e2: 0000         	movs	r0, r0
     8e4: 000c         	movs	r4, r1
     8e6: 0000         	movs	r0, r0
     8e8: 0009         	movs	r1, r1
     8ea: 0000         	movs	r0, r0
     8ec: 0007         	movs	r7, r0
     8ee: 0000         	movs	r0, r0
     8f0: 0006         	movs	r6, r0
     8f2: 0000         	movs	r0, r0
     8f4: 0002         	movs	r2, r0
     8f6: 0000         	movs	r0, r0
     8f8: 000b         	movs	r3, r1
     8fa: 0000         	movs	r0, r0
     8fc: 0003         	movs	r3, r0
     8fe: 0000         	movs	r0, r0
     900: 0001         	movs	r1, r0
     902: 0000         	movs	r0, r0
     904: 0005         	movs	r5, r0
     906: 0000         	movs	r0, r0
     908: 0008         	movs	r0, r1
     90a: 0000         	movs	r0, r0
     90c: 0006         	movs	r6, r0
     90e: 0000         	movs	r0, r0
     910: 0009         	movs	r1, r1
     912: 0000         	movs	r0, r0
     914: 0002         	movs	r2, r0
     916: 0000         	movs	r0, r0
     918: 0003         	movs	r3, r0
     91a: 0000         	movs	r0, r0
     91c: 000a         	movs	r2, r1
     91e: 0000         	movs	r0, r0
     920: 0005         	movs	r5, r0
     922: 0000         	movs	r0, r0
     924: 0007         	movs	r7, r0
     926: 0000         	movs	r0, r0
     928: 0002         	movs	r2, r0
     92a: 0000         	movs	r0, r0
     92c: 000b         	movs	r3, r1
     92e: 0000         	movs	r0, r0
     930: 0005         	movs	r5, r0
     932: 0000         	movs	r0, r0
     934: 0009         	movs	r1, r1
     936: 0000         	movs	r0, r0
     938: 0008         	movs	r0, r1
     93a: 0000         	movs	r0, r0
     93c: 0001         	movs	r1, r0
     93e: 0000         	movs	r0, r0
     940: 0007         	movs	r7, r0
     942: 0000         	movs	r0, r0
     944: 000a         	movs	r2, r1
     946: 0000         	movs	r0, r0
     948: 0004         	movs	r4, r0
     94a: 0000         	movs	r0, r0
     94c: 0006         	movs	r6, r0
     94e: 0000         	movs	r0, r0
     950: 0003         	movs	r3, r0
     952: 0000         	movs	r0, r0
     954: 0008         	movs	r0, r1
     956: 0000         	movs	r0, r0
     958: 0009         	movs	r1, r1
     95a: 0000         	movs	r0, r0
     95c: 0002         	movs	r2, r0
     95e: 0000         	movs	r0, r0
     960: 000c         	movs	r4, r1
     962: 0000         	movs	r0, r0
     964: 0007         	movs	r7, r0
     966: 0000         	movs	r0, r0
     968: 0005         	movs	r5, r0
     96a: 0000         	movs	r0, r0
     96c: 000b         	movs	r3, r1
     96e: 0000         	movs	r0, r0
     970: 0001         	movs	r1, r0
     972: 0000         	movs	r0, r0
     974: 0006         	movs	r6, r0
     976: 0000         	movs	r0, r0
     978: 0003         	movs	r3, r0
     97a: 0000         	movs	r0, r0
     97c: 000a         	movs	r2, r1
     97e: 0000         	movs	r0, r0
     980: 0009         	movs	r1, r1
     982: 0000         	movs	r0, r0
     984: 0002         	movs	r2, r0
     986: 0000         	movs	r0, r0
     988: 000c         	movs	r4, r1
     98a: 0000         	movs	r0, r0
     98c: 0005         	movs	r5, r0
     98e: 0000         	movs	r0, r0
     990: 000b         	movs	r3, r1
     992: 0000         	movs	r0, r0
     994: 0006         	movs	r6, r0
     996: 0000         	movs	r0, r0
     998: 0007         	movs	r7, r0
     99a: 0000         	movs	r0, r0
     99c: 0008         	movs	r0, r1
     99e: 0000         	movs	r0, r0
     9a0: 0004         	movs	r4, r0
     9a2: 0000         	movs	r0, r0
     9a4: 0001         	movs	r1, r0
     9a6: 0000         	movs	r0, r0
     9a8: 0006         	movs	r6, r0
     9aa: 0000         	movs	r0, r0
     9ac: 0003         	movs	r3, r0
     9ae: 0000         	movs	r0, r0
     9b0: 0005         	movs	r5, r0
     9b2: 0000         	movs	r0, r0
     9b4: 000c         	movs	r4, r1
     9b6: 0000         	movs	r0, r0
     9b8: 0008         	movs	r0, r1
     9ba: 0000         	movs	r0, r0
     9bc: 0009         	movs	r1, r1
     9be: 0000         	movs	r0, r0
     9c0: 0007         	movs	r7, r0
     9c2: 0000         	movs	r0, r0
     9c4: 0002         	movs	r2, r0
     9c6: 0000         	movs	r0, r0
     9c8: 000a         	movs	r2, r1
     9ca: 0000         	movs	r0, r0
     9cc: 0002         	movs	r2, r0
     9ce: 0000         	movs	r0, r0
     9d0: 0008         	movs	r0, r1
     9d2: 0000         	movs	r0, r0
     9d4: 000b         	movs	r3, r1
     9d6: 0000         	movs	r0, r0
     9d8: 0001         	movs	r1, r0
     9da: 0000         	movs	r0, r0
     9dc: 0009         	movs	r1, r1
     9de: 0000         	movs	r0, r0
     9e0: 000c         	movs	r4, r1
     9e2: 0000         	movs	r0, r0
     9e4: 0005         	movs	r5, r0
     9e6: 0000         	movs	r0, r0
     9e8: 0003         	movs	r3, r0
     9ea: 0000         	movs	r0, r0
     9ec: 0007         	movs	r7, r0
     9ee: 0000         	movs	r0, r0
     9f0: 0006         	movs	r6, r0
     9f2: 0000         	movs	r0, r0
     9f4: 0002         	movs	r2, r0
     9f6: 0000         	movs	r0, r0
     9f8: 000b         	movs	r3, r1
     9fa: 0000         	movs	r0, r0
     9fc: 0008         	movs	r0, r1
     9fe: 0000         	movs	r0, r0
     a00: 0004         	movs	r4, r0
     a02: 0000         	movs	r0, r0
     a04: 0006         	movs	r6, r0
     a06: 0000         	movs	r0, r0
     a08: 0009         	movs	r1, r1
     a0a: 0000         	movs	r0, r0
     a0c: 0005         	movs	r5, r0
     a0e: 0000         	movs	r0, r0
     a10: 0003         	movs	r3, r0
     a12: 0000         	movs	r0, r0
     a14: 000a         	movs	r2, r1
     a16: 0000         	movs	r0, r0
     a18: 000c         	movs	r4, r1
     a1a: 0000         	movs	r0, r0
     a1c: 0006         	movs	r6, r0
     a1e: 0000         	movs	r0, r0
     a20: 0001         	movs	r1, r0
     a22: 0000         	movs	r0, r0
     a24: 0004         	movs	r4, r0
     a26: 0000         	movs	r0, r0
     a28: 000a         	movs	r2, r1
     a2a: 0000         	movs	r0, r0
     a2c: 0003         	movs	r3, r0
     a2e: 0000         	movs	r0, r0
     a30: 0005         	movs	r5, r0
     a32: 0000         	movs	r0, r0
     a34: 0007         	movs	r7, r0
     a36: 0000         	movs	r0, r0
     a38: 0009         	movs	r1, r1
     a3a: 0000         	movs	r0, r0
     a3c: 000b         	movs	r3, r1
     a3e: 0000         	movs	r0, r0
     a40: 0002         	movs	r2, r0
     a42: 0000         	movs	r0, r0
     a44: 000c         	movs	r4, r1
     a46: 0000         	movs	r0, r0
     a48: 0004         	movs	r4, r0
     a4a: 0000         	movs	r0, r0
     a4c: 000a         	movs	r2, r1
     a4e: 0000         	movs	r0, r0
     a50: 0006         	movs	r6, r0
     a52: 0000         	movs	r0, r0
     a54: 0008         	movs	r0, r1
     a56: 0000         	movs	r0, r0
     a58: 0007         	movs	r7, r0
     a5a: 0000         	movs	r0, r0
     a5c: 0003         	movs	r3, r0
     a5e: 0000         	movs	r0, r0
     a60: 0005         	movs	r5, r0
     a62: 0000         	movs	r0, r0
     a64: 0001         	movs	r1, r0
     a66: 0000         	movs	r0, r0
     a68: 0001         	movs	r1, r0
     a6a: 0000         	movs	r0, r0
     a6c: 0005         	movs	r5, r0
     a6e: 0000         	movs	r0, r0
     a70: 000c         	movs	r4, r1
     a72: 0000         	movs	r0, r0
     a74: 0003         	movs	r3, r0
     a76: 0000         	movs	r0, r0
     a78: 0006         	movs	r6, r0
     a7a: 0000         	movs	r0, r0
     a7c: 0002         	movs	r2, r0
     a7e: 0000         	movs	r0, r0
     a80: 0008         	movs	r0, r1
     a82: 0000         	movs	r0, r0
     a84: 0009         	movs	r1, r1
     a86: 0000         	movs	r0, r0
     a88: 000a         	movs	r2, r1
     a8a: 0000         	movs	r0, r0
     a8c: 0004         	movs	r4, r0
     a8e: 0000         	movs	r0, r0
     a90: 0007         	movs	r7, r0
     a92: 0000         	movs	r0, r0
     a94: 000b         	movs	r3, r1
     a96: 0000         	movs	r0, r0
     a98: 0005         	movs	r5, r0
     a9a: 0000         	movs	r0, r0
     a9c: 0006         	movs	r6, r0
     a9e: 0000         	movs	r0, r0
     aa0: 0002         	movs	r2, r0
     aa2: 0000         	movs	r0, r0
     aa4: 0009         	movs	r1, r1
     aa6: 0000         	movs	r0, r0
     aa8: 000c         	movs	r4, r1
     aaa: 0000         	movs	r0, r0
     aac: 0008         	movs	r0, r1
     aae: 0000         	movs	r0, r0
     ab0: 0004         	movs	r4, r0
     ab2: 0000         	movs	r0, r0
     ab4: 0003         	movs	r3, r0
     ab6: 0000         	movs	r0, r0
     ab8: 0005         	movs	r5, r0
     aba: 0000         	movs	r0, r0
     abc: 0007         	movs	r7, r0
     abe: 0000         	movs	r0, r0
     ac0: 0002         	movs	r2, r0
     ac2: 0000         	movs	r0, r0
     ac4: 0006         	movs	r6, r0
     ac6: 0000         	movs	r0, r0
     ac8: 0003         	movs	r3, r0
     aca: 0000         	movs	r0, r0
     acc: 000c         	movs	r4, r1
     ace: 0000         	movs	r0, r0
     ad0: 0004         	movs	r4, r0
     ad2: 0000         	movs	r0, r0
     ad4: 0008         	movs	r0, r1
     ad6: 0000         	movs	r0, r0
     ad8: 0001         	movs	r1, r0
     ada: 0000         	movs	r0, r0
     adc: 0005         	movs	r5, r0
     ade: 0000         	movs	r0, r0
     ae0: 000a         	movs	r2, r1
     ae2: 0000         	movs	r0, r0
     ae4: 0009         	movs	r1, r1
     ae6: 0000         	movs	r0, r0
     ae8: 0002         	movs	r2, r0
     aea: 0000         	movs	r0, r0
     aec: 000b         	movs	r3, r1
     aee: 0000         	movs	r0, r0
     af0: 0007         	movs	r7, r0
     af2: 0000         	movs	r0, r0
     af4: 0003         	movs	r3, r0
     af6: 0000         	movs	r0, r0
     af8: 0001         	movs	r1, r0
     afa: 0000         	movs	r0, r0
     afc: 0006         	movs	r6, r0
     afe: 0000         	movs	r0, r0
     b00: 0009         	movs	r1, r1
     b02: 0000         	movs	r0, r0
     b04: 0005         	movs	r5, r0
     b06: 0000         	movs	r0, r0
     b08: 000b         	movs	r3, r1
     b0a: 0000         	movs	r0, r0
     b0c: 0004         	movs	r4, r0
     b0e: 0000         	movs	r0, r0
     b10: 000a         	movs	r2, r1
     b12: 0000         	movs	r0, r0
     b14: 0008         	movs	r0, r1
     b16: 0000         	movs	r0, r0
     b18: 0009         	movs	r1, r1
     b1a: 0000         	movs	r0, r0
     b1c: 0005         	movs	r5, r0
     b1e: 0000         	movs	r0, r0
     b20: 0002         	movs	r2, r0
     b22: 0000         	movs	r0, r0
     b24: 0003         	movs	r3, r0
     b26: 0000         	movs	r0, r0
     b28: 000c         	movs	r4, r1
     b2a: 0000         	movs	r0, r0
     b2c: 0006         	movs	r6, r0
     b2e: 0000         	movs	r0, r0
     b30: 0001         	movs	r1, r0
     b32: 0000         	movs	r0, r0
     b34: 0007         	movs	r7, r0
     b36: 0000         	movs	r0, r0
     b38: 0009         	movs	r1, r1
     b3a: 0000         	movs	r0, r0
     b3c: 0004         	movs	r4, r0
     b3e: 0000         	movs	r0, r0
     b40: 0005         	movs	r5, r0
     b42: 0000         	movs	r0, r0
     b44: 0008         	movs	r0, r1
     b46: 0000         	movs	r0, r0
     b48: 0002         	movs	r2, r0
     b4a: 0000         	movs	r0, r0
     b4c: 000a         	movs	r2, r1
     b4e: 0000         	movs	r0, r0
     b50: 0006         	movs	r6, r0
     b52: 0000         	movs	r0, r0
     b54: 0007         	movs	r7, r0
     b56: 0000         	movs	r0, r0
     b58: 0008         	movs	r0, r1
     b5a: 0000         	movs	r0, r0
     b5c: 0009         	movs	r1, r1
     b5e: 0000         	movs	r0, r0
     b60: 0005         	movs	r5, r0
     b62: 0000         	movs	r0, r0
     b64: 0001         	movs	r1, r0
     b66: 0000         	movs	r0, r0
     b68: 000b         	movs	r3, r1
     b6a: 0000         	movs	r0, r0
     b6c: 0007         	movs	r7, r0
     b6e: 0000         	movs	r0, r0
     b70: 0003         	movs	r3, r0
     b72: 0000         	movs	r0, r0
     b74: 0006         	movs	r6, r0
     b76: 0000         	movs	r0, r0
     b78: 0002         	movs	r2, r0
     b7a: 0000         	movs	r0, r0
     b7c: 000c         	movs	r4, r1
     b7e: 0000         	movs	r0, r0
     b80: 0004         	movs	r4, r0
     b82: 0000         	movs	r0, r0
     b84: 0008         	movs	r0, r1
     b86: 0000         	movs	r0, r0
     b88: 000a         	movs	r2, r1
     b8a: 0000         	movs	r0, r0
     b8c: 0005         	movs	r5, r0
     b8e: 0000         	movs	r0, r0
     b90: 0009         	movs	r1, r1
     b92: 0000         	movs	r0, r0
     b94: 0001         	movs	r1, r0
     b96: 0000         	movs	r0, r0
     b98: 0006         	movs	r6, r0
     b9a: 0000         	movs	r0, r0
     b9c: 0007         	movs	r7, r0
     b9e: 0000         	movs	r0, r0
     ba0: 000b         	movs	r3, r1
     ba2: 0000         	movs	r0, r0
     ba4: 0004         	movs	r4, r0
     ba6: 0000         	movs	r0, r0
     ba8: 0007         	movs	r7, r0
     baa: 0000         	movs	r0, r0
     bac: 0003         	movs	r3, r0
     bae: 0000         	movs	r0, r0
     bb0: 000b         	movs	r3, r1
     bb2: 0000         	movs	r0, r0
     bb4: 0005         	movs	r5, r0
     bb6: 0000         	movs	r0, r0
     bb8: 0002         	movs	r2, r0
     bba: 0000         	movs	r0, r0
     bbc: 0008         	movs	r0, r1
     bbe: 0000         	movs	r0, r0
     bc0: 0009         	movs	r1, r1
     bc2: 0000         	movs	r0, r0
     bc4: 0004         	movs	r4, r0
     bc6: 0000         	movs	r0, r0
     bc8: 000a         	movs	r2, r1
     bca: 0000         	movs	r0, r0
     bcc: 0001         	movs	r1, r0
     bce: 0000         	movs	r0, r0
     bd0: 0006         	movs	r6, r0
     bd2: 0000         	movs	r0, r0
     bd4: 0005         	movs	r5, r0
     bd6: 0000         	movs	r0, r0
     bd8: 0003         	movs	r3, r0
     bda: 0000         	movs	r0, r0
     bdc: 0007         	movs	r7, r0
     bde: 0000         	movs	r0, r0
     be0: 0002         	movs	r2, r0
     be2: 0000         	movs	r0, r0
     be4: 000c         	movs	r4, r1
     be6: 0000         	movs	r0, r0
     be8: 0008         	movs	r0, r1
     bea: 0000         	movs	r0, r0
     bec: 0009         	movs	r1, r1
     bee: 0000         	movs	r0, r0
     bf0: 0005         	movs	r5, r0
     bf2: 0000         	movs	r0, r0
     bf4: 000b         	movs	r3, r1
     bf6: 0000         	movs	r0, r0
     bf8: 0009         	movs	r1, r1
     bfa: 0000         	movs	r0, r0
     bfc: 0001         	movs	r1, r0
     bfe: 0000         	movs	r0, r0
     c00: 0006         	movs	r6, r0
     c02: 0000         	movs	r0, r0
     c04: 0007         	movs	r7, r0
     c06: 0000         	movs	r0, r0
     c08: 0008         	movs	r0, r1
     c0a: 0000         	movs	r0, r0
     c0c: 000c         	movs	r4, r1
     c0e: 0000         	movs	r0, r0
     c10: 000b         	movs	r3, r1
     c12: 0000         	movs	r0, r0
     c14: 0005         	movs	r5, r0
     c16: 0000         	movs	r0, r0
     c18: 0004         	movs	r4, r0
     c1a: 0000         	movs	r0, r0
     c1c: 0003         	movs	r3, r0
     c1e: 0000         	movs	r0, r0
     c20: 0007         	movs	r7, r0
     c22: 0000         	movs	r0, r0
     c24: 0002         	movs	r2, r0
     c26: 0000         	movs	r0, r0
     c28: 0001         	movs	r1, r0
     c2a: 0000         	movs	r0, r0
     c2c: 0009         	movs	r1, r1
     c2e: 0000         	movs	r0, r0
     c30: 0006         	movs	r6, r0
     c32: 0000         	movs	r0, r0
     c34: 000a         	movs	r2, r1
     c36: 0000         	movs	r0, r0
     c38: 0005         	movs	r5, r0
     c3a: 0000         	movs	r0, r0
     c3c: 000c         	movs	r4, r1
     c3e: 0000         	movs	r0, r0
     c40: 0008         	movs	r0, r1
     c42: 0000         	movs	r0, r0
     c44: 0006         	movs	r6, r0
     c46: 0000         	movs	r0, r0
     c48: 0006         	movs	r6, r0
     c4a: 0000         	movs	r0, r0
     c4c: 0008         	movs	r0, r1
     c4e: 0000         	movs	r0, r0
     c50: 0007         	movs	r7, r0
     c52: 0000         	movs	r0, r0
     c54: 000c         	movs	r4, r1
     c56: 0000         	movs	r0, r0
     c58: 0005         	movs	r5, r0
     c5a: 0000         	movs	r0, r0
     c5c: 0004         	movs	r4, r0
     c5e: 0000         	movs	r0, r0
     c60: 000a         	movs	r2, r1
     c62: 0000         	movs	r0, r0
     c64: 0002         	movs	r2, r0
     c66: 0000         	movs	r0, r0
     c68: 000b         	movs	r3, r1
     c6a: 0000         	movs	r0, r0
     c6c: 0009         	movs	r1, r1
     c6e: 0000         	movs	r0, r0
     c70: 0003         	movs	r3, r0
     c72: 0000         	movs	r0, r0
     c74: 0006         	movs	r6, r0
     c76: 0000         	movs	r0, r0
     c78: 0007         	movs	r7, r0
     c7a: 0000         	movs	r0, r0
     c7c: 0008         	movs	r0, r1
     c7e: 0000         	movs	r0, r0
     c80: 000c         	movs	r4, r1
     c82: 0000         	movs	r0, r0
     c84: 0004         	movs	r4, r0
     c86: 0000         	movs	r0, r0
     c88: 0001         	movs	r1, r0
     c8a: 0000         	movs	r0, r0
     c8c: 0005         	movs	r5, r0
     c8e: 0000         	movs	r0, r0
     c90: 0002         	movs	r2, r0
     c92: 0000         	movs	r0, r0
     c94: 0009         	movs	r1, r1
     c96: 0000         	movs	r0, r0
     c98: 0002         	movs	r2, r0
     c9a: 0000         	movs	r0, r0
     c9c: 000c         	movs	r4, r1
     c9e: 0000         	movs	r0, r0
     ca0: 0003         	movs	r3, r0
     ca2: 0000         	movs	r0, r0
     ca4: 000a         	movs	r2, r1
     ca6: 0000         	movs	r0, r0
     ca8: 0009         	movs	r1, r1
     caa: 0000         	movs	r0, r0
     cac: 0006         	movs	r6, r0
     cae: 0000         	movs	r0, r0
     cb0: 0001         	movs	r1, r0
     cb2: 0000         	movs	r0, r0
     cb4: 0008         	movs	r0, r1
     cb6: 0000         	movs	r0, r0
     cb8: 0005         	movs	r5, r0
     cba: 0000         	movs	r0, r0
     cbc: 0007         	movs	r7, r0
     cbe: 0000         	movs	r0, r0
     cc0: 000b         	movs	r3, r1
     cc2: 0000         	movs	r0, r0
     cc4: 0003         	movs	r3, r0
     cc6: 0000         	movs	r0, r0
     cc8: 000c         	movs	r4, r1
     cca: 0000         	movs	r0, r0
     ccc: 0002         	movs	r2, r0
     cce: 0000         	movs	r0, r0
     cd0: 0008         	movs	r0, r1
     cd2: 0000         	movs	r0, r0
     cd4: 0005         	movs	r5, r0
     cd6: 0000         	movs	r0, r0
     cd8: 0009         	movs	r1, r1
     cda: 0000         	movs	r0, r0
     cdc: 0006         	movs	r6, r0
     cde: 0000         	movs	r0, r0
     ce0: 0004         	movs	r4, r0
     ce2: 0000         	movs	r0, r0
     ce4: 0001         	movs	r1, r0
     ce6: 0000         	movs	r0, r0
     ce8: 0004         	movs	r4, r0
     cea: 0000         	movs	r0, r0
     cec: 0007         	movs	r7, r0
     cee: 0000         	movs	r0, r0
     cf0: 0008         	movs	r0, r1
     cf2: 0000         	movs	r0, r0
     cf4: 0002         	movs	r2, r0
     cf6: 0000         	movs	r0, r0
     cf8: 000c         	movs	r4, r1
     cfa: 0000         	movs	r0, r0
     cfc: 0005         	movs	r5, r0
     cfe: 0000         	movs	r0, r0
     d00: 0009         	movs	r1, r1
     d02: 0000         	movs	r0, r0
     d04: 000b         	movs	r3, r1
     d06: 0000         	movs	r0, r0
     d08: 0006         	movs	r6, r0
     d0a: 0000         	movs	r0, r0
     d0c: 0008         	movs	r0, r1
     d0e: 0000         	movs	r0, r0
     d10: 000a         	movs	r2, r1
     d12: 0000         	movs	r0, r0
     d14: 0004         	movs	r4, r0
     d16: 0000         	movs	r0, r0
     d18: 0003         	movs	r3, r0
     d1a: 0000         	movs	r0, r0
     d1c: 0001         	movs	r1, r0
     d1e: 0000         	movs	r0, r0
     d20: 0007         	movs	r7, r0
     d22: 0000         	movs	r0, r0
     d24: 0006         	movs	r6, r0
     d26: 0000         	movs	r0, r0
     d28: 000b         	movs	r3, r1
     d2a: 0000         	movs	r0, r0
     d2c: 0002         	movs	r2, r0
     d2e: 0000         	movs	r0, r0
     d30: 0005         	movs	r5, r0
     d32: 0000         	movs	r0, r0
     d34: 0009         	movs	r1, r1
     d36: 0000         	movs	r0, r0

Disassembly of section .data:

20000000 <heap_ptr>:
20000000: 0008         	movs	r0, r1
20000002: 2000         	movs	r0, #0x0
20000004: 0000         	movs	r0, r0
20000006: 0000         	movs	r0, r0

Disassembly of section .heap:

20000008 <.heap>:
...

Disassembly of section .stack:

20080008 <.stack>:
...

Disassembly of section .comment:

00000000 <.comment>:
; extern void* sbrk(ptrdiff_t increment) {
       0: 6300         	str	r0, [r0, #0x30]
;     char* prev_heap_ptr = heap_ptr;
       2: 616c         	str	r4, [r5, #0x14]
       4: 676e         	str	r6, [r5, #0x74]
;     if (increment > 0) {
       6: 7620         	strb	r0, [r4, #0x18]
       8: 7265         	strb	r5, [r4, #0x9]
;         if (heap_ptr + increment > &__heap_end) {
       a: 6973         	ldr	r3, [r6, #0x14]
       c: 6e6f         	ldr	r7, [r5, #0x64]
       e: 3120         	adds	r1, #0x20
      10: 2e39         	cmp	r6, #0x39
      12: 2e31         	cmp	r6, #0x31
      14: 0035         	movs	r5, r6
; }
      16: 694c         	ldr	r4, [r1, #0x14]
;         heap_ptr += increment;
      18: 6b6e         	ldr	r6, [r5, #0x34]
; }
      1a: 7265         	strb	r5, [r4, #0x9]
      1c: 203a         	movs	r0, #0x3a
      1e: 4c4c         	ldr	r4, [pc, #0x130]        @ 0x150 <.rodata+0x98>
      20: 2044         	movs	r0, #0x44
      22: 3931         	subs	r1, #0x31
; int main() {
      24: 312e         	adds	r1, #0x2e
      26: 352e         	adds	r5, #0x2e
      28: 00           	<unknown>

Disassembly of section .debug_info:

00000000 <.debug_info>:
; extern void* sbrk(ptrdiff_t increment) {
       0: 0123         	lsls	r3, r4, #0x4
;     char* prev_heap_ptr = heap_ptr;
       2: 0000         	movs	r0, r0
       4: 0005         	movs	r5, r0
;     if (increment > 0) {
       6: 0401         	lsls	r1, r0, #0x10
       8: 0000         	movs	r0, r0
;         if (heap_ptr + increment > &__heap_end) {
       a: 0000         	movs	r0, r0
       c: 0001         	movs	r1, r0
       e: 001d         	movs	r5, r3
      10: 0801         	lsrs	r1, r0, #0x20
      12: 0000         	movs	r0, r0
      14: 0000         	movs	r0, r0
; }
      16: 0000         	movs	r0, r0
;         heap_ptr += increment;
      18: 0200         	lsls	r0, r0, #0x8
; }
      1a: 9801         	ldr	r0, [sp, #0x4]
      1c: 0000         	movs	r0, r0
      1e: 0800         	lsrs	r0, r0, #0x20
      20: 0000         	movs	r0, r0
      22: 0c00         	lsrs	r0, r0, #0x10
; int main() {
      24: 0000         	movs	r0, r0
      26: 0200         	lsls	r0, r0, #0x8
      28: 3203         	adds	r2, #0x3
      2a: 0000         	movs	r0, r0
      2c: 0100         	lsls	r0, r0, #0x4
      2e: 0209         	lsls	r1, r1, #0x8
      30: 00a1         	lsls	r1, r4, #0x2
;     volatile int result[SIZE][SIZE] = {0};
      32: 3703         	adds	r7, #0x3
      34: 0000         	movs	r0, r0
      36: 0400         	lsls	r0, r0, #0x10
      38: 0804         	lsrs	r4, r0, #0x20
      3a: 0501         	lsls	r1, r0, #0x14
      3c: 0106         	lsls	r6, r0, #0x4
      3e: 0024         	movs	r4, r4
      40: 0000         	movs	r0, r0
      42: 5701         	ldrsb	r1, [r0, r4]
      44: 0109         	lsls	r1, r1, #0x4
      46: 3b1a         	subs	r3, #0x1a
      48: 0000         	movs	r0, r0
      4a: 0700         	lsls	r0, r0, #0x1c
      4c: 0c00         	lsrs	r0, r0, #0x10
      4e: 1a01         	subs	r1, r0, r0
      50: 00f1         	lsls	r1, r6, #0x3
      52: 0000         	movs	r0, r0
      54: 0108         	lsls	r0, r1, #0x4
;                 result[i][j] += matrix1[i][k] * matrix2[k][j];
      56: 010e         	lsls	r6, r1, #0x4
      58: 321b         	adds	r2, #0x1b
      5a: 0000         	movs	r0, r0
      5c: 0000         	movs	r0, r0
      5e: 0509         	lsls	r1, r1, #0x14
      60: 0b01         	lsrs	r1, r0, #0xc
;             for (int k = 0; k < SIZE; k++) {
      62: 060a         	lsls	r2, r1, #0x18
      64: 0b01         	lsrs	r1, r0, #0xc
      66: 0073         	lsls	r3, r6, #0x1
      68: 0000         	movs	r0, r0
      6a: 080b         	lsrs	r3, r1, #0x20
;         for (int j = 0; j < SIZE; j++) {
      6c: 0c01         	lsrs	r1, r0, #0x10
      6e: 0073         	lsls	r3, r6, #0x1
      70: 0000         	movs	r0, r0
      72: 0400         	lsls	r0, r0, #0x10
;     for (int i = 0; i < SIZE; i++) {
      74: 0707         	lsls	r7, r0, #0x1c
      76: 0c04         	lsrs	r4, r0, #0x10
      78: 7402         	strb	r2, [r0, #0x10]
      7a: 0000         	movs	r0, r0
;     for (int i = 0; i < SIZE; i++) {
      7c: 0100         	lsls	r0, r0, #0x4
      7e: 0a57         	lsrs	r7, r2, #0x9
      80: 0502         	lsls	r2, r0, #0x14
;     __asm volatile ("svc 0" :  : "r"(r0) : "memory");
      82: 00ed         	lsls	r5, r5, #0x3
; }
      84: 0000         	movs	r0, r0
      86: 020d         	lsls	r5, r1, #0x8
      88: 147d         	asrs	r5, r7, #0x11
      8a: 020f         	lsls	r7, r1, #0x8
      8c: f934 0000    	<unknown>
      90: 0b00         	lsrs	r0, r0, #0xc
      92: 0214         	lsls	r4, r2, #0x8
      94: 1406         	asrs	r6, r0, #0x10
      96: 0001         	movs	r1, r0
      98: 0b00         	lsrs	r0, r0, #0xc
      9a: 0215         	lsls	r5, r2, #0x8
      9c: 141d         	asrs	r5, r3, #0x10
      9e: 0001         	movs	r1, r0
      a0: 0e00         	lsrs	r0, r0, #0x18
      a2: 2a03         	cmp	r2, #0x3
      a4: 0000         	movs	r0, r0
      a6: 0800         	lsrs	r0, r0, #0x20
      a8: 1102         	asrs	r2, r0, #0x4
      aa: 3702         	adds	r7, #0x2
      ac: 00ed         	lsls	r5, r5, #0x3
      ae: 0000         	movs	r0, r0
      b0: 030e         	lsls	r6, r1, #0xc
      b2: 001e         	movs	r6, r3
      b4: 0000         	movs	r0, r0
      b6: 010d         	lsls	r5, r1, #0x4
      b8: 1255         	asrs	r5, r2, #0x9
      ba: 3802         	subs	r0, #0x2
      bc: 00ed         	lsls	r5, r5, #0x3
      be: 0000         	movs	r0, r0
      c0: 030e         	lsls	r6, r1, #0xc
      c2: 0014         	movs	r4, r2
      c4: 0000         	movs	r0, r0
      c6: 0308         	lsls	r0, r1, #0xc
      c8: 0213         	lsls	r3, r2, #0x8
      ca: ed39 0000    	<unknown>
      ce: 0000         	movs	r0, r0
      d0: 0000         	movs	r0, r0
      d2: 5e0f         	ldrsh	r7, [r1, r0]
      d4: 0000         	movs	r0, r0
      d6: 0400         	lsls	r0, r0, #0x10
      d8: 0002         	movs	r2, r0
      da: 0000         	movs	r0, r0
      dc: 3f02         	subs	r7, #0x2
      de: 1005         	asrs	r5, r0, #0x20
      e0: 6200         	str	r0, [r0, #0x20]
      e2: 0000         	movs	r0, r0
      e4: 1100         	asrs	r0, r0, #0x4
      e6: 6a00         	ldr	r0, [r0, #0x20]
      e8: 0000         	movs	r0, r0
      ea: 0000         	movs	r0, r0
      ec: 0400         	lsls	r0, r0, #0x10
      ee: 050b         	lsls	r3, r1, #0x14
      f0: 1204         	asrs	r4, r0, #0x8
      f2: 00ed         	lsls	r5, r5, #0x3
      f4: 0000         	movs	r0, r0
      f6: 030d         	lsls	r5, r1, #0xc
      f8: 1312         	asrs	r2, r2, #0xc
      fa: 010b         	lsls	r3, r1, #0x4
      fc: 0000         	movs	r0, r0
      fe: 1014         	asrs	r4, r2, #0x20
     100: 0001         	movs	r1, r0
     102: 1400         	asrs	r0, r0, #0x10
     104: 1014         	asrs	r4, r2, #0x20
     106: 0001         	movs	r1, r0
     108: 1400         	asrs	r0, r0, #0x10
     10a: 1500         	asrs	r0, r0, #0x14
     10c: 00ed         	lsls	r5, r5, #0x3
     10e: 0000         	movs	r0, r0
     110: 1016         	asrs	r6, r2, #0x20
     112: 0708         	lsls	r0, r1, #0x1c
     114: ed13 0000    	<unknown>
     118: 1400         	asrs	r0, r0, #0x10
     11a: 0110         	lsls	r0, r2, #0x4
     11c: 0000         	movs	r0, r0
     11e: 1414         	asrs	r4, r2, #0x10
     120: 0110         	lsls	r0, r2, #0x4
     122: 0000         	movs	r0, r0
     124: 0014         	movs	r4, r2
     126: 4f00         	ldr	r7, [pc, #0x0]          @ 0x128 <.rodata+0x70>
     128: 0000         	movs	r0, r0
     12a: 0500         	lsls	r0, r0, #0x14
     12c: 0100         	lsls	r0, r0, #0x4
     12e: 2304         	movs	r3, #0x4
     130: 0001         	movs	r1, r0
     132: 0100         	lsls	r0, r0, #0x4
     134: 1d00         	adds	r0, r0, #0x4
     136: 0100         	lsls	r0, r0, #0x4
     138: 0068         	lsls	r0, r5, #0x1
     13a: 0000         	movs	r0, r0
     13c: 011f         	lsls	r7, r3, #0x4
     13e: 0000         	movs	r0, r0
     140: 0002         	movs	r2, r0
     142: 000e         	movs	r6, r1
     144: 0000         	movs	r0, r0
     146: 0024         	movs	r4, r4
     148: 0000         	movs	r0, r0
     14a: 0069         	lsls	r1, r5, #0x1
     14c: 0000         	movs	r0, r0
     14e: 0002         	movs	r2, r0
     150: 000e         	movs	r6, r1
     152: 0000         	movs	r0, r0
     154: 5701         	ldrsb	r1, [r0, r4]
     156: 0103         	lsls	r3, r0, #0x4
     158: 0331         	lsls	r1, r6, #0xc
     15a: 0400         	lsls	r0, r0, #0x10
     15c: 3101         	adds	r1, #0x1
     15e: 0045         	lsls	r5, r0, #0x1
     160: 0000         	movs	r0, r0
     162: 0103         	lsls	r3, r0, #0x4
     164: 0105         	lsls	r5, r0, #0x4
     166: 4631         	mov	r1, r6
     168: 0000         	movs	r0, r0
     16a: 0000         	movs	r0, r0
     16c: 0504         	lsls	r4, r0, #0x14
     16e: 004e         	lsls	r6, r1, #0x1
     170: 0000         	movs	r0, r0
     172: 0207         	lsls	r7, r0, #0x8
     174: 0612         	lsls	r2, r2, #0x18
     176: 0706         	lsls	r6, r0, #0x1c
     178: 0004         	movs	r4, r0
     17a: 0074         	lsls	r4, r6, #0x1
     17c: 0000         	movs	r0, r0
     17e: 0005         	movs	r5, r0
     180: 0401         	lsls	r1, r0, #0x10
     182: 0181         	lsls	r1, r0, #0x6
     184: 0000         	movs	r0, r0
     186: 0001         	movs	r1, r0
     188: 001d         	movs	r5, r3
     18a: 9001         	str	r0, [sp, #0x4]
     18c: 0000         	movs	r0, r0
     18e: ab00         	add	r3, sp, #0x0
     190: 0001         	movs	r1, r0
     192: 0200         	lsls	r0, r0, #0x8
     194: 0e00         	lsrs	r0, r0, #0x18
     196: 0000         	movs	r0, r0
     198: 3000         	adds	r0, #0x0
     19a: 0000         	movs	r0, r0
     19c: 9600         	str	r6, [sp]
     19e: 0000         	movs	r0, r0
     1a0: 0200         	lsls	r0, r0, #0x8
     1a2: 002c         	movs	r4, r5
     1a4: 0000         	movs	r0, r0
     1a6: 0303         	lsls	r3, r0, #0xc
     1a8: 0108         	lsls	r0, r1, #0x4
     1aa: 0004         	movs	r4, r0
     1ac: 000e         	movs	r6, r1
     1ae: 0000         	movs	r0, r0
     1b0: 5701         	ldrsb	r1, [r0, r4]
     1b2: 0104         	lsls	r4, r0, #0x4
     1b4: 6639         	str	r1, [r7, #0x60]
     1b6: 0000         	movs	r0, r0
     1b8: 0500         	lsls	r0, r0, #0x14
     1ba: 5001         	str	r1, [r0, r0]
     1bc: 0105         	lsls	r5, r0, #0x4
     1be: 6639         	str	r1, [r7, #0x60]
     1c0: 0000         	movs	r0, r0
     1c2: 0500         	lsls	r0, r0, #0x14
     1c4: 5101         	str	r1, [r0, r4]
     1c6: 0106         	lsls	r6, r0, #0x4
     1c8: 673a         	str	r2, [r7, #0x70]
     1ca: 0000         	movs	r0, r0
     1cc: 0600         	lsls	r0, r0, #0x18
     1ce: 0800         	lsrs	r0, r0, #0x20
     1d0: 3b01         	subs	r3, #0x1
     1d2: 006b         	lsls	r3, r5, #0x1
     1d4: 0000         	movs	r0, r0
     1d6: 0107         	lsls	r7, r0, #0x4
     1d8: 010b         	lsls	r3, r1, #0x4
     1da: 273d         	movs	r7, #0x3d
     1dc: 0000         	movs	r0, r0
     1de: 0000         	movs	r0, r0
     1e0: 0308         	lsls	r0, r1, #0xc
     1e2: 0507         	lsls	r7, r0, #0x14
     1e4: 0904         	lsrs	r4, r0, #0x4
     1e6: 0073         	lsls	r3, r6, #0x1
     1e8: 0000         	movs	r0, r0
     1ea: 020a         	lsls	r2, r1, #0x8
     1ec: 0312         	lsls	r2, r2, #0xc
     1ee: 0709         	lsls	r1, r1, #0x1c
     1f0: 0004         	movs	r4, r0

Disassembly of section .debug_abbrev:

00000000 <.debug_abbrev>:
; extern void* sbrk(ptrdiff_t increment) {
       0: 1101         	asrs	r1, r0, #0x4
;     char* prev_heap_ptr = heap_ptr;
       2: 2501         	movs	r5, #0x1
       4: 1325         	asrs	r5, r4, #0xc
;     if (increment > 0) {
       6: 0305         	lsls	r5, r0, #0xc
       8: 7225         	strb	r5, [r4, #0x8]
;         if (heap_ptr + increment > &__heap_end) {
       a: 1017         	asrs	r7, r2, #0x20
       c: 1b17         	subs	r7, r2, r4
       e: 1125         	asrs	r5, r4, #0x4
      10: 121b         	asrs	r3, r3, #0x8
      12: 7306         	strb	r6, [r0, #0xc]
      14: 8c17         	ldrh	r7, [r2, #0x20]
; }
      16: 1701         	asrs	r1, r0, #0x1c
;         heap_ptr += increment;
      18: 0000         	movs	r0, r0
; }
      1a: 3402         	adds	r4, #0x2
      1c: 0300         	lsls	r0, r0, #0xc
      1e: 4925         	ldr	r1, [pc, #0x94]         @ 0xb4 <.debug_abbrev+0xb4>
      20: 3a13         	subs	r2, #0x13
      22: 3b0b         	subs	r3, #0xb
; int main() {
      24: 020b         	lsls	r3, r1, #0x8
      26: 0018         	movs	r0, r3
      28: 0300         	lsls	r0, r0, #0xc
      2a: 000f         	movs	r7, r1
      2c: 1349         	asrs	r1, r1, #0xd
      2e: 0000         	movs	r0, r0
      30: 2404         	movs	r4, #0x4
;     volatile int result[SIZE][SIZE] = {0};
      32: 0300         	lsls	r0, r0, #0xc
      34: 3e25         	subs	r6, #0x25
      36: 0b0b         	lsrs	r3, r1, #0xc
      38: 000b         	movs	r3, r1
      3a: 0500         	lsls	r0, r0, #0x14
      3c: 000f         	movs	r7, r1
      3e: 0000         	movs	r0, r0
      40: 2e06         	cmp	r6, #0x6
      42: 1101         	asrs	r1, r0, #0x4
      44: 121b         	asrs	r3, r3, #0x8
      46: 4006         	ands	r6, r0
      48: 7a18         	ldrb	r0, [r3, #0x8]
      4a: 0319         	lsls	r1, r3, #0xc
      4c: 3a25         	subs	r2, #0x25
      4e: 3b0b         	subs	r3, #0xb
      50: 270b         	movs	r7, #0xb
      52: 4919         	ldr	r1, [pc, #0x64]         @ 0xb8 <.rodata>
      54: 3f13         	subs	r7, #0x13
;                 result[i][j] += matrix1[i][k] * matrix2[k][j];
      56: 0019         	movs	r1, r3
      58: 0700         	lsls	r0, r0, #0x1c
      5a: 0005         	movs	r5, r0
      5c: 2202         	movs	r2, #0x2
      5e: 2503         	movs	r5, #0x3
      60: 0b3a         	lsrs	r2, r7, #0xc
;             for (int k = 0; k < SIZE; k++) {
      62: 0b3b         	lsrs	r3, r7, #0xc
      64: 1349         	asrs	r1, r1, #0xd
      66: 0000         	movs	r0, r0
      68: 3408         	adds	r4, #0x8
      6a: 0200         	lsls	r0, r0, #0x8
;         for (int j = 0; j < SIZE; j++) {
      6c: 0322         	lsls	r2, r4, #0xc
      6e: 3a25         	subs	r2, #0x25
      70: 3b0b         	subs	r3, #0xb
      72: 490b         	ldr	r1, [pc, #0x2c]         @ 0xa0 <.debug_abbrev+0xa0>
;     for (int i = 0; i < SIZE; i++) {
      74: 0013         	movs	r3, r2
      76: 0900         	lsrs	r0, r0, #0x4
      78: 012e         	lsls	r6, r5, #0x4
      7a: 2503         	movs	r5, #0x3
;     for (int i = 0; i < SIZE; i++) {
      7c: 0b3a         	lsrs	r2, r7, #0xc
      7e: 0b3b         	lsrs	r3, r7, #0xc
      80: 1927         	adds	r7, r4, r4
;     __asm volatile ("svc 0" :  : "r"(r0) : "memory");
      82: 2120         	movs	r1, #0x20
; }
      84: 0001         	movs	r1, r0
      86: 0a00         	lsrs	r0, r0, #0x8
      88: 0005         	movs	r5, r0
      8a: 2503         	movs	r5, #0x3
      8c: 0b3a         	lsrs	r2, r7, #0xc
      8e: 0b3b         	lsrs	r3, r7, #0xc
      90: 1349         	asrs	r1, r1, #0xd
      92: 0000         	movs	r0, r0
      94: 340b         	adds	r4, #0xb
      96: 0300         	lsls	r0, r0, #0xc
      98: 3a25         	subs	r2, #0x25
      9a: 3b0b         	subs	r3, #0xb
      9c: 490b         	ldr	r1, [pc, #0x2c]         @ 0xcc <.rodata+0x14>
      9e: 0013         	movs	r3, r2
      a0: 0c00         	lsrs	r0, r0, #0x10
      a2: 012e         	lsls	r6, r5, #0x4
      a4: 1b11         	subs	r1, r2, r4
      a6: 0612         	lsls	r2, r2, #0x18
      a8: 1840         	adds	r0, r0, r1
      aa: 197a         	adds	r2, r7, r5
      ac: 2503         	movs	r5, #0x3
      ae: 0b3a         	lsrs	r2, r7, #0xc
      b0: 0b3b         	lsrs	r3, r7, #0xc
      b2: 1349         	asrs	r1, r1, #0xd
      b4: 193f         	adds	r7, r7, r4
      b6: 0000         	movs	r0, r0
      b8: 340d         	adds	r4, #0xd
      ba: 0200         	lsls	r0, r0, #0x8
      bc: 0318         	lsls	r0, r3, #0xc
      be: 3a25         	subs	r2, #0x25
      c0: 3b0b         	subs	r3, #0xb
      c2: 490b         	ldr	r1, [pc, #0x2c]         @ 0xf0 <.rodata+0x38>
      c4: 0013         	movs	r3, r2
      c6: 0e00         	lsrs	r0, r0, #0x18
      c8: 010b         	lsls	r3, r1, #0x4
      ca: 1b11         	subs	r1, r2, r4
      cc: 0612         	lsls	r2, r2, #0x18
      ce: 0000         	movs	r0, r0
      d0: 1d0f         	adds	r7, r1, #0x4
      d2: 3101         	adds	r1, #0x1
      d4: 1113         	asrs	r3, r2, #0x4
      d6: 121b         	asrs	r3, r3, #0x8
      d8: 5806         	ldr	r6, [r0, r0]
      da: 590b         	ldr	r3, [r1, r4]
      dc: 570b         	ldrsb	r3, [r1, r4]
      de: 000b         	movs	r3, r1
      e0: 1000         	asrs	r0, r0, #0x20
      e2: 0005         	movs	r5, r0
      e4: 0f1c         	lsrs	r4, r3, #0x1c
      e6: 1331         	asrs	r1, r6, #0xc
      e8: 0000         	movs	r0, r0
      ea: 3411         	adds	r4, #0x11
      ec: 1c00         	adds	r0, r0, #0x0
      ee: 310f         	adds	r1, #0xf
      f0: 0013         	movs	r3, r2
      f2: 1200         	asrs	r0, r0, #0x8
      f4: 0016         	movs	r6, r2
      f6: 1349         	asrs	r1, r1, #0xd
      f8: 2503         	movs	r5, #0x3
      fa: 0b3a         	lsrs	r2, r7, #0xc
      fc: 0b3b         	lsrs	r3, r7, #0xc
      fe: 0000         	movs	r0, r0
     100: 0113         	lsls	r3, r2, #0x4
     102: 4901         	ldr	r1, [pc, #0x4]          @ 0x108 <.rodata+0x50>
     104: 0013         	movs	r3, r2
     106: 1400         	asrs	r0, r0, #0x10
     108: 0021         	movs	r1, r4
     10a: 1349         	asrs	r1, r1, #0xd
     10c: 0b37         	lsrs	r7, r6, #0xc
     10e: 0000         	movs	r0, r0
     110: 3515         	adds	r5, #0x15
     112: 4900         	ldr	r1, [pc, #0x0]          @ 0x114 <.rodata+0x5c>
     114: 0013         	movs	r3, r2
     116: 1600         	asrs	r0, r0, #0x18
     118: 0024         	movs	r4, r4
     11a: 2503         	movs	r5, #0x3
     11c: 0b0b         	lsrs	r3, r1, #0xc
     11e: 0b3e         	lsrs	r6, r7, #0xc
     120: 0000         	movs	r0, r0
     122: 0100         	lsls	r0, r0, #0x4
     124: 0111         	lsls	r1, r2, #0x4
     126: 2525         	movs	r5, #0x25
     128: 0513         	lsls	r3, r2, #0x14
     12a: 2503         	movs	r5, #0x3
     12c: 1772         	asrs	r2, r6, #0x1d
     12e: 1710         	asrs	r0, r2, #0x1c
     130: 251b         	movs	r5, #0x1b
     132: 1b11         	subs	r1, r2, r4
     134: 0612         	lsls	r2, r2, #0x18
     136: 1773         	asrs	r3, r6, #0x1d
     138: 018c         	lsls	r4, r1, #0x6
     13a: 0017         	movs	r7, r2
     13c: 0200         	lsls	r0, r0, #0x8
     13e: 012e         	lsls	r6, r5, #0x4
     140: 1b11         	subs	r1, r2, r4
     142: 0612         	lsls	r2, r2, #0x18
     144: 1840         	adds	r0, r0, r1
     146: 197a         	adds	r2, r7, r5
     148: 2503         	movs	r5, #0x3
     14a: 0b3a         	lsrs	r2, r7, #0xc
     14c: 0b3b         	lsrs	r3, r7, #0xc
     14e: 1927         	adds	r7, r4, r4
     150: 193f         	adds	r7, r7, r4
     152: 0000         	movs	r0, r0
     154: 0503         	lsls	r3, r0, #0x14
     156: 0200         	lsls	r0, r0, #0x8
     158: 0322         	lsls	r2, r4, #0xc
     15a: 3a25         	subs	r2, #0x25
     15c: 3b0b         	subs	r3, #0xb
     15e: 490b         	ldr	r1, [pc, #0x2c]         @ 0x18c <.rodata+0xd4>
     160: 0013         	movs	r3, r2
     162: 0400         	lsls	r0, r0, #0x10
     164: 000f         	movs	r7, r1
     166: 0000         	movs	r0, r0
     168: 1605         	asrs	r5, r0, #0x18
     16a: 4900         	ldr	r1, [pc, #0x0]          @ 0x16c <.rodata+0xb4>
     16c: 0313         	lsls	r3, r2, #0xc
     16e: 3a25         	subs	r2, #0x25
     170: 3b0b         	subs	r3, #0xb
     172: 000b         	movs	r3, r1
     174: 0600         	lsls	r0, r0, #0x18
     176: 0024         	movs	r4, r4
     178: 2503         	movs	r5, #0x3
     17a: 0b3e         	lsrs	r6, r7, #0xc
     17c: 0b0b         	lsrs	r3, r1, #0xc
     17e: 0000         	movs	r0, r0
     180: 0100         	lsls	r0, r0, #0x4
     182: 0111         	lsls	r1, r2, #0x4
     184: 2525         	movs	r5, #0x25
     186: 0513         	lsls	r3, r2, #0x14
     188: 2503         	movs	r5, #0x3
     18a: 1772         	asrs	r2, r6, #0x1d
     18c: 1710         	asrs	r0, r2, #0x1c
     18e: 251b         	movs	r5, #0x1b
     190: 1b11         	subs	r1, r2, r4
     192: 0612         	lsls	r2, r2, #0x18
     194: 1773         	asrs	r3, r6, #0x1d
     196: 018c         	lsls	r4, r1, #0x6
     198: 0017         	movs	r7, r2
     19a: 0200         	lsls	r0, r0, #0x8
     19c: 000f         	movs	r7, r1
     19e: 1349         	asrs	r1, r1, #0xd
     1a0: 0000         	movs	r0, r0
     1a2: 2403         	movs	r4, #0x3
     1a4: 0300         	lsls	r0, r0, #0xc
     1a6: 3e25         	subs	r6, #0x25
     1a8: 0b0b         	lsrs	r3, r1, #0xc
     1aa: 000b         	movs	r3, r1
     1ac: 0400         	lsls	r0, r0, #0x10
     1ae: 012e         	lsls	r6, r5, #0x4
     1b0: 1b11         	subs	r1, r2, r4
     1b2: 0612         	lsls	r2, r2, #0x18
     1b4: 1840         	adds	r0, r0, r1
     1b6: 197a         	adds	r2, r7, r5
     1b8: 2503         	movs	r5, #0x3
     1ba: 0b3a         	lsrs	r2, r7, #0xc
     1bc: 0b3b         	lsrs	r3, r7, #0xc
     1be: 1927         	adds	r7, r4, r4
     1c0: 1349         	asrs	r1, r1, #0xd
     1c2: 193f         	adds	r7, r7, r4
     1c4: 0000         	movs	r0, r0
     1c6: 0505         	lsls	r5, r0, #0x14
     1c8: 0200         	lsls	r0, r0, #0x8
     1ca: 0318         	lsls	r0, r3, #0xc
     1cc: 3a25         	subs	r2, #0x25
     1ce: 3b0b         	subs	r3, #0xb
     1d0: 490b         	ldr	r1, [pc, #0x2c]         @ 0x200 <.rodata+0x148>
     1d2: 0013         	movs	r3, r2
     1d4: 0600         	lsls	r0, r0, #0x18
     1d6: 0005         	movs	r5, r0
     1d8: 2202         	movs	r2, #0x2
     1da: 2503         	movs	r5, #0x3
     1dc: 0b3a         	lsrs	r2, r7, #0xc
     1de: 0b3b         	lsrs	r3, r7, #0xc
     1e0: 1349         	asrs	r1, r1, #0xd
     1e2: 0000         	movs	r0, r0
     1e4: 3407         	adds	r4, #0x7
     1e6: 0200         	lsls	r0, r0, #0x8
     1e8: 0322         	lsls	r2, r4, #0xc
     1ea: 3a25         	subs	r2, #0x25
     1ec: 3b0b         	subs	r3, #0xb
     1ee: 490b         	ldr	r1, [pc, #0x2c]         @ 0x21c <.rodata+0x164>
     1f0: 0013         	movs	r3, r2
     1f2: 0800         	lsrs	r0, r0, #0x20
     1f4: 000f         	movs	r7, r1
     1f6: 0000         	movs	r0, r0
     1f8: 1609         	asrs	r1, r1, #0x18
     1fa: 4900         	ldr	r1, [pc, #0x0]          @ 0x1fc <.rodata+0x144>
     1fc: 0313         	lsls	r3, r2, #0xc
     1fe: 3a25         	subs	r2, #0x25
     200: 3b0b         	subs	r3, #0xb
     202: 000b         	movs	r3, r1
     204: 0000         	movs	r0, r0

Disassembly of section .debug_line:

00000000 <.debug_line>:
; extern void* sbrk(ptrdiff_t increment) {
       0: 011b         	lsls	r3, r3, #0x4
;     char* prev_heap_ptr = heap_ptr;
       2: 0000         	movs	r0, r0
       4: 0005         	movs	r5, r0
;     if (increment > 0) {
       6: 0004         	movs	r4, r0
       8: 0082         	lsls	r2, r0, #0x2
;         if (heap_ptr + increment > &__heap_end) {
       a: 0000         	movs	r0, r0
       c: 0101         	lsls	r1, r0, #0x4
       e: fb01 0d0e    	<unknown>
      12: 0100         	lsls	r0, r0, #0x4
      14: 0101         	lsls	r1, r0, #0x4
; }
      16: 0001         	movs	r1, r0
;         heap_ptr += increment;
      18: 0000         	movs	r0, r0
; }
      1a: 0001         	movs	r1, r0
      1c: 0100         	lsls	r0, r0, #0x4
      1e: 0101         	lsls	r1, r0, #0x4
      20: 041f         	lsls	r7, r3, #0x10
      22: 0255         	lsls	r5, r2, #0x9
; int main() {
      24: 0000         	movs	r0, r0
      26: 0000         	movs	r0, r0
      28: 0000         	movs	r0, r0
      2a: 00ae         	lsls	r6, r5, #0x2
      2c: 0000         	movs	r0, r0
      2e: 027f         	lsls	r7, r7, #0x9
      30: 0000         	movs	r0, r0
;     volatile int result[SIZE][SIZE] = {0};
      32: 0103         	lsls	r3, r0, #0x4
      34: 021f         	lsls	r7, r3, #0x8
      36: 050f         	lsls	r7, r1, #0x14
      38: 041e         	lsls	r6, r3, #0x10
      3a: 005c         	lsls	r4, r3, #0x1
      3c: 0000         	movs	r0, r0
      3e: b300         	<unknown>
      40: 40d5         	lsrs	r5, r2
      42: 23b6         	movs	r3, #0xb6
      44: 81c1         	strh	r1, [r0, #0xe]
      46: 463c         	mov	r4, r7
      48: 1904         	adds	r4, r0, r4
      4a: 3103         	adds	r1, #0x3
      4c: 053d         	lsls	r5, r7, #0x14
      4e: 8e02         	ldrh	r2, [r0, #0x30]
      50: 0002         	movs	r2, r0
      52: 0100         	lsls	r0, r0, #0x4
      54: b4f9         	push	{r0, r3, r4, r5, r6, r7}
;                 result[i][j] += matrix1[i][k] * matrix2[k][j];
      56: 5110         	str	r0, [r2, r4]
      58: 81db         	strh	r3, [r3, #0xe]
      5a: 6976         	ldr	r6, [r6, #0x14]
      5c: a991         	add	r1, sp, #0x244
      5e: 3f64         	subs	r7, #0x64
      60: d53e         	bpl	0xe0 <.rodata+0x28>     @ imm = #0x7c
;             for (int k = 0; k < SIZE; k++) {
      62: 01a9         	lsls	r1, r5, #0x6
      64: 009c         	lsls	r4, r3, #0x2
      66: 0000         	movs	r0, r0
      68: b302         	<unknown>
      6a: 40d5         	lsrs	r5, r2
;         for (int j = 0; j < SIZE; j++) {
      6c: 23b6         	movs	r3, #0xb6
      6e: 81c1         	strh	r1, [r0, #0xe]
      70: 463c         	mov	r4, r7
      72: 1904         	adds	r4, r0, r4
;     for (int i = 0; i < SIZE; i++) {
      74: 3103         	adds	r1, #0x3
      76: 053d         	lsls	r5, r7, #0x14
      78: 1f02         	subs	r2, r0, #0x4
      7a: 0000         	movs	r0, r0
;     for (int i = 0; i < SIZE; i++) {
      7c: 0300         	lsls	r0, r0, #0xc
      7e: d32e         	blo	0xde <.rodata+0x26>     @ imm = #0x5c
      80: 8947         	ldrh	r7, [r0, #0xa]
;     __asm volatile ("svc 0" :  : "r"(r0) : "memory");
      82: 3e38         	subs	r6, #0x38
; }
      84: e3a7         	b	0x7d6 <.rodata+0x71e>   @ imm = #0x74e
      86: d5a1         	bpl	0xffffffcc <.stack+0xffffffffdff7ffc4> @ imm = #-0xbe
      88: 0f88         	lsrs	r0, r1, #0x1e
      8a: c60f         	stm	r6!, {r0, r1, r2, r3}
      8c: 7197         	strb	r7, [r2, #0x6]
      8e: 0500         	lsls	r0, r0, #0x14
      90: 0002         	movs	r2, r0
      92: 0000         	movs	r0, r0
      94: 0300         	lsls	r0, r0, #0xc
      96: 0119         	lsls	r1, r3, #0x4
      98: 1b05         	subs	r5, r0, r4
      9a: 2f0a         	cmp	r7, #0xa
      9c: 0905         	lsrs	r5, r0, #0x4
      9e: 054d         	lsls	r5, r1, #0x15
      a0: 4c16         	ldr	r4, [pc, #0x58]         @ 0xfc <.rodata+0x44>
      a2: 2205         	movs	r2, #0x5
      a4: 2e06         	cmp	r6, #0x6
      a6: 0d05         	lsrs	r5, r0, #0x14
      a8: 032e         	lsls	r6, r5, #0xc
      aa: 4a60         	ldr	r2, [pc, #0x180]        @ 0x22c <.rodata+0x174>
      ac: 0105         	lsls	r5, r0, #0x4
      ae: 0306         	lsls	r6, r0, #0xc
      b0: 4a2a         	ldr	r2, [pc, #0xa8]         @ 0x15c <.rodata+0xa4>
      b2: 1205         	asrs	r5, r0, #0x8
      b4: 0529         	lsls	r1, r5, #0x14
      b6: 3301         	adds	r3, #0x1
      b8: 0306         	lsls	r6, r0, #0xc
      ba: 2e56         	cmp	r6, #0x56
      bc: 0204         	lsls	r4, r0, #0x8
      be: 0005         	movs	r5, r0
      c0: 8706         	strh	r6, [r0, #0x38]
      c2: 1205         	asrs	r5, r0, #0x8
      c4: 030a         	lsls	r2, r1, #0xc
      c6: d62f         	bvs	0x128 <.rodata+0x70>    @ imm = #0x5e
      c8: 0306         	lsls	r6, r0, #0xc
      ca: 4a4c         	ldr	r2, [pc, #0x130]        @ 0x1fc <.rodata+0x144>
      cc: 2105         	movs	r1, #0x5
      ce: 0306         	lsls	r6, r0, #0xc
      d0: 083a         	lsrs	r2, r7, #0x20
      d2: 05e4         	lsls	r4, r4, #0x17
      d4: 0631         	lsls	r1, r6, #0x18
      d6: 052e         	lsls	r6, r5, #0x14
      d8: 2e2f         	cmp	r6, #0x2f
      da: 1e05         	subs	r5, r0, #0x0
      dc: 052e         	lsls	r6, r5, #0x14
      de: 061f         	lsls	r7, r3, #0x18
      e0: 0565         	lsls	r5, r4, #0x15
      e2: 060d         	lsls	r5, r1, #0x18
      e4: 034a         	lsls	r2, r1, #0xd
      e6: 4a47         	ldr	r2, [pc, #0x11c]        @ 0x204 <.rodata+0x14c>
      e8: 0905         	lsrs	r5, r0, #0x4
      ea: 0306         	lsls	r6, r0, #0xc
      ec: 2e38         	cmp	r6, #0x38
      ee: 2405         	movs	r4, #0x5
      f0: 2e06         	cmp	r6, #0x6
      f2: 0905         	lsrs	r5, r0, #0x4
      f4: 052e         	lsls	r6, r5, #0x14
      f6: 0605         	lsls	r5, r0, #0x18
      f8: 0549         	lsls	r1, r1, #0x15
      fa: 0620         	lsls	r0, r4, #0x18
      fc: 034a         	lsls	r2, r1, #0xd
      fe: 2e49         	cmp	r6, #0x49
     100: 0505         	lsls	r5, r0, #0x14
     102: 3703         	adds	r7, #0x3
     104: 032e         	lsls	r6, r5, #0xc
     106: 4a49         	ldr	r2, [pc, #0x124]        @ 0x22c <.rodata+0x174>
     108: 0104         	lsls	r4, r0, #0x4
     10a: 0306         	lsls	r6, r0, #0xc
     10c: 2e0d         	cmp	r6, #0xd
     10e: 0204         	lsls	r4, r0, #0x8
     110: 0105         	lsls	r5, r0, #0x4
     112: 030b         	lsls	r3, r1, #0xc
     114: 2e33         	cmp	r6, #0x33
     116: 0306         	lsls	r6, r0, #0xc
     118: 8240         	strh	r0, [r0, #0x12]
     11a: 0c02         	lsrs	r2, r0, #0x10
     11c: 0100         	lsls	r0, r0, #0x4
     11e: 8801         	ldrh	r1, [r0]
     120: 0000         	movs	r0, r0
     122: 0500         	lsls	r0, r0, #0x14
     124: 0400         	lsls	r0, r0, #0x10
     126: 6900         	ldr	r0, [r0, #0x10]
     128: 0000         	movs	r0, r0
     12a: 0100         	lsls	r0, r0, #0x4
     12c: 0101         	lsls	r1, r0, #0x4
     12e: 0efb         	lsrs	r3, r7, #0x1b
     130: 000d         	movs	r5, r1
     132: 0101         	lsls	r1, r0, #0x4
     134: 0101         	lsls	r1, r0, #0x4
     136: 0000         	movs	r0, r0
     138: 0100         	lsls	r0, r0, #0x4
     13a: 0000         	movs	r0, r0
     13c: 0101         	lsls	r1, r0, #0x4
     13e: 1f01         	subs	r1, r0, #0x4
     140: bc03         	pop	{r0, r1}
     142: 0001         	movs	r1, r0
     144: 3f00         	subs	r7, #0x0
     146: 0001         	movs	r1, r0
     148: b900         	<unknown>
     14a: 0000         	movs	r0, r0
     14c: 0300         	lsls	r0, r0, #0xc
     14e: 1f01         	subs	r1, r0, #0x4
     150: 0f02         	lsrs	r2, r0, #0x1c
     152: 1e05         	subs	r5, r0, #0x0
     154: 8003         	strh	r3, [r0]
     156: 0001         	movs	r1, r0
     158: 0000         	movs	r0, r0
     15a: 83e0         	strh	r0, [r4, #0x1e]
     15c: f382 5f7e    	<unknown>
     160: b00b         	add	sp, #0x2c
     162: 915a         	str	r1, [sp, #0x168]
     164: 1395         	asrs	r5, r2, #0xe
     166: 2512         	movs	r5, #0x12
     168: e003         	b	0x172 <.rodata+0xba>    @ imm = #0x6
     16a: 0017         	movs	r7, r2
     16c: 0000         	movs	r0, r0
     16e: 9d01         	ldr	r5, [sp, #0x4]
     170: 233f         	movs	r3, #0x3f
     172: c48f         	stm	r4!, {r0, r1, r2, r3, r7}
     174: fe4f 40bb    	<unknown>
     178: 0239         	lsls	r1, r7, #0x8
     17a: 6a90         	ldr	r0, [r2, #0x28]
     17c: b9ae         	<unknown>
     17e: 7074         	strb	r4, [r6, #0x1]
     180: 0000         	movs	r0, r0
     182: 0200         	lsls	r0, r0, #0x8
     184: 442c         	add	r4, r5
     186: 21e8         	movs	r1, #0xe8
     188: b1a2         	<unknown>
     18a: 1c95         	adds	r5, r2, #0x2
     18c: 2ede         	cmp	r6, #0xde
     18e: fbb0 652e    	<unknown>
     192: 6768         	str	r0, [r5, #0x74]
     194: 0500         	lsls	r0, r0, #0x14
     196: 9802         	ldr	r0, [sp, #0x8]
     198: 0000         	movs	r0, r0
     19a: 0300         	lsls	r0, r0, #0xc
     19c: 0131         	lsls	r1, r6, #0x4
     19e: 0205         	lsls	r5, r0, #0x8
     1a0: 830a         	strh	r2, [r1, #0x18]
     1a2: 0105         	lsls	r5, r0, #0x4
     1a4: 4b0b         	ldr	r3, [pc, #0x2c]         @ 0x1d4 <.rodata+0x11c>
     1a6: 0202         	lsls	r2, r0, #0x8
     1a8: 0100         	lsls	r0, r0, #0x4
     1aa: 8d01         	ldrh	r1, [r0, #0x28]
     1ac: 0000         	movs	r0, r0
     1ae: 0500         	lsls	r0, r0, #0x14
     1b0: 0400         	lsls	r0, r0, #0x10
     1b2: 6900         	ldr	r0, [r0, #0x10]
     1b4: 0000         	movs	r0, r0
     1b6: 0100         	lsls	r0, r0, #0x4
     1b8: 0101         	lsls	r1, r0, #0x4
     1ba: 0efb         	lsrs	r3, r7, #0x1b
     1bc: 000d         	movs	r5, r1
     1be: 0101         	lsls	r1, r0, #0x4
     1c0: 0101         	lsls	r1, r0, #0x4
     1c2: 0000         	movs	r0, r0
     1c4: 0100         	lsls	r0, r0, #0x4
     1c6: 0000         	movs	r0, r0
     1c8: 0101         	lsls	r1, r0, #0x4
     1ca: 1f01         	subs	r1, r0, #0x4
     1cc: bc03         	pop	{r0, r1}
     1ce: 0001         	movs	r1, r0
     1d0: 3f00         	subs	r7, #0x0
     1d2: 0001         	movs	r1, r0
     1d4: b900         	<unknown>
     1d6: 0000         	movs	r0, r0
     1d8: 0300         	lsls	r0, r0, #0xc
     1da: 1f01         	subs	r1, r0, #0x4
     1dc: 0f02         	lsrs	r2, r0, #0x1c
     1de: 1e05         	subs	r5, r0, #0x0
     1e0: 0203         	lsls	r3, r0, #0x8
     1e2: 0001         	movs	r1, r0
     1e4: 0000         	movs	r0, r0
     1e6: f59c 87c7    	<unknown>
     1ea: 3bfd         	subs	r3, #0xfd
     1ec: 17f1         	asrs	r1, r6, #0x1f
     1ee: 7611         	strb	r1, [r2, #0x18]
     1f0: 7c9b         	ldrb	r3, [r3, #0x12]
     1f2: 86bd         	strh	r5, [r7, #0x34]
     1f4: 2ec7         	cmp	r6, #0xc7
     1f6: 00a5         	lsls	r5, r4, #0x2
     1f8: 0000         	movs	r0, r0
     1fa: 5001         	str	r1, [r0, r0]
     1fc: 698f         	ldr	r7, [r1, #0x18]
     1fe: 50a5         	str	r5, [r4, r2]
     200: 0c52         	lsrs	r2, r2, #0x11
     202: 6bee         	ldr	r6, [r5, #0x3c]
     204: 7386         	strb	r6, [r0, #0xe]
     206: a1e3         	adr	r1, #908 <.rodata+0x235>
     208: fd95 7013    	<unknown>
     20c: 0000         	movs	r0, r0
     20e: 0200         	lsls	r0, r0, #0x8
     210: 442c         	add	r4, r5
     212: 21e8         	movs	r1, #0xe8
     214: b1a2         	<unknown>
     216: 1c95         	adds	r5, r2, #0x2
     218: 2ede         	cmp	r6, #0xde
     21a: fbb0 652e    	<unknown>
     21e: 6768         	str	r0, [r5, #0x74]
     220: 0500         	lsls	r0, r0, #0x14
     222: a802         	add	r0, sp, #0x8
     224: 0000         	movs	r0, r0
     226: 0300         	lsls	r0, r0, #0xc
     228: 013b         	lsls	r3, r7, #0x4
     22a: 0305         	lsls	r5, r0, #0xc
     22c: 030a         	lsls	r2, r1, #0xc
     22e: 2e33         	cmp	r6, #0x33
     230: 0a05         	lsrs	r5, r0, #0x8
     232: 054b         	lsls	r3, r1, #0x15
     234: 2d03         	cmp	r5, #0x3
     236: 024d         	lsls	r5, r1, #0x9
     238: 0002         	movs	r2, r0
     23a: 0101         	lsls	r1, r0, #0x4

Disassembly of section .debug_frame:

00000000 <.debug_frame>:
; extern void* sbrk(ptrdiff_t increment) {
       0: 0010         	movs	r0, r2
;     char* prev_heap_ptr = heap_ptr;
       2: 0000         	movs	r0, r0
       4: ffff ffff    	<unknown>
;     if (increment > 0) {
       8: 0004         	movs	r4, r0
;         if (heap_ptr + increment > &__heap_end) {
       a: 0004         	movs	r4, r0
       c: 7c01         	ldrb	r1, [r0, #0x10]
       e: 0c0e         	lsrs	r6, r1, #0x10
      10: 000d         	movs	r5, r1
      12: 0000         	movs	r0, r0
      14: 000c         	movs	r4, r1
		...
      1e: 0000         	movs	r0, r0
      20: 0024         	movs	r4, r4
      22: 0000         	movs	r0, r0
; int main() {
      24: 0020         	movs	r0, r4
      26: 0000         	movs	r0, r0
      28: 0000         	movs	r0, r0
      2a: 0000         	movs	r0, r0
      2c: 0024         	movs	r4, r4
      2e: 0000         	movs	r0, r0
      30: 0074         	lsls	r4, r6, #0x1
;     volatile int result[SIZE][SIZE] = {0};
      32: 0000         	movs	r0, r0
      34: 0e42         	lsrs	r2, r0, #0x19
      36: 8e14         	ldrh	r4, [r2, #0x30]
      38: 8701         	strh	r1, [r0, #0x38]
      3a: 8602         	strh	r2, [r0, #0x30]
      3c: 8503         	strh	r3, [r0, #0x28]
      3e: 8404         	strh	r4, [r0, #0x20]
      40: 4205         	tst	r5, r0
      42: 070c         	lsls	r4, r1, #0x1c
      44: 0008         	movs	r0, r1
      46: 0000         	movs	r0, r0
      48: 0010         	movs	r0, r2
      4a: 0000         	movs	r0, r0
      4c: ffff ffff    	<unknown>
      50: 0004         	movs	r4, r0
      52: 0004         	movs	r4, r0
      54: 7c01         	ldrb	r1, [r0, #0x10]
;                 result[i][j] += matrix1[i][k] * matrix2[k][j];
      56: 0c0e         	lsrs	r6, r1, #0x10
      58: 000d         	movs	r5, r1
      5a: 0000         	movs	r0, r0
      5c: 0018         	movs	r0, r3
      5e: 0000         	movs	r0, r0
      60: 0048         	lsls	r0, r1, #0x1
;             for (int k = 0; k < SIZE; k++) {
      62: 0000         	movs	r0, r0
      64: 0098         	lsls	r0, r3, #0x2
      66: 0000         	movs	r0, r0
      68: 000e         	movs	r6, r1
      6a: 0000         	movs	r0, r0
;         for (int j = 0; j < SIZE; j++) {
      6c: 0e42         	lsrs	r2, r0, #0x19
      6e: 8e08         	ldrh	r0, [r1, #0x30]
      70: 8701         	strh	r1, [r0, #0x38]
      72: 4202         	tst	r2, r0
;     for (int i = 0; i < SIZE; i++) {
      74: 070d         	lsls	r5, r1, #0x1c
      76: 0000         	movs	r0, r0
      78: 0010         	movs	r0, r2
      7a: 0000         	movs	r0, r0
;     for (int i = 0; i < SIZE; i++) {
      7c: ffff ffff    	<unknown>
      80: 0004         	movs	r4, r0
;     __asm volatile ("svc 0" :  : "r"(r0) : "memory");
      82: 0004         	movs	r4, r0
; }
      84: 7c01         	ldrb	r1, [r0, #0x10]
      86: 0c0e         	lsrs	r6, r1, #0x10
      88: 000d         	movs	r5, r1
      8a: 0000         	movs	r0, r0
      8c: 000c         	movs	r4, r1
      8e: 0000         	movs	r0, r0
      90: 0078         	lsls	r0, r7, #0x1
      92: 0000         	movs	r0, r0
      94: 00a8         	lsls	r0, r5, #0x2
      96: 0000         	movs	r0, r0
      98: 000e         	movs	r6, r1
      9a: 0000         	movs	r0, r0

Disassembly of section .debug_str:

00000000 <.debug_str>:
; extern void* sbrk(ptrdiff_t increment) {
       0: 6e69         	ldr	r1, [r5, #0x64]
;     char* prev_heap_ptr = heap_ptr;
       2: 7263         	strb	r3, [r4, #0x9]
       4: 6d65         	ldr	r5, [r4, #0x54]
;     if (increment > 0) {
       6: 6e65         	ldr	r5, [r4, #0x64]
       8: 0074         	lsls	r4, r6, #0x1
;         if (heap_ptr + increment > &__heap_end) {
       a: 0069         	lsls	r1, r5, #0x1
       c: 6f63         	ldr	r3, [r4, #0x74]
       e: 6564         	str	r4, [r4, #0x54]
      10: 7200         	strb	r0, [r0, #0x8]
      12: 7365         	strb	r5, [r4, #0xd]
      14: 6c75         	ldr	r5, [r6, #0x44]
; }
      16: 0074         	lsls	r4, r6, #0x1
;         heap_ptr += increment;
      18: 7470         	strb	r0, [r6, #0x11]
; }
      1a: 6472         	str	r2, [r6, #0x44]
      1c: 6669         	str	r1, [r5, #0x64]
      1e: 5f66         	ldrsh	r6, [r4, r5]
      20: 0074         	lsls	r4, r6, #0x1
      22: 006e         	lsls	r6, r5, #0x1
; int main() {
      24: 6562         	str	r2, [r4, #0x54]
      26: 636e         	str	r6, [r5, #0x34]
      28: 6d68         	ldr	r0, [r5, #0x54]
      2a: 7261         	strb	r1, [r4, #0x9]
      2c: 736b         	strb	r3, [r5, #0xd]
      2e: 6d5c         	ldr	r4, [r3, #0x54]
      30: 7461         	strb	r1, [r4, #0x11]
;     volatile int result[SIZE][SIZE] = {0};
      32: 756d         	strb	r5, [r5, #0x15]
      34: 2e6c         	cmp	r6, #0x6c
      36: 0063         	lsls	r3, r4, #0x1
      38: 6973         	ldr	r3, [r6, #0x14]
      3a: 657a         	str	r2, [r7, #0x54]
      3c: 745f         	strb	r7, [r3, #0x11]
      3e: 6300         	str	r0, [r0, #0x30]
      40: 616c         	str	r4, [r5, #0x14]
      42: 676e         	str	r6, [r5, #0x74]
      44: 7620         	strb	r0, [r4, #0x18]
      46: 7265         	strb	r5, [r4, #0x9]
      48: 6973         	ldr	r3, [r6, #0x14]
      4a: 6e6f         	ldr	r7, [r5, #0x64]
      4c: 3120         	adds	r1, #0x20
      4e: 2e39         	cmp	r6, #0x39
      50: 2e31         	cmp	r6, #0x31
      52: 0035         	movs	r5, r6
      54: 7270         	strb	r0, [r6, #0x9]
;                 result[i][j] += matrix1[i][k] * matrix2[k][j];
      56: 7665         	strb	r5, [r4, #0x19]
      58: 685f         	ldr	r7, [r3, #0x4]
      5a: 6165         	str	r5, [r4, #0x14]
      5c: 5f70         	ldrsh	r0, [r6, r5]
      5e: 7470         	strb	r0, [r6, #0x11]
      60: 0072         	lsls	r2, r6, #0x1
;             for (int k = 0; k < SIZE; k++) {
      62: 0062         	lsls	r2, r4, #0x1
      64: 006d         	lsls	r5, r5, #0x1
      66: 0063         	lsls	r3, r4, #0x1
      68: 006b         	lsls	r3, r5, #0x1
      6a: 0073         	lsls	r3, r6, #0x1
;         for (int j = 0; j < SIZE; j++) {
      6c: 3072         	adds	r0, #0x72
      6e: 6d00         	ldr	r0, [r0, #0x50]
      70: 7461         	strb	r1, [r4, #0x11]
      72: 6972         	ldr	r2, [r6, #0x14]
;     for (int i = 0; i < SIZE; i++) {
      74: 3278         	adds	r2, #0x78
      76: 6800         	ldr	r0, [r0]
      78: 6165         	str	r5, [r4, #0x14]
      7a: 5f70         	ldrsh	r0, [r6, r5]
;     for (int i = 0; i < SIZE; i++) {
      7c: 7470         	strb	r0, [r6, #0x11]
      7e: 0072         	lsls	r2, r6, #0x1
      80: 7673         	strb	r3, [r6, #0x19]
;     __asm volatile ("svc 0" :  : "r"(r0) : "memory");
      82: 5f63         	ldrsh	r3, [r4, r5]
; }
      84: 7865         	ldrb	r5, [r4, #0x1]
      86: 7469         	strb	r1, [r5, #0x11]
      88: 6d00         	ldr	r0, [r0, #0x50]
      8a: 6961         	ldr	r1, [r4, #0x14]
      8c: 006e         	lsls	r6, r5, #0x1
      8e: 6863         	ldr	r3, [r4, #0x4]
      90: 7261         	strb	r1, [r4, #0x9]
      92: 6900         	ldr	r0, [r0, #0x10]
      94: 746e         	strb	r6, [r5, #0x11]
      96: 6d00         	ldr	r0, [r0, #0x50]
      98: 6d65         	ldr	r5, [r4, #0x54]
      9a: 6573         	str	r3, [r6, #0x54]
      9c: 0074         	lsls	r4, r6, #0x1
      9e: 656c         	str	r4, [r5, #0x54]
      a0: 676e         	str	r6, [r5, #0x74]
      a2: 6874         	ldr	r4, [r6, #0x4]
      a4: 2e00         	cmp	r6, #0x0
      a6: 2f2e         	cmp	r7, #0x2e
      a8: 2e2e         	cmp	r6, #0x2e
      aa: 2e2f         	cmp	r6, #0x2f
      ac: 2f2e         	cmp	r7, #0x2e
      ae: 2e2e         	cmp	r6, #0x2e
      b0: 2e2f         	cmp	r6, #0x2f
      b2: 2f2e         	cmp	r7, #0x2e
      b4: 7273         	strb	r3, [r6, #0x9]
      b6: 2f63         	cmp	r7, #0x63
      b8: 6970         	ldr	r0, [r6, #0x14]
      ba: 6f63         	ldr	r3, [r4, #0x74]
      bc: 696c         	ldr	r4, [r5, #0x14]
      be: 6362         	str	r2, [r4, #0x34]
      c0: 6e2f         	ldr	r7, [r5, #0x60]
      c2: 7765         	strb	r5, [r4, #0x1d]
      c4: 696c         	ldr	r4, [r5, #0x14]
      c6: 2f62         	cmp	r7, #0x62
      c8: 696c         	ldr	r4, [r5, #0x14]
      ca: 6362         	str	r2, [r4, #0x34]
      cc: 6d2f         	ldr	r7, [r5, #0x50]
      ce: 6361         	str	r1, [r4, #0x34]
      d0: 6968         	ldr	r0, [r5, #0x14]
      d2: 656e         	str	r6, [r5, #0x54]
      d4: 612f         	str	r7, [r5, #0x10]
      d6: 6d72         	ldr	r2, [r6, #0x54]
      d8: 6d2f         	ldr	r7, [r5, #0x50]
      da: 6d65         	ldr	r5, [r4, #0x54]
      dc: 6573         	str	r3, [r6, #0x54]
      de: 2e74         	cmp	r6, #0x74
      e0: 0063         	lsls	r3, r4, #0x1
      e2: 6e75         	ldr	r5, [r6, #0x64]
      e4: 6973         	ldr	r3, [r6, #0x14]
      e6: 6e67         	ldr	r7, [r4, #0x64]
      e8: 6465         	str	r5, [r4, #0x44]
      ea: 6920         	ldr	r0, [r4, #0x10]
      ec: 746e         	strb	r6, [r5, #0x11]
      ee: 5f00         	ldrsh	r0, [r0, r4]
      f0: 415f         	adcs	r7, r3
      f2: 5252         	strh	r2, [r2, r1]
      f4: 5941         	ldr	r1, [r0, r5]
      f6: 535f         	strh	r7, [r3, r5]
      f8: 5a49         	ldrh	r1, [r1, r1]
      fa: 5f45         	ldrsh	r5, [r0, r5]
      fc: 5954         	ldr	r4, [r2, r5]
      fe: 4550         	cmp	r0, r10
     100: 5f5f         	ldrsh	r7, [r3, r5]
     102: 6d00         	ldr	r0, [r0, #0x50]
     104: 7461         	strb	r1, [r4, #0x11]
     106: 6972         	ldr	r2, [r6, #0x14]
     108: 3178         	adds	r1, #0x78
     10a: 6200         	str	r0, [r0, #0x20]
     10c: 657a         	str	r2, [r7, #0x54]
     10e: 6f72         	ldr	r2, [r6, #0x74]
     110: 2e00         	cmp	r6, #0x0
     112: 2f2e         	cmp	r7, #0x2e
     114: 2e2e         	cmp	r6, #0x2e
     116: 2e2f         	cmp	r6, #0x2f
     118: 2f2e         	cmp	r7, #0x2e
     11a: 2e2e         	cmp	r6, #0x2e
     11c: 2e2f         	cmp	r6, #0x2f
     11e: 2f2e         	cmp	r7, #0x2e
     120: 7273         	strb	r3, [r6, #0x9]
     122: 2f63         	cmp	r7, #0x63
     124: 6970         	ldr	r0, [r6, #0x14]
     126: 6f63         	ldr	r3, [r4, #0x74]
     128: 696c         	ldr	r4, [r5, #0x14]
     12a: 6362         	str	r2, [r4, #0x34]
     12c: 6e2f         	ldr	r7, [r5, #0x60]
     12e: 7765         	strb	r5, [r4, #0x1d]
     130: 696c         	ldr	r4, [r5, #0x14]
     132: 2f62         	cmp	r7, #0x62
     134: 696c         	ldr	r4, [r5, #0x14]
     136: 6362         	str	r2, [r4, #0x34]
     138: 6d2f         	ldr	r7, [r5, #0x50]
     13a: 6361         	str	r1, [r4, #0x34]
     13c: 6968         	ldr	r0, [r5, #0x14]
     13e: 656e         	str	r6, [r5, #0x54]
     140: 612f         	str	r7, [r5, #0x10]
     142: 6d72         	ldr	r2, [r6, #0x54]
     144: 622f         	str	r7, [r5, #0x20]
     146: 657a         	str	r2, [r7, #0x54]
     148: 6f72         	ldr	r2, [r6, #0x74]
     14a: 632e         	str	r6, [r5, #0x30]
     14c: 2f00         	cmp	r7, #0x0
     14e: 6f68         	ldr	r0, [r5, #0x74]
     150: 656d         	str	r5, [r5, #0x54]
     152: 6a2f         	ldr	r7, [r5, #0x20]
     154: 6e65         	ldr	r5, [r4, #0x64]
     156: 696b         	ldr	r3, [r5, #0x14]
     158: 736e         	strb	r6, [r5, #0xd]
     15a: 612f         	str	r7, [r5, #0x10]
     15c: 6567         	str	r7, [r4, #0x54]
     15e: 746e         	strb	r6, [r5, #0x11]
     160: 772f         	strb	r7, [r5, #0x1c]
     162: 726f         	strb	r7, [r5, #0x9]
     164: 736b         	strb	r3, [r5, #0xd]
     166: 6170         	str	r0, [r6, #0x14]
     168: 6563         	str	r3, [r4, #0x54]
     16a: 6c2f         	ldr	r7, [r5, #0x40]
     16c: 766c         	strb	r4, [r5, #0x19]
     16e: 2d6d         	cmp	r5, #0x6d
     170: 6d65         	ldr	r5, [r4, #0x54]
     172: 6562         	str	r2, [r4, #0x54]
     174: 6464         	str	r4, [r4, #0x44]
     176: 6465         	str	r5, [r4, #0x44]
     178: 6c2f         	ldr	r7, [r5, #0x40]
     17a: 766c         	strb	r4, [r5, #0x19]
     17c: 2d6d         	cmp	r5, #0x6d
     17e: 3931         	subs	r1, #0x31
     180: 622f         	str	r7, [r5, #0x20]
     182: 6975         	ldr	r5, [r6, #0x14]
     184: 646c         	str	r4, [r5, #0x44]
     186: 612d         	str	r5, [r5, #0x10]
     188: 646e         	str	r6, [r5, #0x44]
     18a: 742d         	strb	r5, [r5, #0x10]
     18c: 7365         	strb	r5, [r4, #0xd]
     18e: 2f74         	cmp	r7, #0x74
     190: 7562         	strb	r2, [r4, #0x15]
     192: 6c69         	ldr	r1, [r5, #0x44]
     194: 2f64         	cmp	r7, #0x64
     196: 6970         	ldr	r0, [r6, #0x14]
     198: 6f63         	ldr	r3, [r4, #0x74]
     19a: 696c         	ldr	r4, [r5, #0x14]
     19c: 6362         	str	r2, [r4, #0x34]
     19e: 612f         	str	r7, [r5, #0x10]
     1a0: 6d72         	ldr	r2, [r6, #0x54]
     1a2: 3676         	adds	r6, #0x76
     1a4: 5f6d         	ldrsh	r5, [r5, r5]
     1a6: 6f73         	ldr	r3, [r6, #0x74]
     1a8: 7466         	strb	r6, [r4, #0x11]
     1aa: 6e5f         	ldr	r7, [r3, #0x64]
     1ac: 666f         	str	r7, [r5, #0x64]
     1ae: 5f70         	ldrsh	r0, [r6, r5]
     1b0: 7865         	ldrb	r5, [r4, #0x1]
     1b2: 5f6e         	ldrsh	r6, [r5, r5]
     1b4: 7472         	strb	r2, [r6, #0x11]
     1b6: 6974         	ldr	r4, [r6, #0x14]
     1b8: 732f         	strb	r7, [r5, #0xc]
     1ba: 6372         	str	r2, [r6, #0x34]
     1bc: 702f         	strb	r7, [r5]
     1be: 6369         	str	r1, [r5, #0x34]
     1c0: 6c6f         	ldr	r7, [r5, #0x44]
     1c2: 6269         	str	r1, [r5, #0x24]
     1c4: 5f63         	ldrsh	r3, [r4, r5]
     1c6: 7261         	strb	r1, [r4, #0x9]
     1c8: 766d         	strb	r5, [r5, #0x19]
     1ca: 6d36         	ldr	r6, [r6, #0x50]
     1cc: 735f         	strb	r7, [r3, #0xd]
     1ce: 666f         	str	r7, [r5, #0x64]
     1d0: 5f74         	ldrsh	r4, [r6, r5]
     1d2: 6f6e         	ldr	r6, [r5, #0x74]
     1d4: 7066         	strb	r6, [r4, #0x1]
     1d6: 655f         	str	r7, [r3, #0x54]
     1d8: 6e78         	ldr	r0, [r7, #0x64]
     1da: 725f         	strb	r7, [r3, #0x9]
     1dc: 7474         	strb	r4, [r6, #0x11]
     1de: 2d69         	cmp	r5, #0x69
     1e0: 7562         	strb	r2, [r4, #0x15]
     1e2: 6c69         	ldr	r1, [r5, #0x44]
     1e4: 0064         	lsls	r4, r4, #0x1
     1e6: 6273         	str	r3, [r6, #0x24]
     1e8: 6b72         	ldr	r2, [r6, #0x34]
     1ea: 4300         	orrs	r0, r0
     1ec: 5c3a         	ldrb	r2, [r7, r0]
     1ee: 7355         	strb	r5, [r2, #0xd]
     1f0: 7265         	strb	r5, [r4, #0x9]
     1f2: 5c73         	ldrb	r3, [r6, r1]
     1f4: 696b         	ldr	r3, [r5, #0x14]
     1f6: 6172         	str	r2, [r6, #0x14]
     1f8: 5c6e         	ldrb	r6, [r5, r1]
     1fa: 6f44         	ldr	r4, [r0, #0x74]
     1fc: 7563         	strb	r3, [r4, #0x15]
     1fe: 656d         	str	r5, [r5, #0x54]
     200: 746e         	strb	r6, [r5, #0x11]
     202: 5c73         	ldrb	r3, [r6, r1]
     204: 6544         	str	r4, [r0, #0x54]
     206: 5c76         	ldrb	r6, [r6, r1]
     208: 4341         	muls	r1, r0, r1
     20a: 5c41         	ldrb	r1, [r0, r1]
     20c: 7270         	strb	r0, [r6, #0x9]
     20e: 676f         	str	r7, [r5, #0x74]
     210: 6172         	str	r2, [r6, #0x14]
     212: 736d         	strb	r5, [r5, #0xd]
     214: 6a00         	ldr	r0, [r0, #0x20]
     216: 00           	<unknown>

Disassembly of section .debug_addr:

00000000 <.debug_addr>:
; extern void* sbrk(ptrdiff_t increment) {
       0: 0018         	movs	r0, r3
;     char* prev_heap_ptr = heap_ptr;
       2: 0000         	movs	r0, r0
       4: 0005         	movs	r5, r0
;     if (increment > 0) {
       6: 0004         	movs	r4, r0
       8: 0000         	movs	r0, r0
;         if (heap_ptr + increment > &__heap_end) {
       a: 2000         	movs	r0, #0x0
       c: 0000         	movs	r0, r0
       e: 0000         	movs	r0, r0
      10: 0024         	movs	r4, r4
      12: 0000         	movs	r0, r0
      14: 0056         	lsls	r6, r2, #0x1
; }
      16: 0000         	movs	r0, r0
;         heap_ptr += increment;
      18: 0082         	lsls	r2, r0, #0x2
; }
      1a: 0000         	movs	r0, r0
      1c: 0008         	movs	r0, r1
      1e: 0000         	movs	r0, r0
      20: 0005         	movs	r5, r0
      22: 0004         	movs	r4, r0
; int main() {
      24: 0098         	lsls	r0, r3, #0x2
      26: 0000         	movs	r0, r0
      28: 0008         	movs	r0, r1
      2a: 0000         	movs	r0, r0
      2c: 0005         	movs	r5, r0
      2e: 0004         	movs	r4, r0
      30: 00a8         	lsls	r0, r5, #0x2
;     volatile int result[SIZE][SIZE] = {0};
      32: 0000         	movs	r0, r0

Disassembly of section .debug_line_str:

00000000 <.debug_line_str>:
; extern void* sbrk(ptrdiff_t increment) {
       0: 6562         	str	r2, [r4, #0x54]
;     char* prev_heap_ptr = heap_ptr;
       2: 636e         	str	r6, [r5, #0x34]
       4: 6d68         	ldr	r0, [r5, #0x54]
;     if (increment > 0) {
       6: 7261         	strb	r1, [r4, #0x9]
       8: 736b         	strb	r3, [r5, #0xd]
;         if (heap_ptr + increment > &__heap_end) {
       a: 2e5c         	cmp	r6, #0x5c
       c: 2f2e         	cmp	r7, #0x2e
       e: 7973         	ldrb	r3, [r6, #0x5]
      10: 6373         	str	r3, [r6, #0x34]
      12: 6c61         	ldr	r1, [r4, #0x44]
      14: 736c         	strb	r4, [r5, #0xd]
; }
      16: 6200         	str	r0, [r0, #0x20]
;         heap_ptr += increment;
      18: 657a         	str	r2, [r7, #0x54]
; }
      1a: 6f72         	ldr	r2, [r6, #0x74]
      1c: 632e         	str	r6, [r5, #0x30]
      1e: 4c00         	ldr	r4, [pc, #0x0]          @ 0x20 <.debug_line_str+0x20>
      20: 564c         	ldrsb	r4, [r1, r1]
      22: 2d4d         	cmp	r5, #0x4d
; int main() {
      24: 5445         	strb	r5, [r0, r1]
      26: 412d         	asrs	r5, r5
      28: 6d72         	ldr	r2, [r6, #0x54]
      2a: 312d         	adds	r1, #0x2d
      2c: 2e39         	cmp	r6, #0x39
      2e: 2e31         	cmp	r6, #0x31
      30: 5c35         	ldrb	r5, [r6, r0]
;     volatile int result[SIZE][SIZE] = {0};
      32: 696c         	ldr	r4, [r5, #0x14]
      34: 5c62         	ldrb	r2, [r4, r1]
      36: 6c63         	ldr	r3, [r4, #0x44]
      38: 6e61         	ldr	r1, [r4, #0x64]
      3a: 5c67         	ldrb	r7, [r4, r1]
      3c: 3931         	subs	r1, #0x31
      3e: 695c         	ldr	r4, [r3, #0x14]
      40: 636e         	str	r6, [r5, #0x34]
      42: 756c         	strb	r4, [r5, #0x15]
      44: 6564         	str	r4, [r4, #0x54]
      46: 5f5c         	ldrsh	r4, [r3, r5]
      48: 735f         	strb	r7, [r3, #0xd]
      4a: 6474         	str	r4, [r6, #0x44]
      4c: 6564         	str	r4, [r4, #0x54]
      4e: 5f66         	ldrsh	r6, [r4, r5]
      50: 7470         	strb	r0, [r6, #0x11]
      52: 6472         	str	r2, [r6, #0x44]
      54: 6669         	str	r1, [r5, #0x64]
;                 result[i][j] += matrix1[i][k] * matrix2[k][j];
      56: 5f66         	ldrsh	r6, [r4, r5]
      58: 2e74         	cmp	r6, #0x74
      5a: 0068         	lsls	r0, r5, #0x1
      5c: 6562         	str	r2, [r4, #0x54]
      5e: 636e         	str	r6, [r5, #0x34]
      60: 6d68         	ldr	r0, [r5, #0x54]
;             for (int k = 0; k < SIZE; k++) {
      62: 7261         	strb	r1, [r4, #0x9]
      64: 736b         	strb	r3, [r5, #0xd]
      66: 6d5c         	ldr	r4, [r3, #0x54]
      68: 7461         	strb	r1, [r4, #0x11]
      6a: 756d         	strb	r5, [r5, #0x15]
;         for (int j = 0; j < SIZE; j++) {
      6c: 2e6c         	cmp	r6, #0x6c
      6e: 0063         	lsls	r3, r4, #0x1
      70: 6c6c         	ldr	r4, [r5, #0x44]
      72: 6d76         	ldr	r6, [r6, #0x54]
;     for (int i = 0; i < SIZE; i++) {
      74: 6c2f         	ldr	r7, [r5, #0x40]
      76: 6269         	str	r1, [r5, #0x24]
      78: 632f         	str	r7, [r5, #0x30]
      7a: 616c         	str	r4, [r5, #0x14]
;     for (int i = 0; i < SIZE; i++) {
      7c: 676e         	str	r6, [r5, #0x74]
      7e: 312f         	adds	r1, #0x2f
      80: 2f39         	cmp	r7, #0x39
;     __asm volatile ("svc 0" :  : "r"(r0) : "memory");
      82: 6e69         	ldr	r1, [r5, #0x64]
; }
      84: 6c63         	ldr	r3, [r4, #0x44]
      86: 6475         	str	r5, [r6, #0x44]
      88: 2f65         	cmp	r7, #0x65
      8a: 5f5f         	ldrsh	r7, [r3, r5]
      8c: 7473         	strb	r3, [r6, #0x11]
      8e: 6464         	str	r4, [r4, #0x44]
      90: 6665         	str	r5, [r4, #0x64]
      92: 735f         	strb	r7, [r3, #0xd]
      94: 7a69         	ldrb	r1, [r5, #0x9]
      96: 5f65         	ldrsh	r5, [r4, r5]
      98: 2e74         	cmp	r6, #0x74
      9a: 0068         	lsls	r0, r5, #0x1
      9c: 616d         	str	r5, [r5, #0x14]
      9e: 6d74         	ldr	r4, [r6, #0x54]
      a0: 6c75         	ldr	r5, [r6, #0x44]
      a2: 632e         	str	r6, [r5, #0x30]
      a4: 6d00         	ldr	r0, [r0, #0x50]
      a6: 6d65         	ldr	r5, [r4, #0x54]
      a8: 6573         	str	r3, [r6, #0x54]
      aa: 2e74         	cmp	r6, #0x74
      ac: 0063         	lsls	r3, r4, #0x1
      ae: 6562         	str	r2, [r4, #0x54]
      b0: 636e         	str	r6, [r5, #0x34]
      b2: 6d68         	ldr	r0, [r5, #0x54]
      b4: 7261         	strb	r1, [r4, #0x9]
      b6: 736b         	strb	r3, [r5, #0xd]
      b8: 2f00         	cmp	r7, #0x0
      ba: 6f68         	ldr	r0, [r5, #0x74]
      bc: 656d         	str	r5, [r5, #0x54]
      be: 6a2f         	ldr	r7, [r5, #0x20]
      c0: 6e65         	ldr	r5, [r4, #0x64]
      c2: 696b         	ldr	r3, [r5, #0x14]
      c4: 736e         	strb	r6, [r5, #0xd]
      c6: 612f         	str	r7, [r5, #0x10]
      c8: 6567         	str	r7, [r4, #0x54]
      ca: 746e         	strb	r6, [r5, #0x11]
      cc: 772f         	strb	r7, [r5, #0x1c]
      ce: 726f         	strb	r7, [r5, #0x9]
      d0: 736b         	strb	r3, [r5, #0xd]
      d2: 6170         	str	r0, [r6, #0x14]
      d4: 6563         	str	r3, [r4, #0x54]
      d6: 6c2f         	ldr	r7, [r5, #0x40]
      d8: 766c         	strb	r4, [r5, #0x19]
      da: 2d6d         	cmp	r5, #0x6d
      dc: 6d65         	ldr	r5, [r4, #0x54]
      de: 6562         	str	r2, [r4, #0x54]
      e0: 6464         	str	r4, [r4, #0x44]
      e2: 6465         	str	r5, [r4, #0x44]
      e4: 6c2f         	ldr	r7, [r5, #0x40]
      e6: 766c         	strb	r4, [r5, #0x19]
      e8: 2d6d         	cmp	r5, #0x6d
      ea: 3931         	subs	r1, #0x31
      ec: 622f         	str	r7, [r5, #0x20]
      ee: 6975         	ldr	r5, [r6, #0x14]
      f0: 646c         	str	r4, [r5, #0x44]
      f2: 612d         	str	r5, [r5, #0x10]
      f4: 646e         	str	r6, [r5, #0x44]
      f6: 742d         	strb	r5, [r5, #0x10]
      f8: 7365         	strb	r5, [r4, #0xd]
      fa: 2f74         	cmp	r7, #0x74
      fc: 7562         	strb	r2, [r4, #0x15]
      fe: 6c69         	ldr	r1, [r5, #0x44]
     100: 0064         	lsls	r4, r4, #0x1
     102: 2e2e         	cmp	r6, #0x2e
     104: 2e2f         	cmp	r6, #0x2f
     106: 2f2e         	cmp	r7, #0x2e
     108: 2e2e         	cmp	r6, #0x2e
     10a: 2e2f         	cmp	r6, #0x2f
     10c: 2f2e         	cmp	r7, #0x2e
     10e: 2e2e         	cmp	r6, #0x2e
     110: 732f         	strb	r7, [r5, #0xc]
     112: 6372         	str	r2, [r6, #0x34]
     114: 702f         	strb	r7, [r5]
     116: 6369         	str	r1, [r5, #0x34]
     118: 6c6f         	ldr	r7, [r5, #0x44]
     11a: 6269         	str	r1, [r5, #0x24]
     11c: 2f63         	cmp	r7, #0x63
     11e: 656e         	str	r6, [r5, #0x54]
     120: 6c77         	ldr	r7, [r6, #0x44]
     122: 6269         	str	r1, [r5, #0x24]
     124: 6c2f         	ldr	r7, [r5, #0x40]
     126: 6269         	str	r1, [r5, #0x24]
     128: 2f63         	cmp	r7, #0x63
     12a: 616d         	str	r5, [r5, #0x14]
     12c: 6863         	ldr	r3, [r4, #0x4]
     12e: 6e69         	ldr	r1, [r5, #0x64]
     130: 2f65         	cmp	r7, #0x65
     132: 7261         	strb	r1, [r4, #0x9]
     134: 2f6d         	cmp	r7, #0x6d
     136: 656d         	str	r5, [r5, #0x54]
     138: 736d         	strb	r5, [r5, #0xd]
     13a: 7465         	strb	r5, [r4, #0x11]
     13c: 632e         	str	r6, [r5, #0x30]
     13e: 2e00         	cmp	r6, #0x0
     140: 2f2e         	cmp	r7, #0x2e
     142: 2e2e         	cmp	r6, #0x2e
     144: 2e2f         	cmp	r6, #0x2f
     146: 2f2e         	cmp	r7, #0x2e
     148: 2e2e         	cmp	r6, #0x2e
     14a: 2e2f         	cmp	r6, #0x2f
     14c: 2f2e         	cmp	r7, #0x2e
     14e: 7273         	strb	r3, [r6, #0x9]
     150: 2f63         	cmp	r7, #0x63
     152: 6970         	ldr	r0, [r6, #0x14]
     154: 6f63         	ldr	r3, [r4, #0x74]
     156: 696c         	ldr	r4, [r5, #0x14]
     158: 6362         	str	r2, [r4, #0x34]
     15a: 6e2f         	ldr	r7, [r5, #0x60]
     15c: 7765         	strb	r5, [r4, #0x1d]
     15e: 696c         	ldr	r4, [r5, #0x14]
     160: 2f62         	cmp	r7, #0x62
     162: 696c         	ldr	r4, [r5, #0x14]
     164: 6362         	str	r2, [r4, #0x34]
     166: 6d2f         	ldr	r7, [r5, #0x50]
     168: 6361         	str	r1, [r4, #0x34]
     16a: 6968         	ldr	r0, [r5, #0x14]
     16c: 656e         	str	r6, [r5, #0x54]
     16e: 612f         	str	r7, [r5, #0x10]
     170: 6d72         	ldr	r2, [r6, #0x54]
     172: 2e2f         	cmp	r6, #0x2f
     174: 2f2e         	cmp	r7, #0x2e
     176: 2e2e         	cmp	r6, #0x2e
     178: 732f         	strb	r7, [r5, #0xc]
     17a: 7274         	strb	r4, [r6, #0x9]
     17c: 6e69         	ldr	r1, [r5, #0x64]
     17e: 0067         	lsls	r7, r4, #0x1
     180: 2e2e         	cmp	r6, #0x2e
     182: 2e2f         	cmp	r6, #0x2f
     184: 2f2e         	cmp	r7, #0x2e
     186: 2e2e         	cmp	r6, #0x2e
     188: 2e2f         	cmp	r6, #0x2f
     18a: 2f2e         	cmp	r7, #0x2e
     18c: 2e2e         	cmp	r6, #0x2e
     18e: 732f         	strb	r7, [r5, #0xc]
     190: 6372         	str	r2, [r6, #0x34]
     192: 702f         	strb	r7, [r5]
     194: 6369         	str	r1, [r5, #0x34]
     196: 6c6f         	ldr	r7, [r5, #0x44]
     198: 6269         	str	r1, [r5, #0x24]
     19a: 2f63         	cmp	r7, #0x63
     19c: 656e         	str	r6, [r5, #0x54]
     19e: 6c77         	ldr	r7, [r6, #0x44]
     1a0: 6269         	str	r1, [r5, #0x24]
     1a2: 6c2f         	ldr	r7, [r5, #0x40]
     1a4: 6269         	str	r1, [r5, #0x24]
     1a6: 2f63         	cmp	r7, #0x63
     1a8: 616d         	str	r5, [r5, #0x14]
     1aa: 6863         	ldr	r3, [r4, #0x4]
     1ac: 6e69         	ldr	r1, [r5, #0x64]
     1ae: 2f65         	cmp	r7, #0x65
     1b0: 7261         	strb	r1, [r4, #0x9]
     1b2: 2f6d         	cmp	r7, #0x6d
     1b4: 7a62         	ldrb	r2, [r4, #0x9]
     1b6: 7265         	strb	r5, [r4, #0x9]
     1b8: 2e6f         	cmp	r6, #0x6f
     1ba: 0063         	lsls	r3, r4, #0x1
     1bc: 682f         	ldr	r7, [r5]
     1be: 6d6f         	ldr	r7, [r5, #0x54]
     1c0: 2f65         	cmp	r7, #0x65
     1c2: 656a         	str	r2, [r5, #0x54]
     1c4: 6b6e         	ldr	r6, [r5, #0x34]
     1c6: 6e69         	ldr	r1, [r5, #0x64]
     1c8: 2f73         	cmp	r7, #0x73
     1ca: 6761         	str	r1, [r4, #0x74]
     1cc: 6e65         	ldr	r5, [r4, #0x64]
     1ce: 2f74         	cmp	r7, #0x74
     1d0: 6f77         	ldr	r7, [r6, #0x74]
     1d2: 6b72         	ldr	r2, [r6, #0x34]
     1d4: 7073         	strb	r3, [r6, #0x1]
     1d6: 6361         	str	r1, [r4, #0x34]
     1d8: 2f65         	cmp	r7, #0x65
     1da: 6c6c         	ldr	r4, [r5, #0x44]
     1dc: 6d76         	ldr	r6, [r6, #0x54]
     1de: 652d         	str	r5, [r5, #0x50]
     1e0: 626d         	str	r5, [r5, #0x24]
     1e2: 6465         	str	r5, [r4, #0x44]
     1e4: 6564         	str	r4, [r4, #0x54]
     1e6: 2f64         	cmp	r7, #0x64
     1e8: 6c6c         	ldr	r4, [r5, #0x44]
     1ea: 6d76         	ldr	r6, [r6, #0x54]
     1ec: 312d         	adds	r1, #0x2d
     1ee: 2f39         	cmp	r7, #0x39
     1f0: 7562         	strb	r2, [r4, #0x15]
     1f2: 6c69         	ldr	r1, [r5, #0x44]
     1f4: 2d64         	cmp	r5, #0x64
     1f6: 6e61         	ldr	r1, [r4, #0x64]
     1f8: 2d64         	cmp	r5, #0x64
     1fa: 6574         	str	r4, [r6, #0x54]
     1fc: 7473         	strb	r3, [r6, #0x11]
     1fe: 622f         	str	r7, [r5, #0x20]
     200: 6975         	ldr	r5, [r6, #0x14]
     202: 646c         	str	r4, [r5, #0x44]
     204: 702f         	strb	r7, [r5]
     206: 6369         	str	r1, [r5, #0x34]
     208: 6c6f         	ldr	r7, [r5, #0x44]
     20a: 6269         	str	r1, [r5, #0x24]
     20c: 2f63         	cmp	r7, #0x63
     20e: 7261         	strb	r1, [r4, #0x9]
     210: 766d         	strb	r5, [r5, #0x19]
     212: 6d36         	ldr	r6, [r6, #0x50]
     214: 735f         	strb	r7, [r3, #0xd]
     216: 666f         	str	r7, [r5, #0x64]
     218: 5f74         	ldrsh	r4, [r6, r5]
     21a: 6f6e         	ldr	r6, [r5, #0x74]
     21c: 7066         	strb	r6, [r4, #0x1]
     21e: 655f         	str	r7, [r3, #0x54]
     220: 6e78         	ldr	r0, [r7, #0x64]
     222: 725f         	strb	r7, [r3, #0x9]
     224: 7474         	strb	r4, [r6, #0x11]
     226: 2f69         	cmp	r7, #0x69
     228: 7273         	strb	r3, [r6, #0x9]
     22a: 2f63         	cmp	r7, #0x63
     22c: 6970         	ldr	r0, [r6, #0x14]
     22e: 6f63         	ldr	r3, [r4, #0x74]
     230: 696c         	ldr	r4, [r5, #0x14]
     232: 6362         	str	r2, [r4, #0x34]
     234: 615f         	str	r7, [r3, #0x14]
     236: 6d72         	ldr	r2, [r6, #0x54]
     238: 3676         	adds	r6, #0x76
     23a: 5f6d         	ldrsh	r5, [r5, r5]
     23c: 6f73         	ldr	r3, [r6, #0x74]
     23e: 7466         	strb	r6, [r4, #0x11]
     240: 6e5f         	ldr	r7, [r3, #0x64]
     242: 666f         	str	r7, [r5, #0x64]
     244: 5f70         	ldrsh	r0, [r6, r5]
     246: 7865         	ldrb	r5, [r4, #0x1]
     248: 5f6e         	ldrsh	r6, [r5, r5]
     24a: 7472         	strb	r2, [r6, #0x11]
     24c: 6974         	ldr	r4, [r6, #0x14]
     24e: 622d         	str	r5, [r5, #0x20]
     250: 6975         	ldr	r5, [r6, #0x14]
     252: 646c         	str	r4, [r5, #0x44]
     254: 4300         	orrs	r0, r0
     256: 5c3a         	ldrb	r2, [r7, r0]
     258: 7355         	strb	r5, [r2, #0xd]
     25a: 7265         	strb	r5, [r4, #0x9]
     25c: 5c73         	ldrb	r3, [r6, r1]
     25e: 696b         	ldr	r3, [r5, #0x14]
     260: 6172         	str	r2, [r6, #0x14]
     262: 5c6e         	ldrb	r6, [r5, r1]
     264: 6f44         	ldr	r4, [r0, #0x74]
     266: 7563         	strb	r3, [r4, #0x15]
     268: 656d         	str	r5, [r5, #0x54]
     26a: 746e         	strb	r6, [r5, #0x11]
     26c: 5c73         	ldrb	r3, [r6, r1]
     26e: 6544         	str	r4, [r0, #0x54]
     270: 5c76         	ldrb	r6, [r6, r1]
     272: 4341         	muls	r1, r0, r1
     274: 5c41         	ldrb	r1, [r0, r1]
     276: 7270         	strb	r0, [r6, #0x9]
     278: 676f         	str	r7, [r5, #0x74]
     27a: 6172         	str	r2, [r6, #0x14]
     27c: 736d         	strb	r5, [r5, #0xd]
     27e: 4300         	orrs	r0, r0
     280: 5c3a         	ldrb	r2, [r7, r0]
     282: 7355         	strb	r5, [r2, #0xd]
     284: 7265         	strb	r5, [r4, #0x9]
     286: 5c73         	ldrb	r3, [r6, r1]
     288: 696b         	ldr	r3, [r5, #0x14]
     28a: 6172         	str	r2, [r6, #0x14]
     28c: 006e         	lsls	r6, r5, #0x1
     28e: 7973         	ldrb	r3, [r6, #0x5]
     290: 6373         	str	r3, [r6, #0x34]
     292: 6c61         	ldr	r1, [r4, #0x44]
     294: 736c         	strb	r4, [r5, #0xd]
     296: 682e         	ldr	r6, [r5]
     298: 00           	<unknown>

Disassembly of section .debug_loclists:

00000000 <.debug_loclists>:
; extern void* sbrk(ptrdiff_t increment) {
       0: 0059         	lsls	r1, r3, #0x1
;     char* prev_heap_ptr = heap_ptr;
       2: 0000         	movs	r0, r0
       4: 0005         	movs	r5, r0
;     if (increment > 0) {
       6: 0004         	movs	r4, r0
       8: 0004         	movs	r4, r0
;         if (heap_ptr + increment > &__heap_end) {
       a: 0000         	movs	r0, r0
       c: 0010         	movs	r0, r2
       e: 0000         	movs	r0, r0
      10: 001b         	movs	r3, r3
      12: 0000         	movs	r0, r0
      14: 0026         	movs	r6, r4
; }
      16: 0000         	movs	r0, r0
;         heap_ptr += increment;
      18: 0039         	movs	r1, r7
; }
      1a: 0000         	movs	r0, r0
      1c: 0004         	movs	r4, r0
      1e: 0102         	lsls	r2, r0, #0x4
      20: 0450         	lsls	r0, r2, #0x11
      22: 0c02         	lsrs	r2, r0, #0x10
; int main() {
      24: 5101         	str	r1, [r0, r4]
      26: 0400         	lsls	r0, r0, #0x10
      28: 1406         	asrs	r6, r0, #0x10
      2a: 5001         	str	r1, [r0, r0]
      2c: 1804         	adds	r4, r0, r0
      2e: 011c         	lsls	r4, r3, #0x4
      30: 0050         	lsls	r0, r2, #0x1
;     volatile int result[SIZE][SIZE] = {0};
      32: 5604         	ldrsb	r4, [r0, r0]
      34: 027a         	lsls	r2, r7, #0x9
      36: 0c7d         	lsrs	r5, r7, #0x11
      38: 7a04         	ldrb	r4, [r0, #0x8]
      3a: 017c         	lsls	r4, r7, #0x5
      3c: 0450         	lsls	r0, r2, #0x11
      3e: 807c         	strh	r4, [r7, #0x2]
      40: 0201         	lsls	r1, r0, #0x8
      42: 0c7d         	lsrs	r5, r7, #0x11
      44: 0400         	lsls	r0, r0, #0x10
      46: 6456         	str	r6, [r2, #0x44]
      48: 7006         	strb	r6, [r0]
      4a: 1100         	asrs	r0, r0, #0x4
      4c: 1b04         	subs	r4, r0, r4
      4e: 049f         	lsls	r7, r3, #0x12
      50: 6664         	str	r4, [r4, #0x64]
      52: 7009         	strb	r1, [r1]
      54: 1100         	asrs	r0, r0, #0x4
;                 result[i][j] += matrix1[i][k] * matrix2[k][j];
      56: 1b04         	subs	r4, r0, r4
      58: 0111         	lsls	r1, r2, #0x4
      5a: 9f22         	ldr	r7, [sp, #0x88]
      5c: 2900         	cmp	r1, #0x0
      5e: 0000         	movs	r0, r0
      60: 0500         	lsls	r0, r0, #0x14
;             for (int k = 0; k < SIZE; k++) {
      62: 0400         	lsls	r0, r0, #0x10
      64: 0200         	lsls	r0, r0, #0x8
      66: 0000         	movs	r0, r0
      68: 0800         	lsrs	r0, r0, #0x20
      6a: 0000         	movs	r0, r0
;         for (int j = 0; j < SIZE; j++) {
      6c: 1600         	asrs	r0, r0, #0x18
      6e: 0000         	movs	r0, r0
      70: 0400         	lsls	r0, r0, #0x10
      72: 0c00         	lsrs	r0, r0, #0x10
;     for (int i = 0; i < SIZE; i++) {
      74: 5001         	str	r1, [r0, r0]
      76: 0c04         	lsrs	r4, r0, #0x10
      78: 040e         	lsls	r6, r1, #0x10
      7a: 01a3         	lsls	r3, r4, #0x6
;     for (int i = 0; i < SIZE; i++) {
      7c: 9f50         	ldr	r7, [sp, #0x140]
      7e: 0400         	lsls	r0, r0, #0x10
      80: 0600         	lsls	r0, r0, #0x18
;     __asm volatile ("svc 0" :  : "r"(r0) : "memory");
      82: 5101         	str	r1, [r0, r4]
; }
      84: 0604         	lsls	r4, r0, #0x18
      86: 010c         	lsls	r4, r1, #0x4
      88: 0052         	lsls	r2, r2, #0x1
      8a: 004b         	lsls	r3, r1, #0x1
      8c: 0000         	movs	r0, r0
      8e: 0005         	movs	r5, r0
      90: 0004         	movs	r4, r0
      92: 0002         	movs	r2, r0
      94: 0000         	movs	r0, r0
      96: 0008         	movs	r0, r1
      98: 0000         	movs	r0, r0
      9a: 001c         	movs	r4, r3
      9c: 0000         	movs	r0, r0
      9e: 0004         	movs	r4, r0
      a0: 0102         	lsls	r2, r0, #0x4
      a2: 0452         	lsls	r2, r2, #0x11
      a4: 0602         	lsls	r2, r0, #0x18
      a6: 7303         	strb	r3, [r0, #0xc]
      a8: 9f7f         	ldr	r7, [sp, #0x1fc]
      aa: 0c04         	lsrs	r4, r0, #0x10
      ac: 030e         	lsls	r6, r1, #0xc
      ae: 7f73         	ldrb	r3, [r6, #0x1d]
      b0: 009f         	lsls	r7, r3, #0x2
      b2: 0004         	movs	r4, r0
      b4: 0102         	lsls	r2, r0, #0x4
      b6: 0450         	lsls	r0, r2, #0x11
      b8: 0602         	lsls	r2, r0, #0x18
      ba: 7306         	strb	r6, [r0, #0xc]
      bc: 7000         	strb	r0, [r0]
      be: 2200         	movs	r2, #0x0
      c0: 049f         	lsls	r7, r3, #0x12
      c2: 0a06         	lsrs	r6, r0, #0x8
      c4: 7309         	strb	r1, [r1, #0xc]
      c6: 1100         	asrs	r0, r0, #0x4
      c8: 7001         	strb	r1, [r0]
      ca: 2200         	movs	r2, #0x0
      cc: 9f22         	ldr	r7, [sp, #0x88]
      ce: 0c04         	lsrs	r4, r0, #0x10
      d0: 060e         	lsls	r6, r1, #0x18
      d2: 0073         	lsls	r3, r6, #0x1
      d4: 0070         	lsls	r0, r6, #0x1
      d6: 9f22         	ldr	r7, [sp, #0x88]
      d8: 00           	<unknown>

Disassembly of section .debug_str_offsets:

00000000 <.debug_str_offsets>:
; extern void* sbrk(ptrdiff_t increment) {
       0: 005c         	lsls	r4, r3, #0x1
;     char* prev_heap_ptr = heap_ptr;
       2: 0000         	movs	r0, r0
       4: 0005         	movs	r5, r0
;     if (increment > 0) {
       6: 0000         	movs	r0, r0
       8: 003f         	movs	r7, r7
;         if (heap_ptr + increment > &__heap_end) {
       a: 0000         	movs	r0, r0
       c: 0024         	movs	r4, r4
       e: 0000         	movs	r0, r0
      10: 01eb         	lsls	r3, r5, #0x7
      12: 0000         	movs	r0, r0
      14: 0077         	lsls	r7, r6, #0x1
; }
      16: 0000         	movs	r0, r0
;         heap_ptr += increment;
      18: 008e         	lsls	r6, r1, #0x2
; }
      1a: 0000         	movs	r0, r0
      1c: 0080         	lsls	r0, r0, #0x2
      1e: 0000         	movs	r0, r0
      20: 000c         	movs	r4, r1
      22: 0000         	movs	r0, r0
; int main() {
      24: 00e2         	lsls	r2, r4, #0x3
      26: 0000         	movs	r0, r0
      28: 006c         	lsls	r4, r5, #0x1
      2a: 0000         	movs	r0, r0
      2c: 01e6         	lsls	r6, r4, #0x7
      2e: 0000         	movs	r0, r0
      30: 0089         	lsls	r1, r1, #0x2
;     volatile int result[SIZE][SIZE] = {0};
      32: 0000         	movs	r0, r0
      34: 0093         	lsls	r3, r2, #0x2
      36: 0000         	movs	r0, r0
      38: 0000         	movs	r0, r0
      3a: 0000         	movs	r0, r0
      3c: 0018         	movs	r0, r3
      3e: 0000         	movs	r0, r0
      40: 0054         	lsls	r4, r2, #0x1
      42: 0000         	movs	r0, r0
      44: 0011         	movs	r1, r2
      46: 0000         	movs	r0, r0
      48: 00ef         	lsls	r7, r5, #0x3
      4a: 0000         	movs	r0, r0
      4c: 000a         	movs	r2, r1
      4e: 0000         	movs	r0, r0
      50: 0215         	lsls	r5, r2, #0x8
      52: 0000         	movs	r0, r0
      54: 0068         	lsls	r0, r5, #0x1
;                 result[i][j] += matrix1[i][k] * matrix2[k][j];
      56: 0000         	movs	r0, r0
      58: 0103         	lsls	r3, r0, #0x4
      5a: 0000         	movs	r0, r0
      5c: 006f         	lsls	r7, r5, #0x1
      5e: 0000         	movs	r0, r0
      60: 0024         	movs	r4, r4
;             for (int k = 0; k < SIZE; k++) {
      62: 0000         	movs	r0, r0
      64: 0005         	movs	r5, r0
      66: 0000         	movs	r0, r0
      68: 003f         	movs	r7, r7
      6a: 0000         	movs	r0, r0
;         for (int j = 0; j < SIZE; j++) {
      6c: 0111         	lsls	r1, r2, #0x4
      6e: 0000         	movs	r0, r0
      70: 014d         	lsls	r5, r1, #0x5
      72: 0000         	movs	r0, r0
;     for (int i = 0; i < SIZE; i++) {
      74: 010b         	lsls	r3, r1, #0x4
      76: 0000         	movs	r0, r0
      78: 0062         	lsls	r2, r4, #0x1
      7a: 0000         	movs	r0, r0
;     for (int i = 0; i < SIZE; i++) {
      7c: 009e         	lsls	r6, r3, #0x2
      7e: 0000         	movs	r0, r0
      80: 00e2         	lsls	r2, r4, #0x3
;     __asm volatile ("svc 0" :  : "r"(r0) : "memory");
      82: 0000         	movs	r0, r0
; }
      84: 0038         	movs	r0, r7
      86: 0000         	movs	r0, r0
      88: 0034         	movs	r4, r6
      8a: 0000         	movs	r0, r0
      8c: 0005         	movs	r5, r0
      8e: 0000         	movs	r0, r0
      90: 003f         	movs	r7, r7
      92: 0000         	movs	r0, r0
      94: 00a5         	lsls	r5, r4, #0x2
      96: 0000         	movs	r0, r0
      98: 014d         	lsls	r5, r1, #0x5
      9a: 0000         	movs	r0, r0
      9c: 008e         	lsls	r6, r1, #0x2
      9e: 0000         	movs	r0, r0
      a0: 0097         	lsls	r7, r2, #0x2
      a2: 0000         	movs	r0, r0
      a4: 0064         	lsls	r4, r4, #0x1
      a6: 0000         	movs	r0, r0
      a8: 0066         	lsls	r6, r4, #0x1
      aa: 0000         	movs	r0, r0
      ac: 0093         	lsls	r3, r2, #0x2
      ae: 0000         	movs	r0, r0
      b0: 0022         	movs	r2, r4
      b2: 0000         	movs	r0, r0
      b4: 00e2         	lsls	r2, r4, #0x3
      b6: 0000         	movs	r0, r0
      b8: 0038         	movs	r0, r7
      ba: 0000         	movs	r0, r0
      bc: 006a         	lsls	r2, r5, #0x1
      be: 0000         	movs	r0, r0

Disassembly of section .ARM.attributes:

00000000 <.ARM.attributes>:
; extern void* sbrk(ptrdiff_t increment) {
       0: 4041         	eors	r1, r0
;     char* prev_heap_ptr = heap_ptr;
       2: 0000         	movs	r0, r0
       4: 6100         	str	r0, [r0, #0x10]
;     if (increment > 0) {
       6: 6165         	str	r5, [r4, #0x14]
       8: 6962         	ldr	r2, [r4, #0x14]
;         if (heap_ptr + increment > &__heap_end) {
       a: 0100         	lsls	r0, r0, #0x4
       c: 0036         	movs	r6, r6
       e: 0000         	movs	r0, r0
      10: 3243         	adds	r2, #0x43
      12: 302e         	adds	r0, #0x2e
      14: 0039         	movs	r1, r7
; }
      16: 6305         	str	r5, [r0, #0x30]
;         heap_ptr += increment;
      18: 726f         	strb	r7, [r5, #0x9]
; }
      1a: 6574         	str	r4, [r6, #0x54]
      1c: 2d78         	cmp	r5, #0x78
      1e: 306d         	adds	r0, #0x6d
      20: 0600         	lsls	r0, r0, #0x18
      22: 070c         	lsls	r4, r1, #0x1c
; int main() {
      24: 084d         	lsrs	r5, r1, #0x1
      26: 0900         	lsrs	r0, r0, #0x4
      28: 0e01         	lsrs	r1, r0, #0x18
      2a: 1100         	asrs	r0, r0, #0x4
      2c: 1201         	asrs	r1, r0, #0x8
      2e: 1404         	asrs	r4, r0, #0x10
      30: 1501         	asrs	r1, r0, #0x14
;     volatile int result[SIZE][SIZE] = {0};
      32: 1700         	asrs	r0, r0, #0x1c
      34: 1803         	adds	r3, r0, r0
      36: 1901         	adds	r1, r0, r4
      38: 1a01         	subs	r1, r0, r0
      3a: 1e02         	subs	r2, r0, #0x0
      3c: 2201         	movs	r2, #0x1
      3e: 2600         	movs	r6, #0x0
      40: 01           	<unknown>

Disassembly of section .symtab:

00000000 <.symtab>:
		...
;         if (heap_ptr + increment > &__heap_end) {
      10: 0001         	movs	r1, r0
		...
; }
      1a: 0000         	movs	r0, r0
      1c: 0004         	movs	r4, r0
      1e: fff1 000a    	<unknown>
		...
; int main() {
      2e: 0001         	movs	r1, r0
      30: 000d         	movs	r5, r1
;     volatile int result[SIZE][SIZE] = {0};
      32: 0000         	movs	r0, r0
      34: 001c         	movs	r4, r3
		...
      3e: 0001         	movs	r1, r0
      40: 0010         	movs	r0, r2
      42: 0000         	movs	r0, r0
      44: 0000         	movs	r0, r0
      46: 2000         	movs	r0, #0x0
      48: 0004         	movs	r4, r0
      4a: 0000         	movs	r0, r0
      4c: 0001         	movs	r1, r0
      4e: 0003         	movs	r3, r0
      50: 0019         	movs	r1, r3
      52: 0000         	movs	r0, r0
      54: 0024         	movs	r4, r4
		...
;                 result[i][j] += matrix1[i][k] * matrix2[k][j];
      5e: 0001         	movs	r1, r0
      60: 001c         	movs	r4, r3
;             for (int k = 0; k < SIZE; k++) {
      62: 0000         	movs	r0, r0
      64: 008c         	lsls	r4, r1, #0x2
		...
;         for (int j = 0; j < SIZE; j++) {
      6e: 0001         	movs	r1, r0
      70: 001f         	movs	r7, r3
		...
      7a: 0000         	movs	r0, r0
;     for (int i = 0; i < SIZE; i++) {
      7c: 0004         	movs	r4, r0
      7e: fff1 0027    	<unknown>
;     __asm volatile ("svc 0" :  : "r"(r0) : "memory");
      82: 0000         	movs	r0, r0
; }
      84: 0098         	lsls	r0, r3, #0x2
		...
      8e: 0001         	movs	r1, r0
      90: 002a         	movs	r2, r5
		...
      9a: 0000         	movs	r0, r0
      9c: 0004         	movs	r4, r0
      9e: fff1 0033    	<unknown>
      a2: 0000         	movs	r0, r0
      a4: 00a8         	lsls	r0, r5, #0x2
		...
      ae: 0001         	movs	r1, r0
      b0: 0068         	lsls	r0, r5, #0x1
		...
      ba: 0000         	movs	r0, r0
      bc: 0200         	lsls	r0, r0, #0x8
      be: 0001         	movs	r1, r0
      c0: 0036         	movs	r6, r6
      c2: 0000         	movs	r0, r0
      c4: 0001         	movs	r1, r0
      c6: 0000         	movs	r0, r0
      c8: 0024         	movs	r4, r4
      ca: 0000         	movs	r0, r0
      cc: 0012         	movs	r2, r2
      ce: 0001         	movs	r1, r0
      d0: 003b         	movs	r3, r7
      d2: 0000         	movs	r0, r0
      d4: 0000         	movs	r0, r0
      d6: 21f8         	movs	r1, #0xf8
      d8: 0000         	movs	r0, r0
      da: 0000         	movs	r0, r0
      dc: 0010         	movs	r0, r2
      de: fff1 0046    	<unknown>
      e2: 0000         	movs	r0, r0
      e4: 0025         	movs	r5, r4
      e6: 0000         	movs	r0, r0
      e8: 0074         	lsls	r4, r6, #0x1
      ea: 0000         	movs	r0, r0
      ec: 0012         	movs	r2, r2
      ee: 0001         	movs	r1, r0
      f0: 004b         	lsls	r3, r1, #0x1
      f2: 0000         	movs	r0, r0
      f4: 0099         	lsls	r1, r3, #0x2
      f6: 0000         	movs	r0, r0
      f8: 000e         	movs	r6, r1
      fa: 0000         	movs	r0, r0
      fc: 0022         	movs	r2, r4
      fe: 0001         	movs	r1, r0
     100: 005b         	lsls	r3, r3, #0x1
     102: 0000         	movs	r0, r0
     104: 0008         	movs	r0, r1
     106: 2000         	movs	r0, #0x0
     108: 0000         	movs	r0, r0
     10a: 0000         	movs	r0, r0
     10c: 0010         	movs	r0, r2
     10e: 0006         	movs	r6, r0
     110: 0075         	lsls	r5, r6, #0x1
     112: 0000         	movs	r0, r0
     114: 0099         	lsls	r1, r3, #0x2
     116: 0000         	movs	r0, r0
     118: 000e         	movs	r6, r1
     11a: 0000         	movs	r0, r0
     11c: 0012         	movs	r2, r2
     11e: 0001         	movs	r1, r0
     120: 007b         	lsls	r3, r7, #0x1
     122: 0000         	movs	r0, r0
     124: 00a9         	lsls	r1, r5, #0x2
     126: 0000         	movs	r0, r0
     128: 000e         	movs	r6, r1
     12a: 0000         	movs	r0, r0
     12c: 0012         	movs	r2, r2
     12e: 0001         	movs	r1, r0
     130: 0082         	lsls	r2, r0, #0x2
     132: 0000         	movs	r0, r0
     134: 0099         	lsls	r1, r3, #0x2
     136: 0000         	movs	r0, r0
     138: 000e         	movs	r6, r1
     13a: 0000         	movs	r0, r0
     13c: 0022         	movs	r2, r4
     13e: 0001         	movs	r1, r0
     140: 0092         	lsls	r2, r2, #0x2
     142: 0000         	movs	r0, r0
     144: 0099         	lsls	r1, r3, #0x2
     146: 0000         	movs	r0, r0
     148: 000e         	movs	r6, r1
     14a: 0000         	movs	r0, r0
     14c: 0022         	movs	r2, r4
     14e: 0001         	movs	r1, r0
     150: 00a1         	lsls	r1, r4, #0x2
		...
     15a: 0000         	movs	r0, r0
     15c: 0010         	movs	r0, r2
     15e: fff1 00a9    	<unknown>
     162: 0000         	movs	r0, r0
     164: 0000         	movs	r0, r0
     166: 0010         	movs	r0, r2
     168: 0000         	movs	r0, r0
     16a: 0000         	movs	r0, r0
     16c: 0010         	movs	r0, r2
     16e: fff1 00b6    	<unknown>
     172: 0000         	movs	r0, r0
     174: 0000         	movs	r0, r0
     176: 2000         	movs	r0, #0x0
     178: 0000         	movs	r0, r0
     17a: 0000         	movs	r0, r0
     17c: 0010         	movs	r0, r2
     17e: fff1 00bc    	<unknown>
     182: 0000         	movs	r0, r0
     184: 0000         	movs	r0, r0
     186: 0200         	lsls	r0, r0, #0x8
     188: 0000         	movs	r0, r0
     18a: 0000         	movs	r0, r0
     18c: 0010         	movs	r0, r2
     18e: fff1 00c7    	<unknown>
     192: 0000         	movs	r0, r0
     194: 0001         	movs	r1, r0
     196: 0000         	movs	r0, r0
     198: 0000         	movs	r0, r0
     19a: 0000         	movs	r0, r0
     19c: 0010         	movs	r0, r2
     19e: fff1 00d3    	<unknown>
     1a2: 0000         	movs	r0, r0
     1a4: 0008         	movs	r0, r1
     1a6: 2000         	movs	r0, #0x0
     1a8: 0000         	movs	r0, r0
     1aa: 0000         	movs	r0, r0
     1ac: 0010         	movs	r0, r2
     1ae: 0006         	movs	r6, r0
     1b0: 00dd         	lsls	r5, r3, #0x3
     1b2: 0000         	movs	r0, r0
     1b4: 0000         	movs	r0, r0
     1b6: 0008         	movs	r0, r1
     1b8: 0000         	movs	r0, r0
     1ba: 0000         	movs	r0, r0
     1bc: 0010         	movs	r0, r2
     1be: fff1 00ed    	<unknown>
     1c2: 0000         	movs	r0, r0
     1c4: 0000         	movs	r0, r0
     1c6: 0008         	movs	r0, r1
     1c8: 0000         	movs	r0, r0
     1ca: 0000         	movs	r0, r0
     1cc: 0010         	movs	r0, r2
     1ce: fff1 00fa    	<unknown>
     1d2: 0000         	movs	r0, r0
     1d4: 0008         	movs	r0, r1
     1d6: 0000         	movs	r0, r0
     1d8: 0000         	movs	r0, r0
     1da: 0000         	movs	r0, r0
     1dc: 0010         	movs	r0, r2
     1de: fff1 0106    	<unknown>
     1e2: 0000         	movs	r0, r0
     1e4: 0008         	movs	r0, r1
     1e6: 0000         	movs	r0, r0
     1e8: 0000         	movs	r0, r0
     1ea: 0000         	movs	r0, r0
     1ec: 0010         	movs	r0, r2
     1ee: fff1 0119    	<unknown>
     1f2: 0000         	movs	r0, r0
     1f4: 0000         	movs	r0, r0
     1f6: 2200         	movs	r2, #0x0
     1f8: 0000         	movs	r0, r0
     1fa: 0000         	movs	r0, r0
     1fc: 0010         	movs	r0, r2
     1fe: fff1 0121    	<unknown>
     202: 0000         	movs	r0, r0
     204: 0008         	movs	r0, r1
     206: 2000         	movs	r0, #0x0
     208: 0000         	movs	r0, r0
     20a: 0000         	movs	r0, r0
     20c: 0010         	movs	r0, r2
     20e: 0006         	movs	r6, r0
     210: 0127         	lsls	r7, r4, #0x4
     212: 0000         	movs	r0, r0
     214: 0d40         	lsrs	r0, r0, #0x15
     216: 0000         	movs	r0, r0
     218: 0000         	movs	r0, r0
     21a: 0000         	movs	r0, r0
     21c: 0010         	movs	r0, r2
     21e: fff1 0139    	<unknown>
     222: 0000         	movs	r0, r0
     224: 0d38         	lsrs	r0, r7, #0x14
     226: 0000         	movs	r0, r0
     228: 0000         	movs	r0, r0
     22a: 0000         	movs	r0, r0
     22c: 0010         	movs	r0, r2
     22e: fff1 0147    	<unknown>
     232: 0000         	movs	r0, r0
     234: 0d40         	lsrs	r0, r0, #0x15
     236: 0000         	movs	r0, r0
     238: 0000         	movs	r0, r0
     23a: 0000         	movs	r0, r0
     23c: 0010         	movs	r0, r2
     23e: fff1 015a    	<unknown>
     242: 0000         	movs	r0, r0
     244: 0008         	movs	r0, r1
     246: 2000         	movs	r0, #0x0
     248: 0000         	movs	r0, r0
     24a: 0000         	movs	r0, r0
     24c: 0010         	movs	r0, r2
     24e: 0004         	movs	r4, r0
     250: 0165         	lsls	r5, r4, #0x5
     252: 0000         	movs	r0, r0
     254: 0000         	movs	r0, r0
     256: 2000         	movs	r0, #0x0
     258: 0000         	movs	r0, r0
     25a: 0000         	movs	r0, r0
     25c: 0010         	movs	r0, r2
     25e: 0003         	movs	r3, r0
     260: 0172         	lsls	r2, r6, #0x5
     262: 0000         	movs	r0, r0
     264: 00b6         	lsls	r6, r6, #0x2
     266: 0000         	movs	r0, r0
     268: 0000         	movs	r0, r0
     26a: 0000         	movs	r0, r0
     26c: 0010         	movs	r0, r2
     26e: 0001         	movs	r1, r0
     270: 017d         	lsls	r5, r7, #0x5
     272: 0000         	movs	r0, r0
     274: 0008         	movs	r0, r1
     276: 2000         	movs	r0, #0x0
     278: 0000         	movs	r0, r0
     27a: 0000         	movs	r0, r0
     27c: 0010         	movs	r0, r2
     27e: 0006         	movs	r6, r0

Disassembly of section .shstrtab:

00000000 <.shstrtab>:
; extern void* sbrk(ptrdiff_t increment) {
       0: 2e00         	cmp	r6, #0x0
;     char* prev_heap_ptr = heap_ptr;
       2: 6574         	str	r4, [r6, #0x54]
       4: 7478         	strb	r0, [r7, #0x11]
;     if (increment > 0) {
       6: 2e00         	cmp	r6, #0x0
       8: 6f72         	ldr	r2, [r6, #0x74]
;         if (heap_ptr + increment > &__heap_end) {
       a: 6164         	str	r4, [r4, #0x14]
       c: 6174         	str	r4, [r6, #0x14]
       e: 2e00         	cmp	r6, #0x0
      10: 6164         	str	r4, [r4, #0x14]
      12: 6174         	str	r4, [r6, #0x14]
      14: 2e00         	cmp	r6, #0x0
; }
      16: 6474         	str	r4, [r6, #0x44]
;         heap_ptr += increment;
      18: 7461         	strb	r1, [r4, #0x11]
; }
      1a: 0061         	lsls	r1, r4, #0x1
      1c: 742e         	strb	r6, [r5, #0x10]
      1e: 7362         	strb	r2, [r4, #0xd]
      20: 0073         	lsls	r3, r6, #0x1
      22: 622e         	str	r6, [r5, #0x20]
; int main() {
      24: 7373         	strb	r3, [r6, #0xd]
      26: 2e00         	cmp	r6, #0x0
      28: 6568         	str	r0, [r5, #0x54]
      2a: 7061         	strb	r1, [r4, #0x1]
      2c: 2e00         	cmp	r6, #0x0
      2e: 7473         	strb	r3, [r6, #0x11]
      30: 6361         	str	r1, [r4, #0x34]
;     volatile int result[SIZE][SIZE] = {0};
      32: 006b         	lsls	r3, r5, #0x1
      34: 632e         	str	r6, [r5, #0x30]
      36: 6d6f         	ldr	r7, [r5, #0x54]
      38: 656d         	str	r5, [r5, #0x54]
      3a: 746e         	strb	r6, [r5, #0x11]
      3c: 2e00         	cmp	r6, #0x0
      3e: 6564         	str	r4, [r4, #0x54]
      40: 7562         	strb	r2, [r4, #0x15]
      42: 5f67         	ldrsh	r7, [r4, r5]
      44: 6e69         	ldr	r1, [r5, #0x64]
      46: 6f66         	ldr	r6, [r4, #0x74]
      48: 2e00         	cmp	r6, #0x0
      4a: 6564         	str	r4, [r4, #0x54]
      4c: 7562         	strb	r2, [r4, #0x15]
      4e: 5f67         	ldrsh	r7, [r4, r5]
      50: 6261         	str	r1, [r4, #0x24]
      52: 7262         	strb	r2, [r4, #0x9]
      54: 7665         	strb	r5, [r4, #0x19]
;                 result[i][j] += matrix1[i][k] * matrix2[k][j];
      56: 2e00         	cmp	r6, #0x0
      58: 6564         	str	r4, [r4, #0x54]
      5a: 7562         	strb	r2, [r4, #0x15]
      5c: 5f67         	ldrsh	r7, [r4, r5]
      5e: 696c         	ldr	r4, [r5, #0x14]
      60: 656e         	str	r6, [r5, #0x54]
;             for (int k = 0; k < SIZE; k++) {
      62: 2e00         	cmp	r6, #0x0
      64: 6564         	str	r4, [r4, #0x54]
      66: 7562         	strb	r2, [r4, #0x15]
      68: 5f67         	ldrsh	r7, [r4, r5]
      6a: 7266         	strb	r6, [r4, #0x9]
;         for (int j = 0; j < SIZE; j++) {
      6c: 6d61         	ldr	r1, [r4, #0x54]
      6e: 0065         	lsls	r5, r4, #0x1
      70: 642e         	str	r6, [r5, #0x40]
      72: 6265         	str	r5, [r4, #0x24]
;     for (int i = 0; i < SIZE; i++) {
      74: 6775         	str	r5, [r6, #0x74]
      76: 735f         	strb	r7, [r3, #0xd]
      78: 7274         	strb	r4, [r6, #0x9]
      7a: 2e00         	cmp	r6, #0x0
;     for (int i = 0; i < SIZE; i++) {
      7c: 6564         	str	r4, [r4, #0x54]
      7e: 7562         	strb	r2, [r4, #0x15]
      80: 5f67         	ldrsh	r7, [r4, r5]
;     __asm volatile ("svc 0" :  : "r"(r0) : "memory");
      82: 6461         	str	r1, [r4, #0x44]
; }
      84: 7264         	strb	r4, [r4, #0x9]
      86: 2e00         	cmp	r6, #0x0
      88: 6564         	str	r4, [r4, #0x54]
      8a: 7562         	strb	r2, [r4, #0x15]
      8c: 5f67         	ldrsh	r7, [r4, r5]
      8e: 696c         	ldr	r4, [r5, #0x14]
      90: 656e         	str	r6, [r5, #0x54]
      92: 735f         	strb	r7, [r3, #0xd]
      94: 7274         	strb	r4, [r6, #0x9]
      96: 2e00         	cmp	r6, #0x0
      98: 6564         	str	r4, [r4, #0x54]
      9a: 7562         	strb	r2, [r4, #0x15]
      9c: 5f67         	ldrsh	r7, [r4, r5]
      9e: 6f6c         	ldr	r4, [r5, #0x74]
      a0: 6c63         	ldr	r3, [r4, #0x44]
      a2: 7369         	strb	r1, [r5, #0xd]
      a4: 7374         	strb	r4, [r6, #0xd]
      a6: 2e00         	cmp	r6, #0x0
      a8: 6564         	str	r4, [r4, #0x54]
      aa: 7562         	strb	r2, [r4, #0x15]
      ac: 5f67         	ldrsh	r7, [r4, r5]
      ae: 7473         	strb	r3, [r6, #0x11]
      b0: 5f72         	ldrsh	r2, [r6, r5]
      b2: 666f         	str	r7, [r5, #0x64]
      b4: 7366         	strb	r6, [r4, #0xd]
      b6: 7465         	strb	r5, [r4, #0x11]
      b8: 0073         	lsls	r3, r6, #0x1
      ba: 412e         	asrs	r6, r5
      bc: 4d52         	ldr	r5, [pc, #0x148]        @ 0x208 <.rodata+0x150>
      be: 612e         	str	r6, [r5, #0x10]
      c0: 7474         	strb	r4, [r6, #0x11]
      c2: 6972         	ldr	r2, [r6, #0x14]
      c4: 7562         	strb	r2, [r4, #0x15]
      c6: 6574         	str	r4, [r6, #0x54]
      c8: 0073         	lsls	r3, r6, #0x1
      ca: 732e         	strb	r6, [r5, #0xc]
      cc: 6d79         	ldr	r1, [r7, #0x54]
      ce: 6174         	str	r4, [r6, #0x14]
      d0: 0062         	lsls	r2, r4, #0x1
      d2: 732e         	strb	r6, [r5, #0xc]
      d4: 7368         	strb	r0, [r5, #0xd]
      d6: 7274         	strb	r4, [r6, #0x9]
      d8: 6174         	str	r4, [r6, #0x14]
      da: 0062         	lsls	r2, r4, #0x1
      dc: 732e         	strb	r6, [r5, #0xc]
      de: 7274         	strb	r4, [r6, #0x9]
      e0: 6174         	str	r4, [r6, #0x14]
      e2: 0062         	lsls	r2, r4, #0x1

Disassembly of section .strtab:

00000000 <.strtab>:
; extern void* sbrk(ptrdiff_t increment) {
       0: 6d00         	ldr	r0, [r0, #0x50]
;     char* prev_heap_ptr = heap_ptr;
       2: 7461         	strb	r1, [r4, #0x11]
       4: 756d         	strb	r5, [r5, #0x15]
;     if (increment > 0) {
       6: 2e6c         	cmp	r6, #0x6c
       8: 0063         	lsls	r3, r4, #0x1
;         if (heap_ptr + increment > &__heap_end) {
       a: 7424         	strb	r4, [r4, #0x10]
       c: 2400         	movs	r4, #0x0
       e: 0064         	lsls	r4, r4, #0x1
      10: 6568         	str	r0, [r5, #0x54]
      12: 7061         	strb	r1, [r4, #0x1]
      14: 705f         	strb	r7, [r3, #0x1]
; }
      16: 7274         	strb	r4, [r6, #0x9]
;         heap_ptr += increment;
      18: 2400         	movs	r4, #0x0
; }
      1a: 0074         	lsls	r4, r6, #0x1
      1c: 6424         	str	r4, [r4, #0x40]
      1e: 6200         	str	r0, [r0, #0x20]
      20: 657a         	str	r2, [r7, #0x54]
      22: 6f72         	ldr	r2, [r6, #0x74]
; int main() {
      24: 632e         	str	r6, [r5, #0x30]
      26: 2400         	movs	r4, #0x0
      28: 0074         	lsls	r4, r6, #0x1
      2a: 656d         	str	r5, [r5, #0x54]
      2c: 736d         	strb	r5, [r5, #0xd]
      2e: 7465         	strb	r5, [r4, #0x11]
      30: 632e         	str	r6, [r5, #0x30]
;     volatile int result[SIZE][SIZE] = {0};
      32: 2400         	movs	r4, #0x0
      34: 0074         	lsls	r4, r6, #0x1
      36: 6273         	str	r3, [r6, #0x24]
      38: 6b72         	ldr	r2, [r6, #0x34]
      3a: 5f00         	ldrsh	r0, [r0, r4]
      3c: 685f         	ldr	r7, [r3, #0x4]
      3e: 6165         	str	r5, [r4, #0x14]
      40: 5f70         	ldrsh	r0, [r6, r5]
      42: 6e65         	ldr	r5, [r4, #0x64]
      44: 0064         	lsls	r4, r4, #0x1
      46: 616d         	str	r5, [r5, #0x14]
      48: 6e69         	ldr	r1, [r5, #0x64]
      4a: 5f00         	ldrsh	r0, [r0, r4]
      4c: 615f         	str	r7, [r3, #0x14]
      4e: 6165         	str	r5, [r4, #0x14]
      50: 6962         	ldr	r2, [r4, #0x14]
      52: 6d5f         	ldr	r7, [r3, #0x54]
      54: 6d65         	ldr	r5, [r4, #0x54]
;                 result[i][j] += matrix1[i][k] * matrix2[k][j];
      56: 6c63         	ldr	r3, [r4, #0x44]
      58: 3472         	adds	r4, #0x72
      5a: 5f00         	ldrsh	r0, [r0, r4]
      5c: 685f         	ldr	r7, [r3, #0x4]
      5e: 6165         	str	r5, [r4, #0x14]
      60: 5f70         	ldrsh	r0, [r6, r5]
;             for (int k = 0; k < SIZE; k++) {
      62: 7473         	strb	r3, [r6, #0x11]
      64: 7261         	strb	r1, [r4, #0x9]
      66: 0074         	lsls	r4, r6, #0x1
      68: 5f5f         	ldrsh	r7, [r3, r5]
      6a: 7364         	strb	r4, [r4, #0xd]
;         for (int j = 0; j < SIZE; j++) {
      6c: 5f6f         	ldrsh	r7, [r5, r5]
      6e: 6168         	str	r0, [r5, #0x14]
      70: 646e         	str	r6, [r5, #0x44]
      72: 656c         	str	r4, [r5, #0x54]
;     for (int i = 0; i < SIZE; i++) {
      74: 6200         	str	r0, [r0, #0x20]
      76: 657a         	str	r2, [r7, #0x54]
      78: 6f72         	ldr	r2, [r6, #0x74]
      7a: 6d00         	ldr	r0, [r0, #0x50]
;     for (int i = 0; i < SIZE; i++) {
      7c: 6d65         	ldr	r5, [r4, #0x54]
      7e: 6573         	str	r3, [r6, #0x54]
      80: 0074         	lsls	r4, r6, #0x1
;     __asm volatile ("svc 0" :  : "r"(r0) : "memory");
      82: 5f5f         	ldrsh	r7, [r3, r5]
; }
      84: 6561         	str	r1, [r4, #0x54]
      86: 6261         	str	r1, [r4, #0x24]
      88: 5f69         	ldrsh	r1, [r5, r5]
      8a: 656d         	str	r5, [r5, #0x54]
      8c: 636d         	str	r5, [r5, #0x34]
      8e: 726c         	strb	r4, [r5, #0x9]
      90: 0038         	movs	r0, r7
      92: 5f5f         	ldrsh	r7, [r3, r5]
      94: 6561         	str	r1, [r4, #0x54]
      96: 6261         	str	r1, [r4, #0x24]
      98: 5f69         	ldrsh	r1, [r5, r5]
      9a: 656d         	str	r5, [r5, #0x54]
      9c: 636d         	str	r5, [r5, #0x34]
      9e: 726c         	strb	r4, [r5, #0x9]
      a0: 5f00         	ldrsh	r0, [r0, r4]
      a2: 665f         	str	r7, [r3, #0x64]
      a4: 616c         	str	r4, [r5, #0x14]
      a6: 6873         	ldr	r3, [r6, #0x4]
      a8: 5f00         	ldrsh	r0, [r0, r4]
      aa: 665f         	str	r7, [r3, #0x64]
      ac: 616c         	str	r4, [r5, #0x14]
      ae: 6873         	ldr	r3, [r6, #0x4]
      b0: 735f         	strb	r7, [r3, #0xd]
      b2: 7a69         	ldrb	r1, [r5, #0x9]
      b4: 0065         	lsls	r5, r4, #0x1
      b6: 5f5f         	ldrsh	r7, [r3, r5]
      b8: 6172         	str	r2, [r6, #0x14]
      ba: 006d         	lsls	r5, r5, #0x1
      bc: 5f5f         	ldrsh	r7, [r3, r5]
      be: 6172         	str	r2, [r6, #0x14]
      c0: 5f6d         	ldrsh	r5, [r5, r5]
      c2: 6973         	ldr	r3, [r6, #0x14]
      c4: 657a         	str	r2, [r7, #0x54]
      c6: 5f00         	ldrsh	r0, [r0, r4]
      c8: 745f         	strb	r7, [r3, #0x11]
      ca: 736c         	strb	r4, [r5, #0xd]
      cc: 615f         	str	r7, [r3, #0x14]
      ce: 696c         	ldr	r4, [r5, #0x14]
      d0: 6e67         	ldr	r7, [r4, #0x64]
      d2: 5f00         	ldrsh	r0, [r0, r4]
      d4: 625f         	str	r7, [r3, #0x24]
      d6: 7373         	strb	r3, [r6, #0xd]
      d8: 655f         	str	r7, [r3, #0x54]
      da: 646e         	str	r6, [r5, #0x44]
      dc: 5f00         	ldrsh	r0, [r0, r4]
      de: 685f         	ldr	r7, [r3, #0x4]
      e0: 6165         	str	r5, [r4, #0x14]
      e2: 5f70         	ldrsh	r0, [r6, r5]
      e4: 6973         	ldr	r3, [r6, #0x14]
      e6: 657a         	str	r2, [r7, #0x54]
      e8: 6d5f         	ldr	r7, [r3, #0x54]
      ea: 6e69         	ldr	r1, [r5, #0x64]
      ec: 5f00         	ldrsh	r0, [r0, r4]
      ee: 735f         	strb	r7, [r3, #0xd]
      f0: 6174         	str	r4, [r6, #0x14]
      f2: 6b63         	ldr	r3, [r4, #0x34]
      f4: 735f         	strb	r7, [r3, #0xd]
      f6: 7a69         	ldrb	r1, [r5, #0x9]
      f8: 0065         	lsls	r5, r4, #0x1
      fa: 5f5f         	ldrsh	r7, [r3, r5]
      fc: 6164         	str	r4, [r4, #0x14]
      fe: 6174         	str	r4, [r6, #0x14]
     100: 735f         	strb	r7, [r3, #0xd]
     102: 7a69         	ldrb	r1, [r5, #0x9]
     104: 0065         	lsls	r5, r4, #0x1
     106: 5f5f         	ldrsh	r7, [r3, r5]
     108: 6164         	str	r4, [r4, #0x14]
     10a: 6174         	str	r4, [r6, #0x14]
     10c: 735f         	strb	r7, [r3, #0xd]
     10e: 756f         	strb	r7, [r5, #0x15]
     110: 6372         	str	r2, [r6, #0x34]
     112: 5f65         	ldrsh	r5, [r4, r5]
     114: 6973         	ldr	r3, [r6, #0x14]
     116: 657a         	str	r2, [r7, #0x54]
     118: 5f00         	ldrsh	r0, [r0, r4]
     11a: 735f         	strb	r7, [r3, #0xd]
     11c: 6174         	str	r4, [r6, #0x14]
     11e: 6b63         	ldr	r3, [r4, #0x34]
     120: 5f00         	ldrsh	r0, [r0, r4]
     122: 655f         	str	r7, [r3, #0x54]
     124: 646e         	str	r6, [r5, #0x44]
     126: 5f00         	ldrsh	r0, [r0, r4]
     128: 645f         	str	r7, [r3, #0x44]
     12a: 7461         	strb	r1, [r4, #0x11]
     12c: 5f61         	ldrsh	r1, [r4, r5]
     12e: 6f73         	ldr	r3, [r6, #0x74]
     130: 7275         	strb	r5, [r6, #0x9]
     132: 6563         	str	r3, [r4, #0x54]
     134: 655f         	str	r7, [r3, #0x54]
     136: 646e         	str	r6, [r5, #0x44]
     138: 5f00         	ldrsh	r0, [r0, r4]
     13a: 645f         	str	r7, [r3, #0x44]
     13c: 7461         	strb	r1, [r4, #0x11]
     13e: 5f61         	ldrsh	r1, [r4, r5]
     140: 6f73         	ldr	r3, [r6, #0x74]
     142: 7275         	strb	r5, [r6, #0x9]
     144: 6563         	str	r3, [r4, #0x54]
     146: 5f00         	ldrsh	r0, [r0, r4]
     148: 745f         	strb	r7, [r3, #0x11]
     14a: 6164         	str	r4, [r4, #0x14]
     14c: 6174         	str	r4, [r6, #0x14]
     14e: 735f         	strb	r7, [r3, #0xd]
     150: 756f         	strb	r7, [r5, #0x15]
     152: 6372         	str	r2, [r6, #0x34]
     154: 5f65         	ldrsh	r5, [r4, r5]
     156: 6e65         	ldr	r5, [r4, #0x64]
     158: 0064         	lsls	r4, r4, #0x1
     15a: 5f5f         	ldrsh	r7, [r3, r5]
     15c: 6164         	str	r4, [r4, #0x14]
     15e: 6174         	str	r4, [r6, #0x14]
     160: 655f         	str	r7, [r3, #0x54]
     162: 646e         	str	r6, [r5, #0x44]
     164: 5f00         	ldrsh	r0, [r0, r4]
     166: 645f         	str	r7, [r3, #0x44]
     168: 7461         	strb	r1, [r4, #0x11]
     16a: 5f61         	ldrsh	r1, [r4, r5]
     16c: 7473         	strb	r3, [r6, #0x11]
     16e: 7261         	strb	r1, [r4, #0x9]
     170: 0074         	lsls	r4, r6, #0x1
     172: 5f5f         	ldrsh	r7, [r3, r5]
     174: 6574         	str	r4, [r6, #0x54]
     176: 7478         	strb	r0, [r7, #0x11]
     178: 655f         	str	r7, [r3, #0x54]
     17a: 646e         	str	r6, [r5, #0x44]
     17c: 5f00         	ldrsh	r0, [r0, r4]
     17e: 6e65         	ldr	r5, [r4, #0x64]
     180: 0064         	lsls	r4, r4, #0x1
